L251 LINKER/LOCATER V4.65.0.0                                                           06/22/2017  19:19:11  PAGE 1


L251 LINKER/LOCATER V4.65.0.0, INVOKED BY:
D:\PROGRAM FILES (X86)\KEIL\C251\BIN\L251.EXE .\obj\main.obj, .\obj\START251.obj, .\obj\Test_Afe.obj, .\obj\Test_Aram.ob
>> j, .\obj\Test_CAL.obj, .\obj\Test_counter.obj, .\obj\Test_Dram.obj, .\obj\Test_GPIO.obj, .\obj\Test_gpio_wakeup.obj, 
>> .\obj\Test_i2c.obj, .\obj\Test_i2c_wakeup.obj, .\obj\Test_int_nest.obj, .\obj\Test_LED.obj, .\obj\Test_Prom.obj, .\ob
>> j\Test_Reg.obj, .\obj\Test_romboot.obj, .\obj\Test_RTC.obj, .\obj\Test_SFR.obj, .\obj\Test_spi.obj, .\obj\Test_timer.
>> obj, .\obj\Test_wdt.obj, .\obj\Test_Xbus.obj, .\obj\Test_RomEcc.obj, .\obj\Test_Uart.obj, .\obj\Test_SFT_RST.obj, .\o
>> bj\Test_spi0.obj, .\obj\Test_spi0_dma.obj, .\obj\Test_spi0_wakeup.obj, .\obj\Test_DebugOut.obj, .\obj\Test_Reset.obj,
>>  .\obj\Drv_Cal.obj, .\obj\Drv_mcu.obj, .\obj\Drv_XSI.obj, .\obj\Drv_XBUS.obj, .\obj\crckrmit.obj, .\obj\Drv_CRC.obj, 
>> .\obj\uart.obj TO .\obj\mcu PRINT (.\list\mcu.map) CASE CLASSES (EDATA (0X20-0X9FFF), HDATA (0X20-0X9FFF), ECODE (0XF
>> EE800-0XFEFFFF), ECODE (0XFF0000-0XFFFFFF))


CPU MODE:     251 SOURCE MODE
INTR FRAME:   4 BYTES SAVED ON INTERRUPT
MEMORY MODEL: XSMALL


INPUT MODULES INCLUDED:
  .\obj\main.obj (main)
         COMMENT TYPE 0: C251 V5.54.0.0
  .\obj\START251.obj (?C_START?)
         COMMENT TYPE 0: A251 V4.65.0.0
  .\obj\Test_Afe.obj (Test_Afe)
         COMMENT TYPE 0: C251 V5.54.0.0
  .\obj\Test_Aram.obj (Test_Aram)
         COMMENT TYPE 0: C251 V5.54.0.0
  .\obj\Test_CAL.obj (Test_CAL)
         COMMENT TYPE 0: C251 V5.54.0.0
  .\obj\Test_counter.obj (Test_counter)
         COMMENT TYPE 0: C251 V5.54.0.0
  .\obj\Test_Dram.obj (Test_Dram)
         COMMENT TYPE 0: C251 V5.54.0.0
  .\obj\Test_GPIO.obj (Test_GPIO)
         COMMENT TYPE 0: C251 V5.54.0.0
  .\obj\Test_gpio_wakeup.obj (Test_gpio_wakeup)
         COMMENT TYPE 0: C251 V5.54.0.0
  .\obj\Test_i2c.obj (Test_i2c)
         COMMENT TYPE 0: C251 V5.54.0.0
  .\obj\Test_i2c_wakeup.obj (Test_i2c_wakeup)
         COMMENT TYPE 0: C251 V5.54.0.0
  .\obj\Test_int_nest.obj (Test_int_nest)
         COMMENT TYPE 0: C251 V5.54.0.0
  .\obj\Test_LED.obj (Test_LED)
         COMMENT TYPE 0: C251 V5.54.0.0
  .\obj\Test_Prom.obj (Test_Prom)
         COMMENT TYPE 0: C251 V5.54.0.0
  .\obj\Test_Reg.obj (Test_Reg)
         COMMENT TYPE 0: C251 V5.54.0.0
  .\obj\Test_romboot.obj (Test_romboot)
         COMMENT TYPE 0: C251 V5.54.0.0
  .\obj\Test_RTC.obj (Test_RTC)
         COMMENT TYPE 0: C251 V5.54.0.0
  .\obj\Test_SFR.obj (Test_SFR)
         COMMENT TYPE 0: C251 V5.54.0.0
  .\obj\Test_spi.obj (Test_spi)
         COMMENT TYPE 0: C251 V5.54.0.0
  .\obj\Test_timer.obj (Test_timer)
         COMMENT TYPE 0: C251 V5.54.0.0
  .\obj\Test_wdt.obj (Test_wdt)
         COMMENT TYPE 0: C251 V5.54.0.0
  .\obj\Test_Xbus.obj (Test_Xbus)
         COMMENT TYPE 0: C251 V5.54.0.0
  .\obj\Test_RomEcc.obj (Test_RomEcc)
         COMMENT TYPE 0: C251 V5.54.0.0
  .\obj\Test_Uart.obj (Test_Uart)
         COMMENT TYPE 0: C251 V5.54.0.0
L251 LINKER/LOCATER V4.65.0.0                                                         06/22/2017  19:19:11  PAGE 2


  .\obj\Test_SFT_RST.obj (Test_SFT_RST)
         COMMENT TYPE 0: C251 V5.54.0.0
  .\obj\Test_spi0.obj (Test_spi0)
         COMMENT TYPE 0: C251 V5.54.0.0
  .\obj\Test_spi0_dma.obj (Test_spi0_dma)
         COMMENT TYPE 0: C251 V5.54.0.0
  .\obj\Test_spi0_wakeup.obj (Test_spi0_wakeup)
         COMMENT TYPE 0: C251 V5.54.0.0
  .\obj\Test_DebugOut.obj (Test_DebugOut)
         COMMENT TYPE 0: C251 V5.54.0.0
  .\obj\Test_Reset.obj (Test_Reset)
         COMMENT TYPE 0: C251 V5.54.0.0
  .\obj\Drv_Cal.obj (Drv_Cal)
         COMMENT TYPE 0: C251 V5.54.0.0
  .\obj\Drv_mcu.obj (Drv_mcu)
         COMMENT TYPE 0: C251 V5.54.0.0
  .\obj\Drv_XSI.obj (Drv_XSI)
         COMMENT TYPE 0: C251 V5.54.0.0
  .\obj\Drv_XBUS.obj (Drv_XBUS)
         COMMENT TYPE 0: C251 V5.54.0.0
  .\obj\crckrmit.obj (crckrmit)
         COMMENT TYPE 0: C251 V5.54.0.0
  .\obj\Drv_CRC.obj (Drv_CRC)
         COMMENT TYPE 0: C251 V5.54.0.0
  .\obj\uart.obj (uart)
         COMMENT TYPE 0: C251 V5.54.0.0
  D:\PROGRAM FILES (X86)\KEIL\C251\LIB\C2SXS.LIB (?C?INITEDATA)
         COMMENT TYPE 0: A251 V4.60
  D:\PROGRAM FILES (X86)\KEIL\C251\LIB\C2SXS.LIB (?C?SLDIV?)
         COMMENT TYPE 0: A251 V4.60
  D:\PROGRAM FILES (X86)\KEIL\C251\LIB\C2SXS.LIB (?C?BMOVENP?)
         COMMENT TYPE 0: A251 V4.60
  D:\PROGRAM FILES (X86)\KEIL\C251\LIB\C2SXS.LIB (PRINTF?)
         COMMENT TYPE 0: A251 V4.60
  D:\PROGRAM FILES (X86)\KEIL\C251\LIB\C2SXS.LIB (?C?INITEDATA_END)
         COMMENT TYPE 0: A251 V4.60
  D:\PROGRAM FILES (X86)\KEIL\C251\LIB\C2SXS.LIB (?C?ULDIV?)
         COMMENT TYPE 0: A251 V4.60
  D:\PROGRAM FILES (X86)\KEIL\C251\LIB\C2SXS.LIB (?C?PRNFMT?)
         COMMENT TYPE 0: A251 V4.60


ACTIVE MEMORY CLASSES OF MODULE:  .\obj\mcu (main)

BASE        START       END         USED      MEMORY CLASS
==========================================================
000000H     000020H     009FFFH     00069CH   EDATA
000000H     000020H     009FFFH               HDATA
000000H     FEE800H     FEFFFFH     001306H   ECODE
            FF0000H     FFFFFFH                 
000000H     FF0000H     FFFFFFH     0005D0H   HCONST
FF0000H     FF0000H     FFFFFFH     00005DH   CODE
000020H.0   000020H.0   00002FH.7   000000H.3 BIT
000000H     000000H     00007FH     000008H   DATA


MEMORY MAP OF MODULE:  .\obj\mcu (main)


START     STOP      LENGTH    ALIGN  RELOC    MEMORY CLASS   SEGMENT NAME
=========================================================================
000000H   000007H   000008H   ---    AT..     DATA           "REG BANK 0"
000008H.0 00001FH.7 000018H.0 ---    ---      **GAP**
000020H.0 000020H.0 000000H.1 BIT    UNIT     BIT            ?BI?TEST_WRITERAMREG??TEST_REG
000020H.1 000020H.1 000000H.1 BIT    UNIT     BIT            ?BI?TEST_AFEREGWRITE??TEST_REG
L251 LINKER/LOCATER V4.65.0.0                                                         06/22/2017  19:19:11  PAGE 3


000020H.2 000020H.2 000000H.1 BIT    UNIT     BIT            ?BI?CRCKRMIT
000020H.3 000020H   000000H.5 ---    ---      **GAP**
000021H   000228H   000208H   BYTE   UNIT     EDATA          ?ED?DRV_CRC
000229H   000428H   000200H   BYTE   UNIT     EDATA          ?ED?CRCKRMIT
000429H   000525H   0000FDH   BYTE   UNIT     EDATA          ?ED?UART
000526H   00054DH   000028H   BYTE   UNIT     EDATA          _EDATA_GROUP_
00054EH   000567H   00001AH   BYTE   UNIT     EDATA          ?ED?DRV_CRC16?DRV_CRC
000568H   000577H   000010H   BYTE   UNIT     EDATA          ?ED?DRV_MCU
000578H   000585H   00000EH   BYTE   UNIT     EDATA          ?ED?TEST_AFEREGWRITE??TEST_REG
000586H   000591H   00000CH   BYTE   UNIT     EDATA          ?ED?TEST_WRITERAMREG??TEST_REG
000592H   000599H   000008H   BYTE   UNIT     EDATA          ?ED?DRV_XSI
00059AH   0005A1H   000008H   BYTE   UNIT     EDATA          ?ED?CRC16_FUN??DRV_CRC
0005A2H   0005A8H   000007H   BYTE   UNIT     EDATA          ?ED?DRV_XSIREAD??DRV_XSI
0005A9H   0005AFH   000007H   BYTE   UNIT     EDATA          ?ED?DRV_XSIWRITE??DRV_XSI
0005B0H   0005B3H   000004H   BYTE   UNIT     EDATA          ?ED?DRV_XBUS
0005B4H   0005B7H   000004H   BYTE   UNIT     EDATA          ?ED?CRC_KERMIT??CRCKRMIT
0005B8H   0005BBH   000004H   BYTE   UNIT     EDATA          ?ED?CRCKERMIT??DRV_CRC
0005BCH   0005BCH   000001H   BYTE   UNIT     EDATA          ?ED?DRVXBUS_READLCD16??DRV_XBUS
0005BDH   0006BCH   000100H   BYTE   UNIT     EDATA          ?STACK
0006BDH   FEE7FFH   FEE143H   ---    ---      **GAP**
FEE800H   FEE8ECH   0000EDH   BYTE   INSEG    ECODE          ?PR?DRV_MCU
FEE8EDH   FEE8FFH   000013H   ---    ---      **GAP**
FEE900H   FEE99FH   0000A0H   BYTE   AT..     ECODE          ?EC?AT_FEE900_?1?MAIN
FEE9A0H   FEEE72H   0004D3H   BYTE   INSEG    ECODE          ?PR?DRV_CRC
FEEE73H   FEF221H   0003AFH   BYTE   INSEG    ECODE          ?C?LIB_CODE?
FEF222H   FEF443H   000222H   BYTE   INSEG    ECODE          ?PR?MAIN
FEF444H   FEF616H   0001D3H   BYTE   INSEG    ECODE          ?PR?TEST_REG
FEF617H   FEF7D9H   0001C3H   BYTE   INSEG    ECODE          ?PR?TEST_DEBUGOUT
FEF7DAH   FEF931H   000158H   BYTE   INSEG    ECODE          ?PR?DRV_XSI
FEF932H   FEFA32H   000101H   BYTE   INSEG    ECODE          ?PR?UART
FEFA33H   FEFAD0H   00009EH   BYTE   INSEG    ECODE          ?PR?CRCKRMIT
FEFAD1H   FEFB18H   000048H   BYTE   INSEG    ECODE          ?PR?DRV_XBUS
FEFB19H   FEFFFFH   0004E7H   ---    ---      **GAP**
FF0000H   FF0002H   000003H   ---    OFFS..   CODE           ?CO?START251?4
FF0003H   FF0006H   000004H   BYTE   INSEG    HCONST         ?HC?PRINTF
FF0007H   FF0032H   00002CH   ---    ---      **GAP**
FF0033H   FF0036H   000004H   ---    OFFS..   CODE           ?PR?IV?6
FF0037H   FF005DH   000027H   BYTE   UNIT     CODE           ?C_C51STARTUP
FF005EH   FF005FH   000002H   BYTE   UNIT     CODE           ?C_C51STARTUP?1
FF0060H   FF0088H   000029H   BYTE   UNIT     CODE           ?C_C51STARTUP?2
FF0089H   FF008CH   000004H   BYTE   UNIT     CODE           ?C_C51STARTUP?3
FF008DH   FF02B9H   00022DH   BYTE   UNIT     HCONST         ?C_INITEDATA
FF02BAH   FF0435H   00017CH   BYTE   UNIT     HCONST         ?HC?MAIN
FF0436H   FF0501H   0000CCH   BYTE   UNIT     HCONST         ?HC?DRV_CRC
FF0502H   FF05C4H   0000C3H   BYTE   UNIT     HCONST         ?HC?TEST_DEBUGOUT
FF05C5H   FF0658H   000094H   BYTE   UNIT     HCONST         ?HC?TEST_REG



OVERLAY MAP OF MODULE:   .\obj\mcu (main)


FUNCTION/MODULE                 EDATA_GROUP
--> CALLED FUNCTION/MODULE      START  STOP
===========================================
?C_C51STARTUP                   ----- -----

*** NEW ROOT ******************

?C_C51STARTUP?3                 ----- -----
  +--> main?/main

main?/main                      ----- -----
  +--> init_mcu?/main
  +--> Test_DebugOut?/Test_DebugOut
L251 LINKER/LOCATER V4.65.0.0                                                         06/22/2017  19:19:11  PAGE 4


  +--> PRINTF?/PRINTF?
  +--> DelayMs?/Drv_mcu

init_mcu?/main                  ----- -----
  +--> DrvSysClkInit?/Drv_mcu
  +--> DrvIOInit?/Drv_mcu
  +--> DrvUartInit?/uart
  +--> PRINTF?/PRINTF?
  +--> DelayMs?/Drv_mcu

DrvSysClkInit?/Drv_mcu          ----- -----

DrvIOInit?/Drv_mcu              ----- -----

DrvUartInit?/uart               ----- -----
  +--> CLK_DIV?/uart
  +--> ?C?SLDIV?/?C?SLDIV?

CLK_DIV?/uart                   ----- -----

?C?SLDIV?/?C?SLDIV?             ----- -----
  +--> ?C?ULIDIV?/?C?ULDIV?

?C?ULIDIV?/?C?ULDIV?            ----- -----

PRINTF?/PRINTF?                 0526H 054DH
  +--> OUT/PRINTF?

OUT/PRINTF?                     ----- -----
  +--> PUTCH/PRINTF?

PUTCH/PRINTF?                   ----- -----
  +--> putchar?/uart
  +--> OUT/PRINTF?

putchar?/uart                   ----- -----

DelayMs?/Drv_mcu                ----- -----
  +--> DelayUs?/Drv_mcu

DelayUs?/Drv_mcu                ----- -----

Test_DebugOut?/Test_DebugOut    ----- -----
  +--> Test_CON0?/Test_DebugOut
  +--> Test_CON2?/Test_DebugOut
  +--> Test_CLk32K?/Test_DebugOut

Test_CON0?/Test_DebugOut        ----- -----

Test_CON2?/Test_DebugOut        ----- -----

Test_CLk32K?/Test_DebugOut      ----- -----
  +--> PRINTF?/PRINTF?

*** NEW ROOT ******************

?C_C51STARTUP?1                 ----- -----

*** NEW ROOT ******************

ISR_Uart?/uart                  ----- -----

*** NEW ROOT ******************

?C_C51STARTUP?2                 ----- -----
L251 LINKER/LOCATER V4.65.0.0                                                         06/22/2017  19:19:11  PAGE 5





PUBLIC SYMBOLS OF MODULE:  .\obj\mcu (main)


      VALUE       CLASS    TYPE      PUBLIC SYMBOL NAME
      =================================================
      00FEEEA9H   ECODE    ---       ?C?BMOVENP8?
      00FEEEABH   ECODE    ---       ?C?BMOVENP?
      000000FFH   NUMBER   ---       ?C?CODESEG
      00FF0060H   CODE     ---       ?C?INITEDATA
      00FF02B8H   HCONST   WORD      ?C?INITEDATA_END
      00FEEF7BH   ECODE    ---       ?C?PRNFMT?
      00FEEE73H   ECODE    FAR LAB   ?C?SLDIV?
      00FF0000H   CODE     ---       ?C?STARTUP?
      00FEEEFDH   ECODE    FAR LAB   ?C?ULDIV?
      00FEEEFBH   ECODE    FAR LAB   ?C?ULIDIV?
      00000001H   NUMBER   ---       ?C?XDATASEG
      00FF0000H   CODE     ---       ?C_STARTUP?
      00000594H   EDATA    BYTE      ?CRC16_fun??BYTE
      000005B2H   EDATA    BYTE      ?CRCKERMIT??BYTE
      0000059CH   EDATA    BYTE      ?Drv_XsiRead??BYTE
      000005A3H   EDATA    BYTE      ?Drv_XsiWrite??BYTE
      0000054EH   EDATA    ---       ?printf??BYTE
      00000574H   EDATA    BYTE      ?Test_AfeRegWrite??BYTE
*SFR* 000000D0H.6 DATA     BIT       AC
*SFR* 000000E0H   DATA     BYTE      ACC
*SFR* 000000CBH.5 DATA     BIT       AFECKEN
*SFR* 000000E8H   DATA     BYTE      AIE
*SFR* 000000C0H   DATA     BYTE      AIF
*SFR* 000000F7H   DATA     BYTE      AIPH
*SFR* 000000F8H   DATA     BYTE      AIPL
*SFR* 000000EAH   DATA     BYTE      ANACON
*SFR* 000000C1H   DATA     BYTE      ANACON1
*SFR* 000000F3H   DATA     BYTE      ANACON10
*SFR* 000000C2H   DATA     BYTE      ANACON2
*SFR* 000000C3H   DATA     BYTE      ANACON3
*SFR* 000000C7H   DATA     BYTE      ANACON7
*SFR* 000000A0H   DATA     BYTE      ANACON8
*SFR* 000000B0H   DATA     BYTE      ANACON9
*SFR* 000000F0H   DATA     BYTE      B
*SFR* 00000098H.5 DATA     BIT       BUS_SEL
*SFR* 000000C8H.1 DATA     BIT       C_T2
*SFR* 000000FAH   DATA     BYTE      CCAP0H
*SFR* 000000EAH   DATA     BYTE      CCAP0L
*SFR* 000000FBH   DATA     BYTE      CCAP1H
*SFR* 000000EBH   DATA     BYTE      CCAP1L
*SFR* 000000FCH   DATA     BYTE      CCAP2H
*SFR* 000000ECH   DATA     BYTE      CCAP2L
*SFR* 000000FDH   DATA     BYTE      CCAP3H
*SFR* 000000EDH   DATA     BYTE      CCAP3L
*SFR* 000000FEH   DATA     BYTE      CCAP4H
*SFR* 000000EEH   DATA     BYTE      CCAP4L
*SFR* 000000DAH   DATA     BYTE      CCAPM0
*SFR* 000000DBH   DATA     BYTE      CCAPM1
*SFR* 000000DCH   DATA     BYTE      CCAPM2
*SFR* 000000DDH   DATA     BYTE      CCAPM3
*SFR* 000000DEH   DATA     BYTE      CCAPM4
*SFR* 000000D8H   DATA     BIT       CCF0
*SFR* 000000D8H.1 DATA     BIT       CCF1
*SFR* 000000D8H.2 DATA     BIT       CCF2
*SFR* 000000D8H.3 DATA     BIT       CCF3
*SFR* 000000D8H.4 DATA     BIT       CCF4
*SFR* 000000D8H   DATA     BYTE      CCON
L251 LINKER/LOCATER V4.65.0.0                                                         06/22/2017  19:19:11  PAGE 6


*SFR* 00000090H.3 DATA     BIT       CEX0
*SFR* 00000090H.4 DATA     BIT       CEX1
*SFR* 00000090H.5 DATA     BIT       CEX2
*SFR* 00000090H.6 DATA     BIT       CEX3
*SFR* 00000090H.7 DATA     BIT       CEX4
*SFR* 000000D8H.7 DATA     BIT       CF
*SFR* 000000C9H   DATA     BYTE      CGUCON0
*SFR* 000000C8H   DATA     BYTE      CGUCON1
*SFR* 000000CAH   DATA     BYTE      CGUCON2
*SFR* 000000CBH   DATA     BYTE      CGUCON3
*SFR* 000000CCH   DATA     BYTE      CGUCON4
*SFR* 000000CDH   DATA     BYTE      CGUCON5
*SFR* 000000CEH   DATA     BYTE      CGUCON6
*SFR* 000000CFH   DATA     BYTE      CGUCON7
*SFR* 000000BFH   DATA     BYTE      CGUCON8
*SFR* 000000F9H   DATA     BYTE      CH
*SFR* 000000E9H   DATA     BYTE      CL
      00FEF947H   ECODE    ---       CLK_DIV?
*SFR* 000000CEH   DATA     BIT       CLK_WP
*SFR* 000000CAH.7 DATA     BIT       CLKEN_500K
*SFR* 000000D9H   DATA     BYTE      CMOD
*SFR* 000000F1H   DATA     BYTE      CNT_MASK
*SFR* 000000F2H   DATA     BYTE      CNT_STA
*SFR* 000000B9H   DATA     BYTE      CNTCON
*SFR* 00000087H   DATA     BIT       CORE_IDLE
*SFR* 00000087H.1 DATA     BIT       CORE_STOP
*SFR* 000000C8H   DATA     BIT       CP_RL2
*SFR* 000000D8H.6 DATA     BIT       CR
      00FEE9A0H   ECODE    ---       CRC16?
      00FEEAECH   ECODE    ---       CRC16_fun?
      00FEEB96H   ECODE    ---       CRC16_LCD?
      00FEEA16H   ECODE    ---       CRC16_mode_init?
      00FEFA33H   ECODE    ---       crc_kermit?
      00000021H   EDATA    ---       Crc_mode
      00FEEBD9H   ECODE    ---       crc_sick?
      00FEEB57H   ECODE    ---       CRCKERMIT?
*SFR* 000000D0H.7 DATA     BIT       CY
      00FEE8A3H   ECODE    ---       DelayMs?
      00FEE874H   ECODE    ---       DelayUs?
*SFR* 00000083H   DATA     BYTE      DPH
*SFR* 00000082H   DATA     BYTE      DPL
*SFR* 00000084H   DATA     BYTE      DPXL
      00FEFAD1H   ECODE    ---       Drv_XbusInit?
      00FEF7DAH   ECODE    ---       Drv_XsiInit?
      00FEF87DH   ECODE    ---       Drv_XsiRead?
      00FEF7FBH   ECODE    ---       Drv_XsiReadReg?
      00FEF8D4H   ECODE    ---       Drv_XsiWrite?
      00FEF83CH   ECODE    ---       Drv_XsiWriteReg?
      00FEE80BH   ECODE    ---       DrvIOInit?
      00FEE800H   ECODE    ---       DrvSysClkInit?
      00FEE8C2H   ECODE    ---       DrvSysPowerMode?
      00FEF9E9H   ECODE    ---       DrvUartInit?
      00FEFAD8H   ECODE    ---       DrvXbus_ReadLcd16?
      00FEFB03H   ECODE    ---       DrvXbus_WriteLcd8?
*SFR* 000000DAH   DATA     BYTE      DSV_CON
*SFR* 000000A8H.7 DATA     BIT       EA
*SFR* 000000A8H.6 DATA     BIT       EC
*SFR* 00000090H.2 DATA     BIT       ECI
*SFR* 000000A8H.4 DATA     BIT       ES
*SFR* 00000098H.6 DATA     BIT       ESD_RST_EN
*SFR* 000000A8H.1 DATA     BIT       ET0
*SFR* 000000A8H.3 DATA     BIT       ET1
*SFR* 000000A8H.5 DATA     BIT       ET2
*SFR* 000000A8H   DATA     BIT       EX0
*SFR* 000000A8H.2 DATA     BIT       EX1
L251 LINKER/LOCATER V4.65.0.0                                                         06/22/2017  19:19:11  PAGE 7


*SFR* 000000C8H.3 DATA     BIT       EXEN2
*SFR* 000000C8H.6 DATA     BIT       EXF2
*SFR* 000000D0H.5 DATA     BIT       F0
*SFR* 00000098H.7 DATA     BIT       FE
*SFR* 000000BDH   DATA     BYTE      FT_EN_REG
      00FEE900H   ECODE    ---       g_aucVerfication
      00000568H   EDATA    ---       g_ucbuf
*SFR* 000000EAH   DATA     BIT       GPIO_INT_SEL
*SFR* 000000FDH   DATA     BYTE      I2C_STATE
*SFR* 00000091H   DATA     BYTE      I2CBUF
*SFR* 00000090H   DATA     BYTE      I2CCON
*SFR* 00000090H   DATA     BIT       I2CRI
*SFR* 00000095H   DATA     BYTE      I2CSEL
*SFR* 00000093H   DATA     BYTE      I2CSTOP
*SFR* 00000093H   DATA     BIT       I2CSTP
*SFR* 00000090H.1 DATA     BIT       I2CTI
*SFR* 000000A8H   DATA     BYTE      IE0
*SFR* 00000088H.1 DATA     BIT       IE0_
*SFR* 000000B1H   DATA     BYTE      IE1
*SFR* 00000088H.3 DATA     BIT       IE1_
*SFR* 000000A8H   DATA     BYTE      IEN0
*SFR* 000000DFH   DATA     BYTE      IEN1
      00FEF222H   ECODE    ---       init_mcu?
*SFR* 000000B0H.2 DATA     BIT       INT0
*SFR* 000000B0H.3 DATA     BIT       INT1
      00FEE9F5H   ECODE    ---       InvertUint16?
      00FEE9C9H   ECODE    ---       InvertUint8?
*SFR* 000000B7H   DATA     BYTE      IPH0
*SFR* 000000B8H   DATA     BYTE      IPL0
      00FEF9A3H   ECODE    ---       ISR_Uart?
*SFR* 00000088H   DATA     BIT       IT0
*SFR* 00000088H.2 DATA     BIT       IT1
*SFR* 000000E5H   DATA     BYTE      IWKSTA
*SFR* 000000CDH.3 DATA     BIT       LCD_RELOAD_FLASH_WKEN
*SFR* 000000FEH   DATA     BYTE      LED_EN
*SFR* 000000F3H   DATA     BIT       LVD_AVDD_EN
*SFR* 000000F3H.1 DATA     BIT       LVD_AVEE_EN
*SFR* 000000F3H.2 DATA     BIT       LVD_VDDI_EN
      00FEF426H   ECODE    ---       main?
*SFR* 000000D2H   DATA     BYTE      MEMBIST_EN1
*SFR* 000000D3H   DATA     BYTE      MEMBIST_EN2
*SFR* 000000D8H   DATA     BYTE      MEMBIST_ERRMAP1
*SFR* 000000D9H   DATA     BYTE      MEMBIST_ERRMAP2
*SFR* 000000D6H   DATA     BYTE      MEMBIST_FAIL1
*SFR* 000000D7H   DATA     BYTE      MEMBIST_FAIL2
*SFR* 000000D4H   DATA     BYTE      MEMBIST_FINISH1
*SFR* 000000D5H   DATA     BYTE      MEMBIST_FINISH2
*SFR* 000000D0H.2 DATA     BIT       OV
*SFR* 000000D0H   DATA     BIT       P
*SFR* 00000080H   DATA     BYTE      P0
*SFR* 00000080H   DATA     BYTE      P0BUF
*SFR* 000000ACH   DATA     BYTE      P0DIR
*SFR* 000000EBH   DATA     BYTE      P0MOD
*SFR* 000000ECH   DATA     BYTE      P0SEL
*SFR* 00000090H   DATA     BYTE      P1
*SFR* 00000094H   DATA     BYTE      P1BUF
*SFR* 000000ADH   DATA     BYTE      P1DIR
*SFR* 000000EDH   DATA     BYTE      P1MOD
*SFR* 000000EEH   DATA     BYTE      P1SEL
*SFR* 000000A0H   DATA     BYTE      P2
*SFR* 000000B0H   DATA     BYTE      P3
      00FEF932H   ECODE    ---       ParityCheck?
*SFR* 00000087H   DATA     BYTE      PCON
      000005B0H   EDATA    ---       pLcdWrapRegs
*SFR* 000000E6H   DATA     BYTE      POR_STA
L251 LINKER/LOCATER V4.65.0.0                                                         06/22/2017  19:19:11  PAGE 8


*SFR* 000000B8H.6 DATA     BIT       PPC
      00FEEECEH   ECODE    FAR LAB   printf?
*SFR* 000000C9H.2 DATA     BIT       PROBE32K_DIG_EN
*SFR* 000000C9H   DATA     BIT       PROBE32K_FROM1M_EN
*SFR* 000000B8H.4 DATA     BIT       PS
*SFR* 000000D0H   DATA     BYTE      PSW
*SFR* 000000D1H   DATA     BYTE      PSW1
*SFR* 000000B8H.1 DATA     BIT       PT0
*SFR* 000000B8H.3 DATA     BIT       PT1
*SFR* 000000B8H.5 DATA     BIT       PT2
      00FEF95CH   ECODE    ---       putchar?
*SFR* 000000B8H   DATA     BIT       PX0
*SFR* 000000B8H.2 DATA     BIT       PX1
      00000592H   EDATA    ---       pXSI0Regs
      00000596H   EDATA    ---       pXSI1Regs
*SFR* 00000098H.2 DATA     BIT       RB8
*SFR* 000000CBH   DATA     BYTE      RCAP2H
*SFR* 000000CAH   DATA     BYTE      RCAP2L
*SFR* 000000C8H.5 DATA     BIT       RCLK
*SFR* 000000B0H.7 DATA     BIT       RD
*SFR* 00000098H.4 DATA     BIT       REN
*SFR* 00000098H   DATA     BIT       RI
*SFR* 000000D0H.3 DATA     BIT       RS0
*SFR* 000000D0H.4 DATA     BIT       RS1
*SFR* 000000E7H   DATA     BYTE      RST_STA
*SFR* 0000009EH   DATA     BYTE      RTCCON
*SFR* 000000B6H   DATA     BYTE      RTCCON1
*SFR* 000000B0H   DATA     BIT       RXD
      00000429H   EDATA    ---       s_aucUartOutBuf
      00000524H   EDATA    BYTE      s_ucUartTxLen
      00000525H   EDATA    BYTE      s_ucUartTxPos
      00000523H   EDATA    BYTE      s_ucUartTxStore
*SFR* 000000A9H   DATA     BYTE      SADDR
*SFR* 000000B9H   DATA     BYTE      SADEN
*SFR* 00000099H   DATA     BYTE      SBUF
*SFR* 00000098H   DATA     BYTE      SCON
*SFR* 000000BFH.7 DATA     BIT       SEL_32K_SRC
*SFR* 000000E9H   DATA     BYTE      SFTRST
*SFR* 00000098H.7 DATA     BIT       SM0
*SFR* 00000098H.6 DATA     BIT       SM1
*SFR* 00000098H.5 DATA     BIT       SM2
*SFR* 00000081H   DATA     BYTE      SP
*SFR* 000000BEH   DATA     BYTE      SPH
*SFR* 000000A2H   DATA     BYTE      SPI0CON
*SFR* 000000A3H   DATA     BYTE      SPI0CON2
*SFR* 000000A5H   DATA     BYTE      SPI0CON3
*SFR* 000000A7H   DATA     BYTE      SPI0CON5
*SFR* 000000B3H   DATA     BYTE      SPI1CON
*SFR* 000000B4H   DATA     BYTE      SPI1CON2
*SFR* 000000B1H   DATA     BYTE      SPI1CON3
*SFR* 000000B2H   DATA     BYTE      SPI1CON4
*SFR* 000000DAH.2 DATA     BIT       SPI_REPLACE_EN
*SFR* 000000F5H   DATA     BYTE      SSCG_CON0
*SFR* 000000C9H.6 DATA     BIT       STANDBY
*SFR* 000000C8H.7 DATA     BIT       SYSCKEN
*SFR* 00000098H   DATA     BYTE      SYSCON
*SFR* 000000B0H.4 DATA     BIT       T0
*SFR* 000000B0H.5 DATA     BIT       T1
*SFR* 00000090H   DATA     BIT       T2
*SFR* 000000C8H   DATA     BYTE      T2CON
*SFR* 00000090H.1 DATA     BIT       T2EX
*SFR* 000000C9H   DATA     BYTE      T2MOD
*SFR* 00000098H.3 DATA     BIT       TB8
*SFR* 000000C8H.4 DATA     BIT       TCLK
*SFR* 00000088H   DATA     BYTE      TCON
L251 LINKER/LOCATER V4.65.0.0                                                         06/22/2017  19:19:11  PAGE 9


*SFR* 0000009BH   DATA     BYTE      TDIV
      00FEF528H   ECODE    ---       Test_AfeRegWrite?
      00FEF6B8H   ECODE    ---       Test_CLk32K?
      00FEF617H   ECODE    ---       Test_CLk48M?
*SFR* 000000BDH.2 DATA     BIT       TEST_CLK_EN
      00FEF795H   ECODE    ---       Test_CON0?
      00FEF79DH   ECODE    ---       Test_CON1?
      00FEF7A5H   ECODE    ---       Test_CON2?
      00FEF7BBH   ECODE    ---       Test_CON3?
      00FEEE5EH   ECODE    ---       Test_CRC?
      00FEF7C6H   ECODE    ---       Test_DebugOut?
*SFR* 000000E1H.7 DATA     BIT       TEST_OUT0_EN
*SFR* 000000E2H.7 DATA     BIT       TEST_OUT1_EN
*SFR* 000000E3H.7 DATA     BIT       TEST_OUT2_EN
*SFR* 000000E4H.7 DATA     BIT       TEST_OUT3_EN
      00FEF444H   ECODE    ---       Test_WriteRamReg?
*SFR* 000000E1H   DATA     BYTE      TESTCON0
*SFR* 000000E2H   DATA     BYTE      TESTCON1
*SFR* 000000E3H   DATA     BYTE      TESTCON2
*SFR* 000000E4H   DATA     BYTE      TESTCON3
*SFR* 00000088H.5 DATA     BIT       TF0
*SFR* 00000088H.7 DATA     BIT       TF1
*SFR* 000000C8H.7 DATA     BIT       TF2
*SFR* 0000008CH   DATA     BYTE      TH0
*SFR* 0000008DH   DATA     BYTE      TH1
*SFR* 000000CDH   DATA     BYTE      TH2
*SFR* 00000098H.1 DATA     BIT       TI
*SFR* 0000008AH   DATA     BYTE      TL0
*SFR* 0000008BH   DATA     BYTE      TL1
*SFR* 000000CCH   DATA     BYTE      TL2
*SFR* 00000089H   DATA     BYTE      TMOD
*SFR* 00000088H.4 DATA     BIT       TR0
*SFR* 00000088H.6 DATA     BIT       TR1
*SFR* 000000C8H.2 DATA     BIT       TR2
*SFR* 000000B0H.1 DATA     BIT       TXD
*SFR* 00000098H.2 DATA     BIT       UART0
*SFR* 00000098H.3 DATA     BIT       UART1
*SFR* 000000DAH.6 DATA     BIT       UART_INH
*SFR* 000000DAH.5 DATA     BIT       UART_INL
*SFR* 000000B7H.6 DATA     BIT       Uart_IPH
*SFR* 000000B8H.6 DATA     BIT       Uart_IPL
*SFR* 000000AEH   DATA     BYTE      UART_RELH
*SFR* 000000ABH   DATA     BYTE      UART_RELL
*SFR* 000000A9H.1 DATA     BIT       UART_TI
*SFR* 000000AAH   DATA     BYTE      UARTBUF
*SFR* 000000C8H.2 DATA     BIT       UARTCKEN
*SFR* 000000A9H   DATA     BYTE      UARTCON
      00FEFA77H   ECODE    ---       update_crc_kermit?
      00FEFA2CH   ECODE    ---       wait_printf_done?
*SFR* 00000099H   DATA     BYTE      WDTCON
*SFR* 0000009AH   DATA     BYTE      WDTREL
*SFR* 000000A6H   DATA     BYTE      WDTRST
*SFR* 000000B0H.6 DATA     BIT       WR
*SFR* 000000CBH.3 DATA     BIT       XBUSCKEN
*SFR* 000000EFH   DATA     BYTE      XDP_STA
*SFR* 000000EAH.3 DATA     BIT       XSI_SEL
*SFR* 000000BDH.1 DATA     BIT       XSI_SEL_STA
*SFR* 000000C8H.5 DATA     BIT       XSICKEN



SYMBOL TABLE OF MODULE:  .\obj\mcu (main)

      VALUE       REP       CLASS    TYPE      SYMBOL NAME
      ====================================================
L251 LINKER/LOCATER V4.65.0.0                                                         06/22/2017  19:19:11  PAGE 10


      ---         MODULE    ---      ---       main
      00FEF426H   PUBLIC    ECODE    ---       main?
      00FEF222H   PUBLIC    ECODE    ---       init_mcu?
      00FEE900H   PUBLIC    ECODE    ---       g_aucVerfication
      000000B6H   SFRSYM    DATA     BYTE      RTCCON1
      000000BFH   SFRSYM    DATA     BYTE      CGUCON8
      000000CEH   SFRSYM    DATA     BYTE      CGUCON6
      000000CDH   SFRSYM    DATA     BYTE      CGUCON5
      000000CCH   SFRSYM    DATA     BYTE      CGUCON4
      000000CBH   SFRSYM    DATA     BYTE      CGUCON3
      000000CAH   SFRSYM    DATA     BYTE      CGUCON2
      000000F1H   SFRSYM    DATA     BYTE      CNT_MASK
      000000C8H   SFRSYM    DATA     BYTE      CGUCON1
      000000C9H   SFRSYM    DATA     BYTE      CGUCON0
      000000D9H   SFRSYM    DATA     BYTE      MEMBIST_ERRMAP2
      000000D8H   SFRSYM    DATA     BYTE      MEMBIST_ERRMAP1
      000000B0H   SFRSYM    DATA     BYTE      ANACON9
      000000A0H   SFRSYM    DATA     BYTE      ANACON8
      000000D5H   SFRSYM    DATA     BYTE      MEMBIST_FINISH2
      000000C7H   SFRSYM    DATA     BYTE      ANACON7
      000000D4H   SFRSYM    DATA     BYTE      MEMBIST_FINISH1
      000000E9H   SFRSYM    DATA     BYTE      SFTRST
      000000EEH   SFRSYM    DATA     BYTE      P1SEL
      000000C3H   SFRSYM    DATA     BYTE      ANACON3
      000000ECH   SFRSYM    DATA     BYTE      P0SEL
      000000C2H   SFRSYM    DATA     BYTE      ANACON2
      000000C1H   SFRSYM    DATA     BYTE      ANACON1
      000000F3H.2 SFRSYM    DATA     BIT       LVD_VDDI_EN
      000000EDH   SFRSYM    DATA     BYTE      P1MOD
      00000098H   SFRSYM    DATA     BYTE      SYSCON
      000000ADH   SFRSYM    DATA     BYTE      P1DIR
      000000EBH   SFRSYM    DATA     BYTE      P0MOD
      000000ACH   SFRSYM    DATA     BYTE      P0DIR
      00000094H   SFRSYM    DATA     BYTE      P1BUF
      00000080H   SFRSYM    DATA     BYTE      P0BUF
      000000F3H.1 SFRSYM    DATA     BIT       LVD_AVEE_EN
      00000090H.1 SFRSYM    DATA     BIT       I2CTI
      000000F3H   SFRSYM    DATA     BIT       LVD_AVDD_EN
      00000090H   SFRSYM    DATA     BIT       I2CRI
      000000E4H   SFRSYM    DATA     BYTE      TESTCON3
      000000E3H   SFRSYM    DATA     BYTE      TESTCON2
      000000E5H   SFRSYM    DATA     BYTE      IWKSTA
      0000009AH   SFRSYM    DATA     BYTE      WDTREL
      000000E2H   SFRSYM    DATA     BYTE      TESTCON1
      000000E1H   SFRSYM    DATA     BYTE      TESTCON0
      00000099H   SFRSYM    DATA     BYTE      WDTCON
      000000C0H   SFRSYM    DATA     BYTE      AIF
      000000E8H   SFRSYM    DATA     BYTE      AIE
      000000BDH   SFRSYM    DATA     BYTE      FT_EN_REG
      0000009EH   SFRSYM    DATA     BYTE      RTCCON
      000000FEH   SFRSYM    DATA     BYTE      LED_EN
      000000B9H   SFRSYM    DATA     BYTE      CNTCON
      000000D7H   SFRSYM    DATA     BYTE      MEMBIST_FAIL2
      000000D6H   SFRSYM    DATA     BYTE      MEMBIST_FAIL1
      000000D3H   SFRSYM    DATA     BYTE      MEMBIST_EN2
      000000D2H   SFRSYM    DATA     BYTE      MEMBIST_EN1
      0000009BH   SFRSYM    DATA     BYTE      TDIV
      00000093H   SFRSYM    DATA     BIT       I2CSTP
      000000EFH   SFRSYM    DATA     BYTE      XDP_STA
      00000088H   SFRSYM    DATA     BYTE      TCON
      00000089H   SFRSYM    DATA     BYTE      TMOD
      000000A7H   SFRSYM    DATA     BYTE      SPI0CON5
      000000B2H   SFRSYM    DATA     BYTE      SPI1CON4
      000000B1H   SFRSYM    DATA     BYTE      SPI1CON3
      000000A5H   SFRSYM    DATA     BYTE      SPI0CON3
L251 LINKER/LOCATER V4.65.0.0                                                         06/22/2017  19:19:11  PAGE 11


      000000B4H   SFRSYM    DATA     BYTE      SPI1CON2
      000000EAH   SFRSYM    DATA     BYTE      ANACON
      00000087H   SFRSYM    DATA     BYTE      PCON
      000000A3H   SFRSYM    DATA     BYTE      SPI0CON2
      000000DAH   SFRSYM    DATA     BYTE      DSV_CON
      000000F2H   SFRSYM    DATA     BYTE      CNT_STA
      00000098H.6 SFRSYM    DATA     BIT       ESD_RST_EN
      000000F8H   SFRSYM    DATA     BYTE      AIPL
      00000095H   SFRSYM    DATA     BYTE      I2CSEL
      000000F5H   SFRSYM    DATA     BYTE      SSCG_CON0
      000000F7H   SFRSYM    DATA     BYTE      AIPH
      000000FDH   SFRSYM    DATA     BYTE      I2C_STATE
      00000090H   SFRSYM    DATA     BYTE      I2CCON
      000000A9H   SFRSYM    DATA     BYTE      UARTCON
      00000091H   SFRSYM    DATA     BYTE      I2CBUF
      000000B8H   SFRSYM    DATA     BYTE      IPL0
      000000F3H   SFRSYM    DATA     BYTE      ANACON10
      000000B7H   SFRSYM    DATA     BYTE      IPH0
      000000DFH   SFRSYM    DATA     BYTE      IEN1
      000000A8H   SFRSYM    DATA     BYTE      IEN0
      00000093H   SFRSYM    DATA     BYTE      I2CSTOP
      000000A8H.7 SFRSYM    DATA     BIT       EA
      000000B3H   SFRSYM    DATA     BYTE      SPI1CON
      000000A2H   SFRSYM    DATA     BYTE      SPI0CON

      00FEF222H   BLOCK     ECODE    ---       LVL=0
      00FEF224H   BLOCK     ECODE    NEAR LAB  LVL=1
      R15         REGSYM    ---      BYTE      i
      R7          REGSYM    ---      BYTE      cnt
      ---         BLOCKEND  ---      ---       LVL=1
      00FEF222H   LINE      ECODE    ---       #59
      00FEF224H   LINE      ECODE    ---       #60
      00FEF224H   LINE      ECODE    ---       #62
      00FEF226H   LINE      ECODE    ---       #63
      00FEF228H   LINE      ECODE    ---       #64
      00FEF22BH   LINE      ECODE    ---       #65
      00FEF22EH   LINE      ECODE    ---       #80
      00FEF233H   LINE      ECODE    ---       #83
      00FEF237H   LINE      ECODE    ---       #85
      00FEF23BH   LINE      ECODE    ---       #87
      00FEF23DH   LINE      ECODE    ---       #89
      00FEF249H   LINE      ECODE    ---       #90
      00FEF255H   LINE      ECODE    ---       #91
      00FEF257H   LINE      ECODE    ---       #93
      00FEF271H   LINE      ECODE    ---       #94
      00FEF278H   LINE      ECODE    ---       #95
      00FEF28EH   LINE      ECODE    ---       #96
      00FEF2A4H   LINE      ECODE    ---       #97
      00FEF2BAH   LINE      ECODE    ---       #98
      00FEF2D0H   LINE      ECODE    ---       #99
      00FEF2E4H   LINE      ECODE    ---       #102
      00FEF2E7H   LINE      ECODE    ---       #103
      00FEF2EAH   LINE      ECODE    ---       #104
      00FEF2EDH   LINE      ECODE    ---       #106
      00FEF2F0H   LINE      ECODE    ---       #107
      00FEF2F3H   LINE      ECODE    ---       #108
      00FEF305H   LINE      ECODE    ---       #110
      00FEF308H   LINE      ECODE    ---       #111
      00FEF30BH   LINE      ECODE    ---       #112
      00FEF31DH   LINE      ECODE    ---       #114
      00FEF320H   LINE      ECODE    ---       #115
      00FEF323H   LINE      ECODE    ---       #116
      00FEF335H   LINE      ECODE    ---       #118
      00FEF338H   LINE      ECODE    ---       #119
      00FEF33BH   LINE      ECODE    ---       #120
L251 LINKER/LOCATER V4.65.0.0                                                         06/22/2017  19:19:11  PAGE 12


      00FEF34DH   LINE      ECODE    ---       #122
      00FEF34FH   LINE      ECODE    ---       #124
      00FEF352H   LINE      ECODE    ---       #125
      00FEF355H   LINE      ECODE    ---       #126
      00FEF367H   LINE      ECODE    ---       #129
      00FEF36AH   LINE      ECODE    ---       #130
      00FEF36DH   LINE      ECODE    ---       #131
      00FEF37FH   LINE      ECODE    ---       #134
      00FEF382H   LINE      ECODE    ---       #135
      00FEF385H   LINE      ECODE    ---       #136
      00FEF397H   LINE      ECODE    ---       #139
      00FEF39AH   LINE      ECODE    ---       #140
      00FEF39DH   LINE      ECODE    ---       #141
      00FEF3AFH   LINE      ECODE    ---       #144
      00FEF3B2H   LINE      ECODE    ---       #145
      00FEF3B5H   LINE      ECODE    ---       #146
      00FEF3C7H   LINE      ECODE    ---       #148
      00FEF3CAH   LINE      ECODE    ---       #149
      00FEF3CDH   LINE      ECODE    ---       #150
      00FEF3DFH   LINE      ECODE    ---       #152
      00FEF3E2H   LINE      ECODE    ---       #153
      00FEF3E5H   LINE      ECODE    ---       #154
      00FEF3F7H   LINE      ECODE    ---       #156
      00FEF3FAH   LINE      ECODE    ---       #157
      00FEF3FDH   LINE      ECODE    ---       #158
      00FEF40FH   LINE      ECODE    ---       #160
      00FEF41BH   LINE      ECODE    ---       #161
      00FEF423H   LINE      ECODE    ---       #183
      ---         BLOCKEND  ---      ---       LVL=0

      00FEF426H   BLOCK     ECODE    ---       LVL=0
      00FEF426H   LINE      ECODE    ---       #192
      00FEF426H   LINE      ECODE    ---       #193
      00FEF426H   LINE      ECODE    ---       #194
      00FEF426H   LINE      ECODE    ---       #208
      00FEF42AH   LINE      ECODE    ---       #226
      00FEF42EH   LINE      ECODE    ---       #253
      00FEF42EH   LINE      ECODE    ---       #255
      00FEF43AH   LINE      ECODE    ---       #256
      00FEF442H   LINE      ECODE    ---       #257
      ---         BLOCKEND  ---      ---       LVL=0

      ---         MODULE    ---      ---       ?C_START?
      00FF0000H   PUBLIC    CODE     ---       ?C?STARTUP?
      00FF0000H   PUBLIC    CODE     ---       ?C_STARTUP?
      000000D0H.6 SFRSYM    DATA     BIT       AC
      000000E0H   SFRSYM    DATA     BYTE      ACC
      000000F0H   SFRSYM    DATA     BYTE      B
      000000FAH   SFRSYM    DATA     BYTE      CCAP0H
      000000EAH   SFRSYM    DATA     BYTE      CCAP0L
      000000FBH   SFRSYM    DATA     BYTE      CCAP1H
      000000EBH   SFRSYM    DATA     BYTE      CCAP1L
      000000FCH   SFRSYM    DATA     BYTE      CCAP2H
      000000ECH   SFRSYM    DATA     BYTE      CCAP2L
      000000FDH   SFRSYM    DATA     BYTE      CCAP3H
      000000EDH   SFRSYM    DATA     BYTE      CCAP3L
      000000FEH   SFRSYM    DATA     BYTE      CCAP4H
      000000EEH   SFRSYM    DATA     BYTE      CCAP4L
      000000DAH   SFRSYM    DATA     BYTE      CCAPM0
      000000DBH   SFRSYM    DATA     BYTE      CCAPM1
      000000DCH   SFRSYM    DATA     BYTE      CCAPM2
      000000DDH   SFRSYM    DATA     BYTE      CCAPM3
      000000DEH   SFRSYM    DATA     BYTE      CCAPM4
      000000D8H   SFRSYM    DATA     BIT       CCF0
      000000D8H.1 SFRSYM    DATA     BIT       CCF1
L251 LINKER/LOCATER V4.65.0.0                                                         06/22/2017  19:19:11  PAGE 13


      000000D8H.2 SFRSYM    DATA     BIT       CCF2
      000000D8H.3 SFRSYM    DATA     BIT       CCF3
      000000D8H.4 SFRSYM    DATA     BIT       CCF4
      000000D8H   SFRSYM    DATA     BYTE      CCON
      00000090H.3 SFRSYM    DATA     BIT       CEX0
      00000090H.4 SFRSYM    DATA     BIT       CEX1
      00000090H.5 SFRSYM    DATA     BIT       CEX2
      00000090H.6 SFRSYM    DATA     BIT       CEX3
      00000090H.7 SFRSYM    DATA     BIT       CEX4
      000000D8H.7 SFRSYM    DATA     BIT       CF
      000000F9H   SFRSYM    DATA     BYTE      CH
      000000E9H   SFRSYM    DATA     BYTE      CL
      000000D9H   SFRSYM    DATA     BYTE      CMOD
      000000C8H   SFRSYM    DATA     BIT       CP_RL2
      000000D8H.6 SFRSYM    DATA     BIT       CR
      000000D0H.7 SFRSYM    DATA     BIT       CY
      000000C8H.1 SFRSYM    DATA     BIT       C_T2
      00000083H   SFRSYM    DATA     BYTE      DPH
      00000082H   SFRSYM    DATA     BYTE      DPL
      00000084H   SFRSYM    DATA     BYTE      DPXL
      000000A8H.7 SFRSYM    DATA     BIT       EA
      000000A8H.6 SFRSYM    DATA     BIT       EC
      00000090H.2 SFRSYM    DATA     BIT       ECI
      000000A8H.4 SFRSYM    DATA     BIT       ES
      000000A8H.1 SFRSYM    DATA     BIT       ET0
      000000A8H.3 SFRSYM    DATA     BIT       ET1
      000000A8H.5 SFRSYM    DATA     BIT       ET2
      000000A8H   SFRSYM    DATA     BIT       EX0
      000000A8H.2 SFRSYM    DATA     BIT       EX1
      000000C8H.3 SFRSYM    DATA     BIT       EXEN2
      000000C8H.6 SFRSYM    DATA     BIT       EXF2
      000000D0H.5 SFRSYM    DATA     BIT       F0
      00000098H.7 SFRSYM    DATA     BIT       FE
      000000A8H   SFRSYM    DATA     BYTE      IE0
      00000088H.1 SFRSYM    DATA     BIT       IE0_
      000000B1H   SFRSYM    DATA     BYTE      IE1
      00000088H.3 SFRSYM    DATA     BIT       IE1_
      000000B0H.2 SFRSYM    DATA     BIT       INT0
      000000B0H.3 SFRSYM    DATA     BIT       INT1
      000000B7H   SFRSYM    DATA     BYTE      IPH0
      000000B8H   SFRSYM    DATA     BYTE      IPL0
      00000088H   SFRSYM    DATA     BIT       IT0
      00000088H.2 SFRSYM    DATA     BIT       IT1
      000000D0H.2 SFRSYM    DATA     BIT       OV
      000000D0H   SFRSYM    DATA     BIT       P
      00000080H   SFRSYM    DATA     BYTE      P0
      00000090H   SFRSYM    DATA     BYTE      P1
      000000A0H   SFRSYM    DATA     BYTE      P2
      000000B0H   SFRSYM    DATA     BYTE      P3
      00000087H   SFRSYM    DATA     BYTE      PCON
      000000B8H.6 SFRSYM    DATA     BIT       PPC
      000000B8H.4 SFRSYM    DATA     BIT       PS
      000000D0H   SFRSYM    DATA     BYTE      PSW
      000000D1H   SFRSYM    DATA     BYTE      PSW1
      000000B8H.1 SFRSYM    DATA     BIT       PT0
      000000B8H.3 SFRSYM    DATA     BIT       PT1
      000000B8H.5 SFRSYM    DATA     BIT       PT2
      000000B8H   SFRSYM    DATA     BIT       PX0
      000000B8H.2 SFRSYM    DATA     BIT       PX1
      00000098H.2 SFRSYM    DATA     BIT       RB8
      000000CBH   SFRSYM    DATA     BYTE      RCAP2H
      000000CAH   SFRSYM    DATA     BYTE      RCAP2L
      000000C8H.5 SFRSYM    DATA     BIT       RCLK
      000000B0H.7 SFRSYM    DATA     BIT       RD
      00000098H.4 SFRSYM    DATA     BIT       REN
L251 LINKER/LOCATER V4.65.0.0                                                         06/22/2017  19:19:11  PAGE 14


      00000098H   SFRSYM    DATA     BIT       RI
      000000D0H.3 SFRSYM    DATA     BIT       RS0
      000000D0H.4 SFRSYM    DATA     BIT       RS1
      000000B0H   SFRSYM    DATA     BIT       RXD
      000000A9H   SFRSYM    DATA     BYTE      SADDR
      000000B9H   SFRSYM    DATA     BYTE      SADEN
      00000099H   SFRSYM    DATA     BYTE      SBUF
      00000098H   SFRSYM    DATA     BYTE      SCON
      00000098H.7 SFRSYM    DATA     BIT       SM0
      00000098H.6 SFRSYM    DATA     BIT       SM1
      00000098H.5 SFRSYM    DATA     BIT       SM2
      00000081H   SFRSYM    DATA     BYTE      SP
      000000BEH   SFRSYM    DATA     BYTE      SPH
      000000B0H.4 SFRSYM    DATA     BIT       T0
      000000B0H.5 SFRSYM    DATA     BIT       T1
      00000090H   SFRSYM    DATA     BIT       T2
      000000C8H   SFRSYM    DATA     BYTE      T2CON
      00000090H.1 SFRSYM    DATA     BIT       T2EX
      000000C9H   SFRSYM    DATA     BYTE      T2MOD
      00000098H.3 SFRSYM    DATA     BIT       TB8
      000000C8H.4 SFRSYM    DATA     BIT       TCLK
      00000088H   SFRSYM    DATA     BYTE      TCON
      00000088H.5 SFRSYM    DATA     BIT       TF0
      00000088H.7 SFRSYM    DATA     BIT       TF1
      000000C8H.7 SFRSYM    DATA     BIT       TF2
      0000008CH   SFRSYM    DATA     BYTE      TH0
      0000008DH   SFRSYM    DATA     BYTE      TH1
      000000CDH   SFRSYM    DATA     BYTE      TH2
      00000098H.1 SFRSYM    DATA     BIT       TI
      0000008AH   SFRSYM    DATA     BYTE      TL0
      0000008BH   SFRSYM    DATA     BYTE      TL1
      000000CCH   SFRSYM    DATA     BYTE      TL2
      00000089H   SFRSYM    DATA     BYTE      TMOD
      00000088H.4 SFRSYM    DATA     BIT       TR0
      00000088H.6 SFRSYM    DATA     BIT       TR1
      000000C8H.2 SFRSYM    DATA     BIT       TR2
      000000B0H.1 SFRSYM    DATA     BIT       TXD
      000000A6H   SFRSYM    DATA     BYTE      WDTRST
      000000B0H.6 SFRSYM    DATA     BIT       WR
      0000A000H   SYMBOL    NUMBER   ---       EDATALEN
      00FF003FH   SYMBOL    CODE     ---       EDATALOOP
      00000001H   SYMBOL    NUMBER   ---       EDF
      00000001H   SYMBOL    NUMBER   ---       EMAP
      00000100H   SYMBOL    NUMBER   ---       HDATALEN
      00FF0051H   SYMBOL    CODE     ---       HDATALOOP
      00010000H   SYMBOL    NUMBER   ---       HDATASTART
      00000000H   SYMBOL    NUMBER   ---       IBPSTACK
      00000100H   SYMBOL    NUMBER   ---       IBPSTACKTOP
      00000001H   SYMBOL    NUMBER   ---       INTR
      00000001H   SYMBOL    NUMBER   ---       PAGM
      00000003H   SYMBOL    NUMBER   ---       RDRG
      00000001H   SYMBOL    NUMBER   ---       SRCM
      00000100H   SYMBOL    NUMBER   ---       STACKSIZE
      00FF0037H   SYMBOL    CODE     ---       STARTUP1
      00000003H   SYMBOL    NUMBER   ---       WSA
      00000003H   SYMBOL    NUMBER   ---       WSB
      00000001H   SYMBOL    NUMBER   ---       XALE
      00000000H   SYMBOL    NUMBER   ---       XBPSTACK
      00010000H   SYMBOL    NUMBER   ---       XBPSTACKTOP
      00000000H   SYMBOL    NUMBER   ---       XDATALEN
      00010000H   SYMBOL    NUMBER   ---       XDATASTART

      00FF0000H   BLOCK     CODE     NEAR LAB  LVL=0
      00FF0000H   LINE      CODE     ---       #183
      ---         BLOCKEND  ---      ---       LVL=0
L251 LINKER/LOCATER V4.65.0.0                                                         06/22/2017  19:19:11  PAGE 15



      00FF0037H   BLOCK     CODE     NEAR LAB  LVL=0
      00FF0037H   LINE      CODE     ---       #188
      00FF003AH   LINE      CODE     ---       #191
      00FF003EH   LINE      CODE     ---       #192
      00FF003FH   LINE      CODE     ---       #193
      00FF0042H   LINE      CODE     ---       #195
      00FF0044H   LINE      CODE     ---       #209
      00FF0048H   LINE      CODE     ---       #213
      00FF004CH   LINE      CODE     ---       #214
      00FF0050H   LINE      CODE     ---       #215
      00FF0051H   LINE      CODE     ---       #216
      00FF0054H   LINE      CODE     ---       #217
      00FF0056H   LINE      CODE     ---       #218
      00FF0058H   LINE      CODE     ---       #219
      00FF005AH   LINE      CODE     ---       #235
      ---         BLOCKEND  ---      ---       LVL=0

      00FF0089H   BLOCK     CODE     NEAR LAB  LVL=0
      00FF0089H   LINE      CODE     ---       #238
      ---         BLOCKEND  ---      ---       LVL=0

      ---         MODULE    ---      ---       Test_Afe
      000000B6H   SFRSYM    DATA     BYTE      RTCCON1
      000000BFH   SFRSYM    DATA     BYTE      CGUCON8
      000000CEH   SFRSYM    DATA     BYTE      CGUCON6
      000000CDH   SFRSYM    DATA     BYTE      CGUCON5
      000000CCH   SFRSYM    DATA     BYTE      CGUCON4
      000000CBH   SFRSYM    DATA     BYTE      CGUCON3
      000000CAH   SFRSYM    DATA     BYTE      CGUCON2
      000000C8H   SFRSYM    DATA     BYTE      CGUCON1
      000000C9H   SFRSYM    DATA     BYTE      CGUCON0
      000000D9H   SFRSYM    DATA     BYTE      MEMBIST_ERRMAP2
      000000D8H   SFRSYM    DATA     BYTE      MEMBIST_ERRMAP1
      000000B0H   SFRSYM    DATA     BYTE      ANACON9
      000000A0H   SFRSYM    DATA     BYTE      ANACON8
      000000D5H   SFRSYM    DATA     BYTE      MEMBIST_FINISH2
      000000C7H   SFRSYM    DATA     BYTE      ANACON7
      000000D4H   SFRSYM    DATA     BYTE      MEMBIST_FINISH1
      000000E9H   SFRSYM    DATA     BYTE      SFTRST
      000000EEH   SFRSYM    DATA     BYTE      P1SEL
      000000C3H   SFRSYM    DATA     BYTE      ANACON3
      000000ECH   SFRSYM    DATA     BYTE      P0SEL
      000000C2H   SFRSYM    DATA     BYTE      ANACON2
      000000C1H   SFRSYM    DATA     BYTE      ANACON1
      000000EDH   SFRSYM    DATA     BYTE      P1MOD
      00000098H   SFRSYM    DATA     BYTE      SYSCON
      000000ADH   SFRSYM    DATA     BYTE      P1DIR
      000000EBH   SFRSYM    DATA     BYTE      P0MOD
      000000ACH   SFRSYM    DATA     BYTE      P0DIR
      00000094H   SFRSYM    DATA     BYTE      P1BUF
      00000080H   SFRSYM    DATA     BYTE      P0BUF
      000000E4H   SFRSYM    DATA     BYTE      TESTCON3
      000000E3H   SFRSYM    DATA     BYTE      TESTCON2
      000000E5H   SFRSYM    DATA     BYTE      IWKSTA
      0000009AH   SFRSYM    DATA     BYTE      WDTREL
      000000E2H   SFRSYM    DATA     BYTE      TESTCON1
      000000E1H   SFRSYM    DATA     BYTE      TESTCON0
      00000099H   SFRSYM    DATA     BYTE      WDTCON
      000000C0H   SFRSYM    DATA     BYTE      AIF
      000000E8H   SFRSYM    DATA     BYTE      AIE
      000000BDH   SFRSYM    DATA     BYTE      FT_EN_REG
      0000009EH   SFRSYM    DATA     BYTE      RTCCON
      000000FEH   SFRSYM    DATA     BYTE      LED_EN
      000000B9H   SFRSYM    DATA     BYTE      CNTCON
L251 LINKER/LOCATER V4.65.0.0                                                         06/22/2017  19:19:11  PAGE 16


      000000D7H   SFRSYM    DATA     BYTE      MEMBIST_FAIL2
      000000D6H   SFRSYM    DATA     BYTE      MEMBIST_FAIL1
      000000D3H   SFRSYM    DATA     BYTE      MEMBIST_EN2
      000000D2H   SFRSYM    DATA     BYTE      MEMBIST_EN1
      0000009BH   SFRSYM    DATA     BYTE      TDIV
      000000EFH   SFRSYM    DATA     BYTE      XDP_STA
      00000088H   SFRSYM    DATA     BYTE      TCON
      00000089H   SFRSYM    DATA     BYTE      TMOD
      000000A7H   SFRSYM    DATA     BYTE      SPI0CON5
      000000B2H   SFRSYM    DATA     BYTE      SPI1CON4
      000000B1H   SFRSYM    DATA     BYTE      SPI1CON3
      000000A5H   SFRSYM    DATA     BYTE      SPI0CON3
      000000B4H   SFRSYM    DATA     BYTE      SPI1CON2
      000000EAH   SFRSYM    DATA     BYTE      ANACON
      00000087H   SFRSYM    DATA     BYTE      PCON
      000000A3H   SFRSYM    DATA     BYTE      SPI0CON2
      000000DAH   SFRSYM    DATA     BYTE      DSV_CON
      000000F8H   SFRSYM    DATA     BYTE      AIPL
      00000095H   SFRSYM    DATA     BYTE      I2CSEL
      000000F5H   SFRSYM    DATA     BYTE      SSCG_CON0
      000000F7H   SFRSYM    DATA     BYTE      AIPH
      000000FDH   SFRSYM    DATA     BYTE      I2C_STATE
      00000090H   SFRSYM    DATA     BYTE      I2CCON
      000000A9H   SFRSYM    DATA     BYTE      UARTCON
      000000B8H   SFRSYM    DATA     BYTE      IPL0
      000000F3H   SFRSYM    DATA     BYTE      ANACON10
      000000B7H   SFRSYM    DATA     BYTE      IPH0
      000000DFH   SFRSYM    DATA     BYTE      IEN1
      000000A8H   SFRSYM    DATA     BYTE      IEN0
      00000093H   SFRSYM    DATA     BYTE      I2CSTOP
      000000B3H   SFRSYM    DATA     BYTE      SPI1CON
      000000A2H   SFRSYM    DATA     BYTE      SPI0CON

      ---         MODULE    ---      ---       Test_Aram
      000000B6H   SFRSYM    DATA     BYTE      RTCCON1
      000000BFH   SFRSYM    DATA     BYTE      CGUCON8
      000000CEH   SFRSYM    DATA     BYTE      CGUCON6
      000000CDH   SFRSYM    DATA     BYTE      CGUCON5
      000000CCH   SFRSYM    DATA     BYTE      CGUCON4
      000000CBH   SFRSYM    DATA     BYTE      CGUCON3
      000000CAH   SFRSYM    DATA     BYTE      CGUCON2
      000000C8H   SFRSYM    DATA     BYTE      CGUCON1
      000000C9H   SFRSYM    DATA     BYTE      CGUCON0
      000000D9H   SFRSYM    DATA     BYTE      MEMBIST_ERRMAP2
      000000D8H   SFRSYM    DATA     BYTE      MEMBIST_ERRMAP1
      000000B0H   SFRSYM    DATA     BYTE      ANACON9
      000000A0H   SFRSYM    DATA     BYTE      ANACON8
      000000D5H   SFRSYM    DATA     BYTE      MEMBIST_FINISH2
      000000C7H   SFRSYM    DATA     BYTE      ANACON7
      000000D4H   SFRSYM    DATA     BYTE      MEMBIST_FINISH1
      000000E9H   SFRSYM    DATA     BYTE      SFTRST
      000000EEH   SFRSYM    DATA     BYTE      P1SEL
      000000C3H   SFRSYM    DATA     BYTE      ANACON3
      000000ECH   SFRSYM    DATA     BYTE      P0SEL
      000000C2H   SFRSYM    DATA     BYTE      ANACON2
      000000C1H   SFRSYM    DATA     BYTE      ANACON1
      000000EDH   SFRSYM    DATA     BYTE      P1MOD
      00000098H   SFRSYM    DATA     BYTE      SYSCON
      000000ADH   SFRSYM    DATA     BYTE      P1DIR
      000000EBH   SFRSYM    DATA     BYTE      P0MOD
      000000ACH   SFRSYM    DATA     BYTE      P0DIR
      00000094H   SFRSYM    DATA     BYTE      P1BUF
      00000080H   SFRSYM    DATA     BYTE      P0BUF
      000000E4H   SFRSYM    DATA     BYTE      TESTCON3
      000000E3H   SFRSYM    DATA     BYTE      TESTCON2
L251 LINKER/LOCATER V4.65.0.0                                                         06/22/2017  19:19:11  PAGE 17


      000000E5H   SFRSYM    DATA     BYTE      IWKSTA
      0000009AH   SFRSYM    DATA     BYTE      WDTREL
      000000E2H   SFRSYM    DATA     BYTE      TESTCON1
      000000E1H   SFRSYM    DATA     BYTE      TESTCON0
      00000099H   SFRSYM    DATA     BYTE      WDTCON
      000000C0H   SFRSYM    DATA     BYTE      AIF
      000000E8H   SFRSYM    DATA     BYTE      AIE
      000000BDH   SFRSYM    DATA     BYTE      FT_EN_REG
      0000009EH   SFRSYM    DATA     BYTE      RTCCON
      000000FEH   SFRSYM    DATA     BYTE      LED_EN
      000000B9H   SFRSYM    DATA     BYTE      CNTCON
      000000D7H   SFRSYM    DATA     BYTE      MEMBIST_FAIL2
      000000D6H   SFRSYM    DATA     BYTE      MEMBIST_FAIL1
      000000D3H   SFRSYM    DATA     BYTE      MEMBIST_EN2
      000000D2H   SFRSYM    DATA     BYTE      MEMBIST_EN1
      0000009BH   SFRSYM    DATA     BYTE      TDIV
      000000EFH   SFRSYM    DATA     BYTE      XDP_STA
      00000088H   SFRSYM    DATA     BYTE      TCON
      00000089H   SFRSYM    DATA     BYTE      TMOD
      000000A7H   SFRSYM    DATA     BYTE      SPI0CON5
      000000B2H   SFRSYM    DATA     BYTE      SPI1CON4
      000000B1H   SFRSYM    DATA     BYTE      SPI1CON3
      000000A5H   SFRSYM    DATA     BYTE      SPI0CON3
      000000B4H   SFRSYM    DATA     BYTE      SPI1CON2
      000000EAH   SFRSYM    DATA     BYTE      ANACON
      00000087H   SFRSYM    DATA     BYTE      PCON
      000000A3H   SFRSYM    DATA     BYTE      SPI0CON2
      000000DAH   SFRSYM    DATA     BYTE      DSV_CON
      000000F8H   SFRSYM    DATA     BYTE      AIPL
      00000095H   SFRSYM    DATA     BYTE      I2CSEL
      000000F5H   SFRSYM    DATA     BYTE      SSCG_CON0
      000000F7H   SFRSYM    DATA     BYTE      AIPH
      000000FDH   SFRSYM    DATA     BYTE      I2C_STATE
      00000090H   SFRSYM    DATA     BYTE      I2CCON
      000000A9H   SFRSYM    DATA     BYTE      UARTCON
      000000B8H   SFRSYM    DATA     BYTE      IPL0
      000000F3H   SFRSYM    DATA     BYTE      ANACON10
      000000B7H   SFRSYM    DATA     BYTE      IPH0
      000000DFH   SFRSYM    DATA     BYTE      IEN1
      000000A8H   SFRSYM    DATA     BYTE      IEN0
      00000093H   SFRSYM    DATA     BYTE      I2CSTOP
      000000B3H   SFRSYM    DATA     BYTE      SPI1CON
      000000A2H   SFRSYM    DATA     BYTE      SPI0CON

      ---         MODULE    ---      ---       Test_CAL
      000000B6H   SFRSYM    DATA     BYTE      RTCCON1
      000000BFH   SFRSYM    DATA     BYTE      CGUCON8
      000000CEH   SFRSYM    DATA     BYTE      CGUCON6
      000000CDH   SFRSYM    DATA     BYTE      CGUCON5
      000000CCH   SFRSYM    DATA     BYTE      CGUCON4
      000000CBH   SFRSYM    DATA     BYTE      CGUCON3
      000000CAH   SFRSYM    DATA     BYTE      CGUCON2
      000000C8H   SFRSYM    DATA     BYTE      CGUCON1
      000000C9H   SFRSYM    DATA     BYTE      CGUCON0
      000000D9H   SFRSYM    DATA     BYTE      MEMBIST_ERRMAP2
      000000D8H   SFRSYM    DATA     BYTE      MEMBIST_ERRMAP1
      000000B0H   SFRSYM    DATA     BYTE      ANACON9
      000000A0H   SFRSYM    DATA     BYTE      ANACON8
      000000D5H   SFRSYM    DATA     BYTE      MEMBIST_FINISH2
      000000C7H   SFRSYM    DATA     BYTE      ANACON7
      000000D4H   SFRSYM    DATA     BYTE      MEMBIST_FINISH1
      000000E9H   SFRSYM    DATA     BYTE      SFTRST
      000000EEH   SFRSYM    DATA     BYTE      P1SEL
      000000C3H   SFRSYM    DATA     BYTE      ANACON3
      000000ECH   SFRSYM    DATA     BYTE      P0SEL
L251 LINKER/LOCATER V4.65.0.0                                                         06/22/2017  19:19:11  PAGE 18


      000000C2H   SFRSYM    DATA     BYTE      ANACON2
      000000C1H   SFRSYM    DATA     BYTE      ANACON1
      000000EDH   SFRSYM    DATA     BYTE      P1MOD
      00000098H   SFRSYM    DATA     BYTE      SYSCON
      000000ADH   SFRSYM    DATA     BYTE      P1DIR
      000000EBH   SFRSYM    DATA     BYTE      P0MOD
      000000ACH   SFRSYM    DATA     BYTE      P0DIR
      00000094H   SFRSYM    DATA     BYTE      P1BUF
      00000080H   SFRSYM    DATA     BYTE      P0BUF
      000000E4H   SFRSYM    DATA     BYTE      TESTCON3
      000000E3H   SFRSYM    DATA     BYTE      TESTCON2
      000000E5H   SFRSYM    DATA     BYTE      IWKSTA
      0000009AH   SFRSYM    DATA     BYTE      WDTREL
      000000E2H   SFRSYM    DATA     BYTE      TESTCON1
      000000E1H   SFRSYM    DATA     BYTE      TESTCON0
      00000099H   SFRSYM    DATA     BYTE      WDTCON
      000000C0H   SFRSYM    DATA     BYTE      AIF
      000000E8H   SFRSYM    DATA     BYTE      AIE
      000000BDH   SFRSYM    DATA     BYTE      FT_EN_REG
      0000009EH   SFRSYM    DATA     BYTE      RTCCON
      000000FEH   SFRSYM    DATA     BYTE      LED_EN
      000000B9H   SFRSYM    DATA     BYTE      CNTCON
      000000D7H   SFRSYM    DATA     BYTE      MEMBIST_FAIL2
      000000D6H   SFRSYM    DATA     BYTE      MEMBIST_FAIL1
      000000D3H   SFRSYM    DATA     BYTE      MEMBIST_EN2
      000000D2H   SFRSYM    DATA     BYTE      MEMBIST_EN1
      0000009BH   SFRSYM    DATA     BYTE      TDIV
      000000EFH   SFRSYM    DATA     BYTE      XDP_STA
      00000088H   SFRSYM    DATA     BYTE      TCON
      00000089H   SFRSYM    DATA     BYTE      TMOD
      000000A7H   SFRSYM    DATA     BYTE      SPI0CON5
      000000B2H   SFRSYM    DATA     BYTE      SPI1CON4
      000000B1H   SFRSYM    DATA     BYTE      SPI1CON3
      000000A5H   SFRSYM    DATA     BYTE      SPI0CON3
      000000B4H   SFRSYM    DATA     BYTE      SPI1CON2
      000000EAH   SFRSYM    DATA     BYTE      ANACON
      00000087H   SFRSYM    DATA     BYTE      PCON
      000000A3H   SFRSYM    DATA     BYTE      SPI0CON2
      000000DAH   SFRSYM    DATA     BYTE      DSV_CON
      000000F8H   SFRSYM    DATA     BYTE      AIPL
      00000095H   SFRSYM    DATA     BYTE      I2CSEL
      000000F5H   SFRSYM    DATA     BYTE      SSCG_CON0
      000000F7H   SFRSYM    DATA     BYTE      AIPH
      000000FDH   SFRSYM    DATA     BYTE      I2C_STATE
      00000090H   SFRSYM    DATA     BYTE      I2CCON
      000000A9H   SFRSYM    DATA     BYTE      UARTCON
      000000B8H   SFRSYM    DATA     BYTE      IPL0
      000000F3H   SFRSYM    DATA     BYTE      ANACON10
      000000B7H   SFRSYM    DATA     BYTE      IPH0
      000000DFH   SFRSYM    DATA     BYTE      IEN1
      000000A8H   SFRSYM    DATA     BYTE      IEN0
      00000093H   SFRSYM    DATA     BYTE      I2CSTOP
      000000B3H   SFRSYM    DATA     BYTE      SPI1CON
      000000A2H   SFRSYM    DATA     BYTE      SPI0CON

      ---         MODULE    ---      ---       Test_counter
      000000B6H   SFRSYM    DATA     BYTE      RTCCON1
      000000BFH   SFRSYM    DATA     BYTE      CGUCON8
      000000CEH   SFRSYM    DATA     BYTE      CGUCON6
      000000CDH   SFRSYM    DATA     BYTE      CGUCON5
      000000CCH   SFRSYM    DATA     BYTE      CGUCON4
      000000CBH   SFRSYM    DATA     BYTE      CGUCON3
      000000CAH   SFRSYM    DATA     BYTE      CGUCON2
      000000C8H   SFRSYM    DATA     BYTE      CGUCON1
      000000C9H   SFRSYM    DATA     BYTE      CGUCON0
L251 LINKER/LOCATER V4.65.0.0                                                         06/22/2017  19:19:11  PAGE 19


      000000D9H   SFRSYM    DATA     BYTE      MEMBIST_ERRMAP2
      000000D8H   SFRSYM    DATA     BYTE      MEMBIST_ERRMAP1
      000000B0H   SFRSYM    DATA     BYTE      ANACON9
      000000A0H   SFRSYM    DATA     BYTE      ANACON8
      000000D5H   SFRSYM    DATA     BYTE      MEMBIST_FINISH2
      000000C7H   SFRSYM    DATA     BYTE      ANACON7
      000000D4H   SFRSYM    DATA     BYTE      MEMBIST_FINISH1
      000000E9H   SFRSYM    DATA     BYTE      SFTRST
      000000EEH   SFRSYM    DATA     BYTE      P1SEL
      000000C3H   SFRSYM    DATA     BYTE      ANACON3
      000000ECH   SFRSYM    DATA     BYTE      P0SEL
      000000C2H   SFRSYM    DATA     BYTE      ANACON2
      000000C1H   SFRSYM    DATA     BYTE      ANACON1
      000000EDH   SFRSYM    DATA     BYTE      P1MOD
      00000098H   SFRSYM    DATA     BYTE      SYSCON
      000000ADH   SFRSYM    DATA     BYTE      P1DIR
      000000EBH   SFRSYM    DATA     BYTE      P0MOD
      000000ACH   SFRSYM    DATA     BYTE      P0DIR
      00000094H   SFRSYM    DATA     BYTE      P1BUF
      00000080H   SFRSYM    DATA     BYTE      P0BUF
      000000E4H   SFRSYM    DATA     BYTE      TESTCON3
      000000E3H   SFRSYM    DATA     BYTE      TESTCON2
      000000E5H   SFRSYM    DATA     BYTE      IWKSTA
      0000009AH   SFRSYM    DATA     BYTE      WDTREL
      000000E2H   SFRSYM    DATA     BYTE      TESTCON1
      000000E1H   SFRSYM    DATA     BYTE      TESTCON0
      00000099H   SFRSYM    DATA     BYTE      WDTCON
      000000C0H   SFRSYM    DATA     BYTE      AIF
      000000E8H   SFRSYM    DATA     BYTE      AIE
      000000BDH   SFRSYM    DATA     BYTE      FT_EN_REG
      0000009EH   SFRSYM    DATA     BYTE      RTCCON
      000000FEH   SFRSYM    DATA     BYTE      LED_EN
      000000B9H   SFRSYM    DATA     BYTE      CNTCON
      000000D7H   SFRSYM    DATA     BYTE      MEMBIST_FAIL2
      000000D6H   SFRSYM    DATA     BYTE      MEMBIST_FAIL1
      000000D3H   SFRSYM    DATA     BYTE      MEMBIST_EN2
      000000D2H   SFRSYM    DATA     BYTE      MEMBIST_EN1
      0000009BH   SFRSYM    DATA     BYTE      TDIV
      000000EFH   SFRSYM    DATA     BYTE      XDP_STA
      00000088H   SFRSYM    DATA     BYTE      TCON
      00000089H   SFRSYM    DATA     BYTE      TMOD
      000000A7H   SFRSYM    DATA     BYTE      SPI0CON5
      000000B2H   SFRSYM    DATA     BYTE      SPI1CON4
      000000B1H   SFRSYM    DATA     BYTE      SPI1CON3
      000000A5H   SFRSYM    DATA     BYTE      SPI0CON3
      000000B4H   SFRSYM    DATA     BYTE      SPI1CON2
      000000EAH   SFRSYM    DATA     BYTE      ANACON
      00000087H   SFRSYM    DATA     BYTE      PCON
      000000A3H   SFRSYM    DATA     BYTE      SPI0CON2
      000000DAH   SFRSYM    DATA     BYTE      DSV_CON
      000000F8H   SFRSYM    DATA     BYTE      AIPL
      00000095H   SFRSYM    DATA     BYTE      I2CSEL
      000000F5H   SFRSYM    DATA     BYTE      SSCG_CON0
      000000F7H   SFRSYM    DATA     BYTE      AIPH
      000000FDH   SFRSYM    DATA     BYTE      I2C_STATE
      00000090H   SFRSYM    DATA     BYTE      I2CCON
      000000A9H   SFRSYM    DATA     BYTE      UARTCON
      000000B8H   SFRSYM    DATA     BYTE      IPL0
      000000F3H   SFRSYM    DATA     BYTE      ANACON10
      000000B7H   SFRSYM    DATA     BYTE      IPH0
      000000DFH   SFRSYM    DATA     BYTE      IEN1
      000000A8H   SFRSYM    DATA     BYTE      IEN0
      00000093H   SFRSYM    DATA     BYTE      I2CSTOP
      000000B3H   SFRSYM    DATA     BYTE      SPI1CON
      000000A2H   SFRSYM    DATA     BYTE      SPI0CON
L251 LINKER/LOCATER V4.65.0.0                                                         06/22/2017  19:19:11  PAGE 20



      ---         MODULE    ---      ---       Test_Dram
      000000B6H   SFRSYM    DATA     BYTE      RTCCON1
      000000BFH   SFRSYM    DATA     BYTE      CGUCON8
      000000CEH   SFRSYM    DATA     BYTE      CGUCON6
      000000CDH   SFRSYM    DATA     BYTE      CGUCON5
      000000CCH   SFRSYM    DATA     BYTE      CGUCON4
      000000CBH   SFRSYM    DATA     BYTE      CGUCON3
      000000CAH   SFRSYM    DATA     BYTE      CGUCON2
      000000C8H   SFRSYM    DATA     BYTE      CGUCON1
      000000C9H   SFRSYM    DATA     BYTE      CGUCON0
      000000D9H   SFRSYM    DATA     BYTE      MEMBIST_ERRMAP2
      000000D8H   SFRSYM    DATA     BYTE      MEMBIST_ERRMAP1
      000000B0H   SFRSYM    DATA     BYTE      ANACON9
      000000A0H   SFRSYM    DATA     BYTE      ANACON8
      000000D5H   SFRSYM    DATA     BYTE      MEMBIST_FINISH2
      000000C7H   SFRSYM    DATA     BYTE      ANACON7
      000000D4H   SFRSYM    DATA     BYTE      MEMBIST_FINISH1
      000000E9H   SFRSYM    DATA     BYTE      SFTRST
      000000EEH   SFRSYM    DATA     BYTE      P1SEL
      000000C3H   SFRSYM    DATA     BYTE      ANACON3
      000000ECH   SFRSYM    DATA     BYTE      P0SEL
      000000C2H   SFRSYM    DATA     BYTE      ANACON2
      000000C1H   SFRSYM    DATA     BYTE      ANACON1
      000000EDH   SFRSYM    DATA     BYTE      P1MOD
      00000098H   SFRSYM    DATA     BYTE      SYSCON
      000000ADH   SFRSYM    DATA     BYTE      P1DIR
      000000EBH   SFRSYM    DATA     BYTE      P0MOD
      000000ACH   SFRSYM    DATA     BYTE      P0DIR
      00000094H   SFRSYM    DATA     BYTE      P1BUF
      00000080H   SFRSYM    DATA     BYTE      P0BUF
      000000E4H   SFRSYM    DATA     BYTE      TESTCON3
      000000E3H   SFRSYM    DATA     BYTE      TESTCON2
      000000E5H   SFRSYM    DATA     BYTE      IWKSTA
      0000009AH   SFRSYM    DATA     BYTE      WDTREL
      000000E2H   SFRSYM    DATA     BYTE      TESTCON1
      000000E1H   SFRSYM    DATA     BYTE      TESTCON0
      00000099H   SFRSYM    DATA     BYTE      WDTCON
      000000C0H   SFRSYM    DATA     BYTE      AIF
      000000E8H   SFRSYM    DATA     BYTE      AIE
      000000BDH   SFRSYM    DATA     BYTE      FT_EN_REG
      0000009EH   SFRSYM    DATA     BYTE      RTCCON
      000000FEH   SFRSYM    DATA     BYTE      LED_EN
      000000B9H   SFRSYM    DATA     BYTE      CNTCON
      000000D7H   SFRSYM    DATA     BYTE      MEMBIST_FAIL2
      000000D6H   SFRSYM    DATA     BYTE      MEMBIST_FAIL1
      000000D3H   SFRSYM    DATA     BYTE      MEMBIST_EN2
      000000D2H   SFRSYM    DATA     BYTE      MEMBIST_EN1
      0000009BH   SFRSYM    DATA     BYTE      TDIV
      000000EFH   SFRSYM    DATA     BYTE      XDP_STA
      00000088H   SFRSYM    DATA     BYTE      TCON
      00000089H   SFRSYM    DATA     BYTE      TMOD
      000000A7H   SFRSYM    DATA     BYTE      SPI0CON5
      000000B2H   SFRSYM    DATA     BYTE      SPI1CON4
      000000B1H   SFRSYM    DATA     BYTE      SPI1CON3
      000000A5H   SFRSYM    DATA     BYTE      SPI0CON3
      000000B4H   SFRSYM    DATA     BYTE      SPI1CON2
      000000EAH   SFRSYM    DATA     BYTE      ANACON
      00000087H   SFRSYM    DATA     BYTE      PCON
      000000A3H   SFRSYM    DATA     BYTE      SPI0CON2
      000000DAH   SFRSYM    DATA     BYTE      DSV_CON
      000000F8H   SFRSYM    DATA     BYTE      AIPL
      00000095H   SFRSYM    DATA     BYTE      I2CSEL
      000000F5H   SFRSYM    DATA     BYTE      SSCG_CON0
      000000F7H   SFRSYM    DATA     BYTE      AIPH
L251 LINKER/LOCATER V4.65.0.0                                                         06/22/2017  19:19:11  PAGE 21


      000000FDH   SFRSYM    DATA     BYTE      I2C_STATE
      00000090H   SFRSYM    DATA     BYTE      I2CCON
      000000A9H   SFRSYM    DATA     BYTE      UARTCON
      000000B8H   SFRSYM    DATA     BYTE      IPL0
      000000F3H   SFRSYM    DATA     BYTE      ANACON10
      000000B7H   SFRSYM    DATA     BYTE      IPH0
      000000DFH   SFRSYM    DATA     BYTE      IEN1
      000000A8H   SFRSYM    DATA     BYTE      IEN0
      00000093H   SFRSYM    DATA     BYTE      I2CSTOP
      000000B3H   SFRSYM    DATA     BYTE      SPI1CON
      000000A2H   SFRSYM    DATA     BYTE      SPI0CON

      ---         MODULE    ---      ---       Test_GPIO
      000000B6H   SFRSYM    DATA     BYTE      RTCCON1
      000000BFH   SFRSYM    DATA     BYTE      CGUCON8
      000000CEH   SFRSYM    DATA     BYTE      CGUCON6
      000000CDH   SFRSYM    DATA     BYTE      CGUCON5
      000000CCH   SFRSYM    DATA     BYTE      CGUCON4
      000000CBH   SFRSYM    DATA     BYTE      CGUCON3
      000000CAH   SFRSYM    DATA     BYTE      CGUCON2
      000000C8H   SFRSYM    DATA     BYTE      CGUCON1
      000000C9H   SFRSYM    DATA     BYTE      CGUCON0
      000000D9H   SFRSYM    DATA     BYTE      MEMBIST_ERRMAP2
      000000D8H   SFRSYM    DATA     BYTE      MEMBIST_ERRMAP1
      000000B0H   SFRSYM    DATA     BYTE      ANACON9
      000000A0H   SFRSYM    DATA     BYTE      ANACON8
      000000D5H   SFRSYM    DATA     BYTE      MEMBIST_FINISH2
      000000C7H   SFRSYM    DATA     BYTE      ANACON7
      000000D4H   SFRSYM    DATA     BYTE      MEMBIST_FINISH1
      000000E9H   SFRSYM    DATA     BYTE      SFTRST
      000000EEH   SFRSYM    DATA     BYTE      P1SEL
      000000C3H   SFRSYM    DATA     BYTE      ANACON3
      000000ECH   SFRSYM    DATA     BYTE      P0SEL
      000000C2H   SFRSYM    DATA     BYTE      ANACON2
      000000C1H   SFRSYM    DATA     BYTE      ANACON1
      000000EDH   SFRSYM    DATA     BYTE      P1MOD
      00000098H   SFRSYM    DATA     BYTE      SYSCON
      000000ADH   SFRSYM    DATA     BYTE      P1DIR
      000000EBH   SFRSYM    DATA     BYTE      P0MOD
      000000ACH   SFRSYM    DATA     BYTE      P0DIR
      00000094H   SFRSYM    DATA     BYTE      P1BUF
      00000080H   SFRSYM    DATA     BYTE      P0BUF
      000000E4H   SFRSYM    DATA     BYTE      TESTCON3
      000000E3H   SFRSYM    DATA     BYTE      TESTCON2
      000000E5H   SFRSYM    DATA     BYTE      IWKSTA
      0000009AH   SFRSYM    DATA     BYTE      WDTREL
      000000E2H   SFRSYM    DATA     BYTE      TESTCON1
      000000E1H   SFRSYM    DATA     BYTE      TESTCON0
      00000099H   SFRSYM    DATA     BYTE      WDTCON
      000000C0H   SFRSYM    DATA     BYTE      AIF
      000000E8H   SFRSYM    DATA     BYTE      AIE
      000000BDH   SFRSYM    DATA     BYTE      FT_EN_REG
      0000009EH   SFRSYM    DATA     BYTE      RTCCON
      000000FEH   SFRSYM    DATA     BYTE      LED_EN
      000000B9H   SFRSYM    DATA     BYTE      CNTCON
      000000D7H   SFRSYM    DATA     BYTE      MEMBIST_FAIL2
      000000D6H   SFRSYM    DATA     BYTE      MEMBIST_FAIL1
      000000D3H   SFRSYM    DATA     BYTE      MEMBIST_EN2
      000000D2H   SFRSYM    DATA     BYTE      MEMBIST_EN1
      0000009BH   SFRSYM    DATA     BYTE      TDIV
      000000EFH   SFRSYM    DATA     BYTE      XDP_STA
      00000088H   SFRSYM    DATA     BYTE      TCON
      00000089H   SFRSYM    DATA     BYTE      TMOD
      000000A7H   SFRSYM    DATA     BYTE      SPI0CON5
      000000B2H   SFRSYM    DATA     BYTE      SPI1CON4
L251 LINKER/LOCATER V4.65.0.0                                                         06/22/2017  19:19:11  PAGE 22


      000000B1H   SFRSYM    DATA     BYTE      SPI1CON3
      000000A5H   SFRSYM    DATA     BYTE      SPI0CON3
      000000B4H   SFRSYM    DATA     BYTE      SPI1CON2
      000000EAH   SFRSYM    DATA     BYTE      ANACON
      00000087H   SFRSYM    DATA     BYTE      PCON
      000000A3H   SFRSYM    DATA     BYTE      SPI0CON2
      000000DAH   SFRSYM    DATA     BYTE      DSV_CON
      000000F8H   SFRSYM    DATA     BYTE      AIPL
      00000095H   SFRSYM    DATA     BYTE      I2CSEL
      000000F5H   SFRSYM    DATA     BYTE      SSCG_CON0
      000000F7H   SFRSYM    DATA     BYTE      AIPH
      000000FDH   SFRSYM    DATA     BYTE      I2C_STATE
      00000090H   SFRSYM    DATA     BYTE      I2CCON
      000000A9H   SFRSYM    DATA     BYTE      UARTCON
      000000B8H   SFRSYM    DATA     BYTE      IPL0
      000000F3H   SFRSYM    DATA     BYTE      ANACON10
      000000B7H   SFRSYM    DATA     BYTE      IPH0
      000000DFH   SFRSYM    DATA     BYTE      IEN1
      000000A8H   SFRSYM    DATA     BYTE      IEN0
      00000093H   SFRSYM    DATA     BYTE      I2CSTOP
      000000B3H   SFRSYM    DATA     BYTE      SPI1CON
      000000A2H   SFRSYM    DATA     BYTE      SPI0CON

      ---         MODULE    ---      ---       Test_gpio_wakeup
      000000B6H   SFRSYM    DATA     BYTE      RTCCON1
      000000BFH   SFRSYM    DATA     BYTE      CGUCON8
      000000CEH   SFRSYM    DATA     BYTE      CGUCON6
      000000CDH   SFRSYM    DATA     BYTE      CGUCON5
      000000CCH   SFRSYM    DATA     BYTE      CGUCON4
      000000CBH   SFRSYM    DATA     BYTE      CGUCON3
      000000CAH   SFRSYM    DATA     BYTE      CGUCON2
      000000C8H   SFRSYM    DATA     BYTE      CGUCON1
      000000C9H   SFRSYM    DATA     BYTE      CGUCON0
      000000D9H   SFRSYM    DATA     BYTE      MEMBIST_ERRMAP2
      000000D8H   SFRSYM    DATA     BYTE      MEMBIST_ERRMAP1
      000000B0H   SFRSYM    DATA     BYTE      ANACON9
      000000A0H   SFRSYM    DATA     BYTE      ANACON8
      000000D5H   SFRSYM    DATA     BYTE      MEMBIST_FINISH2
      000000C7H   SFRSYM    DATA     BYTE      ANACON7
      000000D4H   SFRSYM    DATA     BYTE      MEMBIST_FINISH1
      000000E9H   SFRSYM    DATA     BYTE      SFTRST
      000000EEH   SFRSYM    DATA     BYTE      P1SEL
      000000C3H   SFRSYM    DATA     BYTE      ANACON3
      000000ECH   SFRSYM    DATA     BYTE      P0SEL
      000000C2H   SFRSYM    DATA     BYTE      ANACON2
      000000C1H   SFRSYM    DATA     BYTE      ANACON1
      000000EDH   SFRSYM    DATA     BYTE      P1MOD
      00000098H   SFRSYM    DATA     BYTE      SYSCON
      000000ADH   SFRSYM    DATA     BYTE      P1DIR
      000000EBH   SFRSYM    DATA     BYTE      P0MOD
      000000ACH   SFRSYM    DATA     BYTE      P0DIR
      00000094H   SFRSYM    DATA     BYTE      P1BUF
      00000080H   SFRSYM    DATA     BYTE      P0BUF
      000000E4H   SFRSYM    DATA     BYTE      TESTCON3
      000000E3H   SFRSYM    DATA     BYTE      TESTCON2
      000000E5H   SFRSYM    DATA     BYTE      IWKSTA
      0000009AH   SFRSYM    DATA     BYTE      WDTREL
      000000E2H   SFRSYM    DATA     BYTE      TESTCON1
      000000E1H   SFRSYM    DATA     BYTE      TESTCON0
      00000099H   SFRSYM    DATA     BYTE      WDTCON
      000000C0H   SFRSYM    DATA     BYTE      AIF
      000000E8H   SFRSYM    DATA     BYTE      AIE
      000000BDH   SFRSYM    DATA     BYTE      FT_EN_REG
      0000009EH   SFRSYM    DATA     BYTE      RTCCON
      000000FEH   SFRSYM    DATA     BYTE      LED_EN
L251 LINKER/LOCATER V4.65.0.0                                                         06/22/2017  19:19:11  PAGE 23


      000000B9H   SFRSYM    DATA     BYTE      CNTCON
      000000D7H   SFRSYM    DATA     BYTE      MEMBIST_FAIL2
      000000D6H   SFRSYM    DATA     BYTE      MEMBIST_FAIL1
      000000D3H   SFRSYM    DATA     BYTE      MEMBIST_EN2
      000000D2H   SFRSYM    DATA     BYTE      MEMBIST_EN1
      0000009BH   SFRSYM    DATA     BYTE      TDIV
      000000EFH   SFRSYM    DATA     BYTE      XDP_STA
      00000088H   SFRSYM    DATA     BYTE      TCON
      00000089H   SFRSYM    DATA     BYTE      TMOD
      000000A7H   SFRSYM    DATA     BYTE      SPI0CON5
      000000B2H   SFRSYM    DATA     BYTE      SPI1CON4
      000000B1H   SFRSYM    DATA     BYTE      SPI1CON3
      000000A5H   SFRSYM    DATA     BYTE      SPI0CON3
      000000B4H   SFRSYM    DATA     BYTE      SPI1CON2
      000000EAH   SFRSYM    DATA     BYTE      ANACON
      00000087H   SFRSYM    DATA     BYTE      PCON
      000000A3H   SFRSYM    DATA     BYTE      SPI0CON2
      000000DAH   SFRSYM    DATA     BYTE      DSV_CON
      000000F8H   SFRSYM    DATA     BYTE      AIPL
      00000095H   SFRSYM    DATA     BYTE      I2CSEL
      000000F5H   SFRSYM    DATA     BYTE      SSCG_CON0
      000000F7H   SFRSYM    DATA     BYTE      AIPH
      000000FDH   SFRSYM    DATA     BYTE      I2C_STATE
      00000090H   SFRSYM    DATA     BYTE      I2CCON
      000000A9H   SFRSYM    DATA     BYTE      UARTCON
      000000B8H   SFRSYM    DATA     BYTE      IPL0
      000000F3H   SFRSYM    DATA     BYTE      ANACON10
      000000B7H   SFRSYM    DATA     BYTE      IPH0
      000000DFH   SFRSYM    DATA     BYTE      IEN1
      000000A8H   SFRSYM    DATA     BYTE      IEN0
      00000093H   SFRSYM    DATA     BYTE      I2CSTOP
      000000B3H   SFRSYM    DATA     BYTE      SPI1CON
      000000A2H   SFRSYM    DATA     BYTE      SPI0CON

      ---         MODULE    ---      ---       Test_i2c
      000000B6H   SFRSYM    DATA     BYTE      RTCCON1
      000000BFH   SFRSYM    DATA     BYTE      CGUCON8
      000000CEH   SFRSYM    DATA     BYTE      CGUCON6
      000000CDH   SFRSYM    DATA     BYTE      CGUCON5
      000000CCH   SFRSYM    DATA     BYTE      CGUCON4
      000000CBH   SFRSYM    DATA     BYTE      CGUCON3
      000000CAH   SFRSYM    DATA     BYTE      CGUCON2
      000000C8H   SFRSYM    DATA     BYTE      CGUCON1
      000000C9H   SFRSYM    DATA     BYTE      CGUCON0
      000000D9H   SFRSYM    DATA     BYTE      MEMBIST_ERRMAP2
      000000D8H   SFRSYM    DATA     BYTE      MEMBIST_ERRMAP1
      000000B0H   SFRSYM    DATA     BYTE      ANACON9
      000000A0H   SFRSYM    DATA     BYTE      ANACON8
      000000D5H   SFRSYM    DATA     BYTE      MEMBIST_FINISH2
      000000C7H   SFRSYM    DATA     BYTE      ANACON7
      000000D4H   SFRSYM    DATA     BYTE      MEMBIST_FINISH1
      000000E9H   SFRSYM    DATA     BYTE      SFTRST
      000000EEH   SFRSYM    DATA     BYTE      P1SEL
      000000C3H   SFRSYM    DATA     BYTE      ANACON3
      000000ECH   SFRSYM    DATA     BYTE      P0SEL
      000000C2H   SFRSYM    DATA     BYTE      ANACON2
      000000C1H   SFRSYM    DATA     BYTE      ANACON1
      000000EDH   SFRSYM    DATA     BYTE      P1MOD
      00000098H   SFRSYM    DATA     BYTE      SYSCON
      000000ADH   SFRSYM    DATA     BYTE      P1DIR
      000000EBH   SFRSYM    DATA     BYTE      P0MOD
      000000ACH   SFRSYM    DATA     BYTE      P0DIR
      00000094H   SFRSYM    DATA     BYTE      P1BUF
      00000080H   SFRSYM    DATA     BYTE      P0BUF
      000000E4H   SFRSYM    DATA     BYTE      TESTCON3
L251 LINKER/LOCATER V4.65.0.0                                                         06/22/2017  19:19:11  PAGE 24


      000000E3H   SFRSYM    DATA     BYTE      TESTCON2
      000000E5H   SFRSYM    DATA     BYTE      IWKSTA
      0000009AH   SFRSYM    DATA     BYTE      WDTREL
      000000E2H   SFRSYM    DATA     BYTE      TESTCON1
      000000E1H   SFRSYM    DATA     BYTE      TESTCON0
      00000099H   SFRSYM    DATA     BYTE      WDTCON
      000000C0H   SFRSYM    DATA     BYTE      AIF
      000000E8H   SFRSYM    DATA     BYTE      AIE
      000000BDH   SFRSYM    DATA     BYTE      FT_EN_REG
      0000009EH   SFRSYM    DATA     BYTE      RTCCON
      000000FEH   SFRSYM    DATA     BYTE      LED_EN
      000000B9H   SFRSYM    DATA     BYTE      CNTCON
      000000D7H   SFRSYM    DATA     BYTE      MEMBIST_FAIL2
      000000D6H   SFRSYM    DATA     BYTE      MEMBIST_FAIL1
      000000D3H   SFRSYM    DATA     BYTE      MEMBIST_EN2
      000000D2H   SFRSYM    DATA     BYTE      MEMBIST_EN1
      0000009BH   SFRSYM    DATA     BYTE      TDIV
      000000EFH   SFRSYM    DATA     BYTE      XDP_STA
      00000088H   SFRSYM    DATA     BYTE      TCON
      00000089H   SFRSYM    DATA     BYTE      TMOD
      000000A7H   SFRSYM    DATA     BYTE      SPI0CON5
      000000B2H   SFRSYM    DATA     BYTE      SPI1CON4
      000000B1H   SFRSYM    DATA     BYTE      SPI1CON3
      000000A5H   SFRSYM    DATA     BYTE      SPI0CON3
      000000B4H   SFRSYM    DATA     BYTE      SPI1CON2
      000000EAH   SFRSYM    DATA     BYTE      ANACON
      00000087H   SFRSYM    DATA     BYTE      PCON
      000000A3H   SFRSYM    DATA     BYTE      SPI0CON2
      000000DAH   SFRSYM    DATA     BYTE      DSV_CON
      000000F8H   SFRSYM    DATA     BYTE      AIPL
      00000095H   SFRSYM    DATA     BYTE      I2CSEL
      000000F5H   SFRSYM    DATA     BYTE      SSCG_CON0
      000000F7H   SFRSYM    DATA     BYTE      AIPH
      000000FDH   SFRSYM    DATA     BYTE      I2C_STATE
      00000090H   SFRSYM    DATA     BYTE      I2CCON
      000000A9H   SFRSYM    DATA     BYTE      UARTCON
      000000B8H   SFRSYM    DATA     BYTE      IPL0
      000000F3H   SFRSYM    DATA     BYTE      ANACON10
      000000B7H   SFRSYM    DATA     BYTE      IPH0
      000000DFH   SFRSYM    DATA     BYTE      IEN1
      000000A8H   SFRSYM    DATA     BYTE      IEN0
      00000093H   SFRSYM    DATA     BYTE      I2CSTOP
      000000B3H   SFRSYM    DATA     BYTE      SPI1CON
      000000A2H   SFRSYM    DATA     BYTE      SPI0CON

      ---         MODULE    ---      ---       Test_i2c_wakeup
      000000B6H   SFRSYM    DATA     BYTE      RTCCON1
      000000BFH   SFRSYM    DATA     BYTE      CGUCON8
      000000CEH   SFRSYM    DATA     BYTE      CGUCON6
      000000CDH   SFRSYM    DATA     BYTE      CGUCON5
      000000CCH   SFRSYM    DATA     BYTE      CGUCON4
      000000CBH   SFRSYM    DATA     BYTE      CGUCON3
      000000CAH   SFRSYM    DATA     BYTE      CGUCON2
      000000C8H   SFRSYM    DATA     BYTE      CGUCON1
      000000C9H   SFRSYM    DATA     BYTE      CGUCON0
      000000D9H   SFRSYM    DATA     BYTE      MEMBIST_ERRMAP2
      000000D8H   SFRSYM    DATA     BYTE      MEMBIST_ERRMAP1
      000000B0H   SFRSYM    DATA     BYTE      ANACON9
      000000A0H   SFRSYM    DATA     BYTE      ANACON8
      000000D5H   SFRSYM    DATA     BYTE      MEMBIST_FINISH2
      000000C7H   SFRSYM    DATA     BYTE      ANACON7
      000000D4H   SFRSYM    DATA     BYTE      MEMBIST_FINISH1
      000000E9H   SFRSYM    DATA     BYTE      SFTRST
      000000EEH   SFRSYM    DATA     BYTE      P1SEL
      000000C3H   SFRSYM    DATA     BYTE      ANACON3
L251 LINKER/LOCATER V4.65.0.0                                                         06/22/2017  19:19:11  PAGE 25


      000000ECH   SFRSYM    DATA     BYTE      P0SEL
      000000C2H   SFRSYM    DATA     BYTE      ANACON2
      000000C1H   SFRSYM    DATA     BYTE      ANACON1
      000000EDH   SFRSYM    DATA     BYTE      P1MOD
      00000098H   SFRSYM    DATA     BYTE      SYSCON
      000000ADH   SFRSYM    DATA     BYTE      P1DIR
      000000EBH   SFRSYM    DATA     BYTE      P0MOD
      000000ACH   SFRSYM    DATA     BYTE      P0DIR
      00000094H   SFRSYM    DATA     BYTE      P1BUF
      00000080H   SFRSYM    DATA     BYTE      P0BUF
      000000E4H   SFRSYM    DATA     BYTE      TESTCON3
      000000E3H   SFRSYM    DATA     BYTE      TESTCON2
      000000E5H   SFRSYM    DATA     BYTE      IWKSTA
      0000009AH   SFRSYM    DATA     BYTE      WDTREL
      000000E2H   SFRSYM    DATA     BYTE      TESTCON1
      000000E1H   SFRSYM    DATA     BYTE      TESTCON0
      00000099H   SFRSYM    DATA     BYTE      WDTCON
      000000C0H   SFRSYM    DATA     BYTE      AIF
      000000E8H   SFRSYM    DATA     BYTE      AIE
      000000BDH   SFRSYM    DATA     BYTE      FT_EN_REG
      0000009EH   SFRSYM    DATA     BYTE      RTCCON
      000000FEH   SFRSYM    DATA     BYTE      LED_EN
      000000B9H   SFRSYM    DATA     BYTE      CNTCON
      000000D7H   SFRSYM    DATA     BYTE      MEMBIST_FAIL2
      000000D6H   SFRSYM    DATA     BYTE      MEMBIST_FAIL1
      000000D3H   SFRSYM    DATA     BYTE      MEMBIST_EN2
      000000D2H   SFRSYM    DATA     BYTE      MEMBIST_EN1
      0000009BH   SFRSYM    DATA     BYTE      TDIV
      000000EFH   SFRSYM    DATA     BYTE      XDP_STA
      00000088H   SFRSYM    DATA     BYTE      TCON
      00000089H   SFRSYM    DATA     BYTE      TMOD
      000000A7H   SFRSYM    DATA     BYTE      SPI0CON5
      000000B2H   SFRSYM    DATA     BYTE      SPI1CON4
      000000B1H   SFRSYM    DATA     BYTE      SPI1CON3
      000000A5H   SFRSYM    DATA     BYTE      SPI0CON3
      000000B4H   SFRSYM    DATA     BYTE      SPI1CON2
      000000EAH   SFRSYM    DATA     BYTE      ANACON
      00000087H   SFRSYM    DATA     BYTE      PCON
      000000A3H   SFRSYM    DATA     BYTE      SPI0CON2
      000000DAH   SFRSYM    DATA     BYTE      DSV_CON
      000000F8H   SFRSYM    DATA     BYTE      AIPL
      00000095H   SFRSYM    DATA     BYTE      I2CSEL
      000000F5H   SFRSYM    DATA     BYTE      SSCG_CON0
      000000F7H   SFRSYM    DATA     BYTE      AIPH
      000000FDH   SFRSYM    DATA     BYTE      I2C_STATE
      00000090H   SFRSYM    DATA     BYTE      I2CCON
      000000A9H   SFRSYM    DATA     BYTE      UARTCON
      000000B8H   SFRSYM    DATA     BYTE      IPL0
      000000F3H   SFRSYM    DATA     BYTE      ANACON10
      000000B7H   SFRSYM    DATA     BYTE      IPH0
      000000DFH   SFRSYM    DATA     BYTE      IEN1
      000000A8H   SFRSYM    DATA     BYTE      IEN0
      00000093H   SFRSYM    DATA     BYTE      I2CSTOP
      000000B3H   SFRSYM    DATA     BYTE      SPI1CON
      000000A2H   SFRSYM    DATA     BYTE      SPI0CON

      ---         MODULE    ---      ---       Test_int_nest
      000000B6H   SFRSYM    DATA     BYTE      RTCCON1
      000000BFH   SFRSYM    DATA     BYTE      CGUCON8
      000000CEH   SFRSYM    DATA     BYTE      CGUCON6
      000000CDH   SFRSYM    DATA     BYTE      CGUCON5
      000000CCH   SFRSYM    DATA     BYTE      CGUCON4
      000000CBH   SFRSYM    DATA     BYTE      CGUCON3
      000000CAH   SFRSYM    DATA     BYTE      CGUCON2
      000000C8H   SFRSYM    DATA     BYTE      CGUCON1
L251 LINKER/LOCATER V4.65.0.0                                                         06/22/2017  19:19:11  PAGE 26


      000000C9H   SFRSYM    DATA     BYTE      CGUCON0
      000000D9H   SFRSYM    DATA     BYTE      MEMBIST_ERRMAP2
      000000D8H   SFRSYM    DATA     BYTE      MEMBIST_ERRMAP1
      000000B0H   SFRSYM    DATA     BYTE      ANACON9
      000000A0H   SFRSYM    DATA     BYTE      ANACON8
      000000D5H   SFRSYM    DATA     BYTE      MEMBIST_FINISH2
      000000C7H   SFRSYM    DATA     BYTE      ANACON7
      000000D4H   SFRSYM    DATA     BYTE      MEMBIST_FINISH1
      000000E9H   SFRSYM    DATA     BYTE      SFTRST
      000000EEH   SFRSYM    DATA     BYTE      P1SEL
      000000C3H   SFRSYM    DATA     BYTE      ANACON3
      000000ECH   SFRSYM    DATA     BYTE      P0SEL
      000000C2H   SFRSYM    DATA     BYTE      ANACON2
      000000C1H   SFRSYM    DATA     BYTE      ANACON1
      000000EDH   SFRSYM    DATA     BYTE      P1MOD
      00000098H   SFRSYM    DATA     BYTE      SYSCON
      000000ADH   SFRSYM    DATA     BYTE      P1DIR
      000000EBH   SFRSYM    DATA     BYTE      P0MOD
      000000ACH   SFRSYM    DATA     BYTE      P0DIR
      00000094H   SFRSYM    DATA     BYTE      P1BUF
      00000080H   SFRSYM    DATA     BYTE      P0BUF
      000000E4H   SFRSYM    DATA     BYTE      TESTCON3
      000000E3H   SFRSYM    DATA     BYTE      TESTCON2
      000000E5H   SFRSYM    DATA     BYTE      IWKSTA
      0000009AH   SFRSYM    DATA     BYTE      WDTREL
      000000E2H   SFRSYM    DATA     BYTE      TESTCON1
      000000E1H   SFRSYM    DATA     BYTE      TESTCON0
      00000099H   SFRSYM    DATA     BYTE      WDTCON
      000000C0H   SFRSYM    DATA     BYTE      AIF
      000000E8H   SFRSYM    DATA     BYTE      AIE
      000000BDH   SFRSYM    DATA     BYTE      FT_EN_REG
      0000009EH   SFRSYM    DATA     BYTE      RTCCON
      000000FEH   SFRSYM    DATA     BYTE      LED_EN
      000000B9H   SFRSYM    DATA     BYTE      CNTCON
      000000D7H   SFRSYM    DATA     BYTE      MEMBIST_FAIL2
      000000D6H   SFRSYM    DATA     BYTE      MEMBIST_FAIL1
      000000D3H   SFRSYM    DATA     BYTE      MEMBIST_EN2
      000000D2H   SFRSYM    DATA     BYTE      MEMBIST_EN1
      0000009BH   SFRSYM    DATA     BYTE      TDIV
      000000EFH   SFRSYM    DATA     BYTE      XDP_STA
      00000088H   SFRSYM    DATA     BYTE      TCON
      00000089H   SFRSYM    DATA     BYTE      TMOD
      000000A7H   SFRSYM    DATA     BYTE      SPI0CON5
      000000B2H   SFRSYM    DATA     BYTE      SPI1CON4
      000000B1H   SFRSYM    DATA     BYTE      SPI1CON3
      000000A5H   SFRSYM    DATA     BYTE      SPI0CON3
      000000B4H   SFRSYM    DATA     BYTE      SPI1CON2
      000000EAH   SFRSYM    DATA     BYTE      ANACON
      00000087H   SFRSYM    DATA     BYTE      PCON
      000000A3H   SFRSYM    DATA     BYTE      SPI0CON2
      000000DAH   SFRSYM    DATA     BYTE      DSV_CON
      000000F8H   SFRSYM    DATA     BYTE      AIPL
      00000095H   SFRSYM    DATA     BYTE      I2CSEL
      000000F5H   SFRSYM    DATA     BYTE      SSCG_CON0
      000000F7H   SFRSYM    DATA     BYTE      AIPH
      000000FDH   SFRSYM    DATA     BYTE      I2C_STATE
      00000090H   SFRSYM    DATA     BYTE      I2CCON
      000000A9H   SFRSYM    DATA     BYTE      UARTCON
      000000B8H   SFRSYM    DATA     BYTE      IPL0
      000000F3H   SFRSYM    DATA     BYTE      ANACON10
      000000B7H   SFRSYM    DATA     BYTE      IPH0
      000000DFH   SFRSYM    DATA     BYTE      IEN1
      000000A8H   SFRSYM    DATA     BYTE      IEN0
      00000093H   SFRSYM    DATA     BYTE      I2CSTOP
      000000B3H   SFRSYM    DATA     BYTE      SPI1CON
L251 LINKER/LOCATER V4.65.0.0                                                         06/22/2017  19:19:11  PAGE 27


      000000A2H   SFRSYM    DATA     BYTE      SPI0CON

      ---         MODULE    ---      ---       Test_LED
      000000B6H   SFRSYM    DATA     BYTE      RTCCON1
      000000BFH   SFRSYM    DATA     BYTE      CGUCON8
      000000CEH   SFRSYM    DATA     BYTE      CGUCON6
      000000CDH   SFRSYM    DATA     BYTE      CGUCON5
      000000CCH   SFRSYM    DATA     BYTE      CGUCON4
      000000CBH   SFRSYM    DATA     BYTE      CGUCON3
      000000CAH   SFRSYM    DATA     BYTE      CGUCON2
      000000C8H   SFRSYM    DATA     BYTE      CGUCON1
      000000C9H   SFRSYM    DATA     BYTE      CGUCON0
      000000D9H   SFRSYM    DATA     BYTE      MEMBIST_ERRMAP2
      000000D8H   SFRSYM    DATA     BYTE      MEMBIST_ERRMAP1
      000000B0H   SFRSYM    DATA     BYTE      ANACON9
      000000A0H   SFRSYM    DATA     BYTE      ANACON8
      000000D5H   SFRSYM    DATA     BYTE      MEMBIST_FINISH2
      000000C7H   SFRSYM    DATA     BYTE      ANACON7
      000000D4H   SFRSYM    DATA     BYTE      MEMBIST_FINISH1
      000000E9H   SFRSYM    DATA     BYTE      SFTRST
      000000EEH   SFRSYM    DATA     BYTE      P1SEL
      000000C3H   SFRSYM    DATA     BYTE      ANACON3
      000000ECH   SFRSYM    DATA     BYTE      P0SEL
      000000C2H   SFRSYM    DATA     BYTE      ANACON2
      000000C1H   SFRSYM    DATA     BYTE      ANACON1
      000000EDH   SFRSYM    DATA     BYTE      P1MOD
      00000098H   SFRSYM    DATA     BYTE      SYSCON
      000000ADH   SFRSYM    DATA     BYTE      P1DIR
      000000EBH   SFRSYM    DATA     BYTE      P0MOD
      000000ACH   SFRSYM    DATA     BYTE      P0DIR
      00000094H   SFRSYM    DATA     BYTE      P1BUF
      00000080H   SFRSYM    DATA     BYTE      P0BUF
      000000E4H   SFRSYM    DATA     BYTE      TESTCON3
      000000E3H   SFRSYM    DATA     BYTE      TESTCON2
      000000E5H   SFRSYM    DATA     BYTE      IWKSTA
      0000009AH   SFRSYM    DATA     BYTE      WDTREL
      000000E2H   SFRSYM    DATA     BYTE      TESTCON1
      000000E1H   SFRSYM    DATA     BYTE      TESTCON0
      00000099H   SFRSYM    DATA     BYTE      WDTCON
      000000C0H   SFRSYM    DATA     BYTE      AIF
      000000E8H   SFRSYM    DATA     BYTE      AIE
      000000BDH   SFRSYM    DATA     BYTE      FT_EN_REG
      0000009EH   SFRSYM    DATA     BYTE      RTCCON
      000000FEH   SFRSYM    DATA     BYTE      LED_EN
      000000B9H   SFRSYM    DATA     BYTE      CNTCON
      000000D7H   SFRSYM    DATA     BYTE      MEMBIST_FAIL2
      000000D6H   SFRSYM    DATA     BYTE      MEMBIST_FAIL1
      000000D3H   SFRSYM    DATA     BYTE      MEMBIST_EN2
      000000D2H   SFRSYM    DATA     BYTE      MEMBIST_EN1
      0000009BH   SFRSYM    DATA     BYTE      TDIV
      000000EFH   SFRSYM    DATA     BYTE      XDP_STA
      00000088H   SFRSYM    DATA     BYTE      TCON
      00000089H   SFRSYM    DATA     BYTE      TMOD
      000000A7H   SFRSYM    DATA     BYTE      SPI0CON5
      000000B2H   SFRSYM    DATA     BYTE      SPI1CON4
      000000B1H   SFRSYM    DATA     BYTE      SPI1CON3
      000000A5H   SFRSYM    DATA     BYTE      SPI0CON3
      000000B4H   SFRSYM    DATA     BYTE      SPI1CON2
      000000EAH   SFRSYM    DATA     BYTE      ANACON
      00000087H   SFRSYM    DATA     BYTE      PCON
      000000A3H   SFRSYM    DATA     BYTE      SPI0CON2
      000000DAH   SFRSYM    DATA     BYTE      DSV_CON
      000000F8H   SFRSYM    DATA     BYTE      AIPL
      00000095H   SFRSYM    DATA     BYTE      I2CSEL
      000000F5H   SFRSYM    DATA     BYTE      SSCG_CON0
L251 LINKER/LOCATER V4.65.0.0                                                         06/22/2017  19:19:11  PAGE 28


      000000F7H   SFRSYM    DATA     BYTE      AIPH
      000000FDH   SFRSYM    DATA     BYTE      I2C_STATE
      00000090H   SFRSYM    DATA     BYTE      I2CCON
      000000A9H   SFRSYM    DATA     BYTE      UARTCON
      000000B8H   SFRSYM    DATA     BYTE      IPL0
      000000F3H   SFRSYM    DATA     BYTE      ANACON10
      000000B7H   SFRSYM    DATA     BYTE      IPH0
      000000DFH   SFRSYM    DATA     BYTE      IEN1
      000000A8H   SFRSYM    DATA     BYTE      IEN0
      00000093H   SFRSYM    DATA     BYTE      I2CSTOP
      000000B3H   SFRSYM    DATA     BYTE      SPI1CON
      000000A2H   SFRSYM    DATA     BYTE      SPI0CON

      ---         MODULE    ---      ---       Test_Prom
      000000B6H   SFRSYM    DATA     BYTE      RTCCON1
      000000BFH   SFRSYM    DATA     BYTE      CGUCON8
      000000CEH   SFRSYM    DATA     BYTE      CGUCON6
      000000CDH   SFRSYM    DATA     BYTE      CGUCON5
      000000CCH   SFRSYM    DATA     BYTE      CGUCON4
      000000CBH   SFRSYM    DATA     BYTE      CGUCON3
      000000CAH   SFRSYM    DATA     BYTE      CGUCON2
      000000C8H   SFRSYM    DATA     BYTE      CGUCON1
      000000C9H   SFRSYM    DATA     BYTE      CGUCON0
      000000D9H   SFRSYM    DATA     BYTE      MEMBIST_ERRMAP2
      000000D8H   SFRSYM    DATA     BYTE      MEMBIST_ERRMAP1
      000000B0H   SFRSYM    DATA     BYTE      ANACON9
      000000A0H   SFRSYM    DATA     BYTE      ANACON8
      000000D5H   SFRSYM    DATA     BYTE      MEMBIST_FINISH2
      000000C7H   SFRSYM    DATA     BYTE      ANACON7
      000000D4H   SFRSYM    DATA     BYTE      MEMBIST_FINISH1
      000000E9H   SFRSYM    DATA     BYTE      SFTRST
      000000EEH   SFRSYM    DATA     BYTE      P1SEL
      000000C3H   SFRSYM    DATA     BYTE      ANACON3
      000000ECH   SFRSYM    DATA     BYTE      P0SEL
      000000C2H   SFRSYM    DATA     BYTE      ANACON2
      000000C1H   SFRSYM    DATA     BYTE      ANACON1
      000000EDH   SFRSYM    DATA     BYTE      P1MOD
      00000098H   SFRSYM    DATA     BYTE      SYSCON
      000000ADH   SFRSYM    DATA     BYTE      P1DIR
      000000EBH   SFRSYM    DATA     BYTE      P0MOD
      000000ACH   SFRSYM    DATA     BYTE      P0DIR
      00000094H   SFRSYM    DATA     BYTE      P1BUF
      00000080H   SFRSYM    DATA     BYTE      P0BUF
      000000E4H   SFRSYM    DATA     BYTE      TESTCON3
      000000E3H   SFRSYM    DATA     BYTE      TESTCON2
      000000E5H   SFRSYM    DATA     BYTE      IWKSTA
      0000009AH   SFRSYM    DATA     BYTE      WDTREL
      000000E2H   SFRSYM    DATA     BYTE      TESTCON1
      000000E1H   SFRSYM    DATA     BYTE      TESTCON0
      00000099H   SFRSYM    DATA     BYTE      WDTCON
      000000C0H   SFRSYM    DATA     BYTE      AIF
      000000E8H   SFRSYM    DATA     BYTE      AIE
      000000BDH   SFRSYM    DATA     BYTE      FT_EN_REG
      0000009EH   SFRSYM    DATA     BYTE      RTCCON
      000000FEH   SFRSYM    DATA     BYTE      LED_EN
      000000B9H   SFRSYM    DATA     BYTE      CNTCON
      000000D7H   SFRSYM    DATA     BYTE      MEMBIST_FAIL2
      000000D6H   SFRSYM    DATA     BYTE      MEMBIST_FAIL1
      000000D3H   SFRSYM    DATA     BYTE      MEMBIST_EN2
      000000D2H   SFRSYM    DATA     BYTE      MEMBIST_EN1
      0000009BH   SFRSYM    DATA     BYTE      TDIV
      000000EFH   SFRSYM    DATA     BYTE      XDP_STA
      00000088H   SFRSYM    DATA     BYTE      TCON
      00000089H   SFRSYM    DATA     BYTE      TMOD
      000000A7H   SFRSYM    DATA     BYTE      SPI0CON5
L251 LINKER/LOCATER V4.65.0.0                                                         06/22/2017  19:19:11  PAGE 29


      000000B2H   SFRSYM    DATA     BYTE      SPI1CON4
      000000B1H   SFRSYM    DATA     BYTE      SPI1CON3
      000000A5H   SFRSYM    DATA     BYTE      SPI0CON3
      000000B4H   SFRSYM    DATA     BYTE      SPI1CON2
      000000EAH   SFRSYM    DATA     BYTE      ANACON
      00000087H   SFRSYM    DATA     BYTE      PCON
      000000A3H   SFRSYM    DATA     BYTE      SPI0CON2
      000000DAH   SFRSYM    DATA     BYTE      DSV_CON
      000000F8H   SFRSYM    DATA     BYTE      AIPL
      00000095H   SFRSYM    DATA     BYTE      I2CSEL
      000000F5H   SFRSYM    DATA     BYTE      SSCG_CON0
      000000F7H   SFRSYM    DATA     BYTE      AIPH
      000000FDH   SFRSYM    DATA     BYTE      I2C_STATE
      00000090H   SFRSYM    DATA     BYTE      I2CCON
      000000A9H   SFRSYM    DATA     BYTE      UARTCON
      000000B8H   SFRSYM    DATA     BYTE      IPL0
      000000F3H   SFRSYM    DATA     BYTE      ANACON10
      000000B7H   SFRSYM    DATA     BYTE      IPH0
      000000DFH   SFRSYM    DATA     BYTE      IEN1
      000000A8H   SFRSYM    DATA     BYTE      IEN0
      00000093H   SFRSYM    DATA     BYTE      I2CSTOP
      000000B3H   SFRSYM    DATA     BYTE      SPI1CON
      000000A2H   SFRSYM    DATA     BYTE      SPI0CON

      ---         MODULE    ---      ---       Test_Reg
      00FEF528H   PUBLIC    ECODE    ---       Test_AfeRegWrite?
      00FEF444H   PUBLIC    ECODE    ---       Test_WriteRamReg?
      00000574H   PUBLIC    EDATA    BYTE      ?Test_AfeRegWrite??BYTE
      000000B6H   SFRSYM    DATA     BYTE      RTCCON1
      000000BFH   SFRSYM    DATA     BYTE      CGUCON8
      000000CEH   SFRSYM    DATA     BYTE      CGUCON6
      000000CDH   SFRSYM    DATA     BYTE      CGUCON5
      000000CCH   SFRSYM    DATA     BYTE      CGUCON4
      000000CBH   SFRSYM    DATA     BYTE      CGUCON3
      000000CAH   SFRSYM    DATA     BYTE      CGUCON2
      000000C8H   SFRSYM    DATA     BYTE      CGUCON1
      000000C9H   SFRSYM    DATA     BYTE      CGUCON0
      000000D9H   SFRSYM    DATA     BYTE      MEMBIST_ERRMAP2
      000000D8H   SFRSYM    DATA     BYTE      MEMBIST_ERRMAP1
      000000B0H   SFRSYM    DATA     BYTE      ANACON9
      000000A0H   SFRSYM    DATA     BYTE      ANACON8
      000000D5H   SFRSYM    DATA     BYTE      MEMBIST_FINISH2
      000000C7H   SFRSYM    DATA     BYTE      ANACON7
      000000D4H   SFRSYM    DATA     BYTE      MEMBIST_FINISH1
      000000E9H   SFRSYM    DATA     BYTE      SFTRST
      000000EEH   SFRSYM    DATA     BYTE      P1SEL
      000000C3H   SFRSYM    DATA     BYTE      ANACON3
      000000ECH   SFRSYM    DATA     BYTE      P0SEL
      000000C2H   SFRSYM    DATA     BYTE      ANACON2
      000000C1H   SFRSYM    DATA     BYTE      ANACON1
      000000EDH   SFRSYM    DATA     BYTE      P1MOD
      00000098H   SFRSYM    DATA     BYTE      SYSCON
      000000ADH   SFRSYM    DATA     BYTE      P1DIR
      000000EBH   SFRSYM    DATA     BYTE      P0MOD
      000000ACH   SFRSYM    DATA     BYTE      P0DIR
      00000094H   SFRSYM    DATA     BYTE      P1BUF
      00000080H   SFRSYM    DATA     BYTE      P0BUF
      000000E4H   SFRSYM    DATA     BYTE      TESTCON3
      000000E3H   SFRSYM    DATA     BYTE      TESTCON2
      000000E5H   SFRSYM    DATA     BYTE      IWKSTA
      0000009AH   SFRSYM    DATA     BYTE      WDTREL
      000000E2H   SFRSYM    DATA     BYTE      TESTCON1
      000000E1H   SFRSYM    DATA     BYTE      TESTCON0
      00000099H   SFRSYM    DATA     BYTE      WDTCON
      000000C0H   SFRSYM    DATA     BYTE      AIF
L251 LINKER/LOCATER V4.65.0.0                                                         06/22/2017  19:19:11  PAGE 30


      000000E8H   SFRSYM    DATA     BYTE      AIE
      000000BDH   SFRSYM    DATA     BYTE      FT_EN_REG
      0000009EH   SFRSYM    DATA     BYTE      RTCCON
      000000FEH   SFRSYM    DATA     BYTE      LED_EN
      000000B9H   SFRSYM    DATA     BYTE      CNTCON
      000000D7H   SFRSYM    DATA     BYTE      MEMBIST_FAIL2
      000000D6H   SFRSYM    DATA     BYTE      MEMBIST_FAIL1
      000000D3H   SFRSYM    DATA     BYTE      MEMBIST_EN2
      000000D2H   SFRSYM    DATA     BYTE      MEMBIST_EN1
      0000009BH   SFRSYM    DATA     BYTE      TDIV
      000000EFH   SFRSYM    DATA     BYTE      XDP_STA
      00000088H   SFRSYM    DATA     BYTE      TCON
      00000089H   SFRSYM    DATA     BYTE      TMOD
      000000A7H   SFRSYM    DATA     BYTE      SPI0CON5
      000000B2H   SFRSYM    DATA     BYTE      SPI1CON4
      000000B1H   SFRSYM    DATA     BYTE      SPI1CON3
      000000A5H   SFRSYM    DATA     BYTE      SPI0CON3
      000000B4H   SFRSYM    DATA     BYTE      SPI1CON2
      000000EAH   SFRSYM    DATA     BYTE      ANACON
      00000087H   SFRSYM    DATA     BYTE      PCON
      000000A3H   SFRSYM    DATA     BYTE      SPI0CON2
      000000DAH   SFRSYM    DATA     BYTE      DSV_CON
      000000F8H   SFRSYM    DATA     BYTE      AIPL
      00000095H   SFRSYM    DATA     BYTE      I2CSEL
      000000F5H   SFRSYM    DATA     BYTE      SSCG_CON0
      000000F7H   SFRSYM    DATA     BYTE      AIPH
      000000FDH   SFRSYM    DATA     BYTE      I2C_STATE
      00000090H   SFRSYM    DATA     BYTE      I2CCON
      000000A9H   SFRSYM    DATA     BYTE      UARTCON
      000000B8H   SFRSYM    DATA     BYTE      IPL0
      000000F3H   SFRSYM    DATA     BYTE      ANACON10
      000000B7H   SFRSYM    DATA     BYTE      IPH0
      000000DFH   SFRSYM    DATA     BYTE      IEN1
      000000A8H   SFRSYM    DATA     BYTE      IEN0
      00000093H   SFRSYM    DATA     BYTE      I2CSTOP
      000000B3H   SFRSYM    DATA     BYTE      SPI1CON
      000000A2H   SFRSYM    DATA     BYTE      SPI0CON

      00FEF444H   BLOCK     ECODE    ---       LVL=0
      WR6         REGSYM    ---      WORD      addr
      WR12        REGSYM    ---      WORD      mask0
      WR14        REGSYM    ---      WORD      mask1
      00FEF44AH   BLOCK     ECODE    NEAR LAB  LVL=1
      00000586H   SYMBOL    EDATA    WORD      tmp
      00000588H   SYMBOL    EDATA    WORD      cnt_back
      0000058AH   SYMBOL    EDATA    WORD      cnt
      0000058CH   SYMBOL    EDATA    WORD      Addr_Base
      0000058EH   SYMBOL    EDATA    WORD      Addr_Offset
      00000590H   SYMBOL    EDATA    WORD      BackUp
      00000020H.0 SYMBOL    BIT      BIT       flag
      ---         BLOCKEND  ---      ---       LVL=1
      00FEF444H   LINE      ECODE    ---       #190
      00FEF44AH   LINE      ECODE    ---       #191
      00FEF44AH   LINE      ECODE    ---       #200
      00FEF44CH   LINE      ECODE    ---       #201
      00FEF454H   LINE      ECODE    ---       #202
      00FEF45AH   LINE      ECODE    ---       #203
      00FEF46BH   LINE      ECODE    ---       #224
      00FEF47BH   LINE      ECODE    ---       #226
      00FEF481H   LINE      ECODE    ---       #228
      00FEF494H   LINE      ECODE    ---       #229
      00FEF49EH   LINE      ECODE    ---       #230
      00FEF4A8H   LINE      ECODE    ---       #231
      00FEF4B9H   LINE      ECODE    ---       #232
      00FEF4C0H   LINE      ECODE    ---       #233
L251 LINKER/LOCATER V4.65.0.0                                                         06/22/2017  19:19:11  PAGE 31


      00FEF4C6H   LINE      ECODE    ---       #235
      00FEF4CDH   LINE      ECODE    ---       #240
      00FEF4E9H   LINE      ECODE    ---       #242
      00FEF4EBH   LINE      ECODE    ---       #244
      00FEF4FBH   LINE      ECODE    ---       #247
      00FEF4FEH   LINE      ECODE    ---       #249
      00FEF4FEH   LINE      ECODE    ---       #251
      00FEF4FEH   LINE      ECODE    ---       #255
      00FEF512H   LINE      ECODE    ---       #256
      00FEF512H   LINE      ECODE    ---       #257
      00FEF512H   LINE      ECODE    ---       #258
      00FEF525H   LINE      ECODE    ---       #259
      ---         BLOCKEND  ---      ---       LVL=0

      00FEF528H   BLOCK     ECODE    ---       LVL=0
      REG=3       REGSYM    ---      ---       pXSIRegs
      00000578H   SYMBOL    EDATA    WORD      addr
      0000057AH   SYMBOL    EDATA    WORD      mask0
      0000057CH   SYMBOL    EDATA    WORD      mask1
      00FEF534H   BLOCK     ECODE    NEAR LAB  LVL=1
      0000057EH   SYMBOL    EDATA    WORD      tmp
      00000580H   SYMBOL    EDATA    WORD      cnt_back
      00000582H   SYMBOL    EDATA    WORD      cnt
      00000584H   SYMBOL    EDATA    WORD      BackUp
      00000020H.1 SYMBOL    BIT      BIT       flag
      ---         BLOCKEND  ---      ---       LVL=1
      00FEF528H   LINE      ECODE    ---       #268
      00FEF534H   LINE      ECODE    ---       #269
      00FEF534H   LINE      ECODE    ---       #276
      00FEF536H   LINE      ECODE    ---       #277
      00FEF545H   LINE      ECODE    ---       #300
      00FEF54BH   LINE      ECODE    ---       #302
      00FEF55EH   LINE      ECODE    ---       #303
      00FEF56AH   LINE      ECODE    ---       #304
      00FEF576H   LINE      ECODE    ---       #306
      00FEF585H   LINE      ECODE    ---       #307
      00FEF594H   LINE      ECODE    ---       #308
      00FEF59EH   LINE      ECODE    ---       #310
      00FEF5ADH   LINE      ECODE    ---       #311
      00FEF5D1H   LINE      ECODE    ---       #312
      00FEF5D9H   LINE      ECODE    ---       #313
      00FEF5DBH   LINE      ECODE    ---       #314
      00FEF5EEH   LINE      ECODE    ---       #317
      00FEF5F1H   LINE      ECODE    ---       #319
      00FEF5F1H   LINE      ECODE    ---       #321
      00FEF5F1H   LINE      ECODE    ---       #325
      00FEF605H   LINE      ECODE    ---       #326
      00FEF605H   LINE      ECODE    ---       #327
      00FEF605H   LINE      ECODE    ---       #328
      00FEF614H   LINE      ECODE    ---       #329
      ---         BLOCKEND  ---      ---       LVL=0

      ---         MODULE    ---      ---       Test_romboot
      000000B6H   SFRSYM    DATA     BYTE      RTCCON1
      000000BFH   SFRSYM    DATA     BYTE      CGUCON8
      000000CEH   SFRSYM    DATA     BYTE      CGUCON6
      000000CDH   SFRSYM    DATA     BYTE      CGUCON5
      000000CCH   SFRSYM    DATA     BYTE      CGUCON4
      000000CBH   SFRSYM    DATA     BYTE      CGUCON3
      000000CAH   SFRSYM    DATA     BYTE      CGUCON2
      000000C8H   SFRSYM    DATA     BYTE      CGUCON1
      000000C9H   SFRSYM    DATA     BYTE      CGUCON0
      000000D9H   SFRSYM    DATA     BYTE      MEMBIST_ERRMAP2
      000000D8H   SFRSYM    DATA     BYTE      MEMBIST_ERRMAP1
      000000B0H   SFRSYM    DATA     BYTE      ANACON9
L251 LINKER/LOCATER V4.65.0.0                                                         06/22/2017  19:19:11  PAGE 32


      000000A0H   SFRSYM    DATA     BYTE      ANACON8
      000000D5H   SFRSYM    DATA     BYTE      MEMBIST_FINISH2
      000000C7H   SFRSYM    DATA     BYTE      ANACON7
      000000D4H   SFRSYM    DATA     BYTE      MEMBIST_FINISH1
      000000E9H   SFRSYM    DATA     BYTE      SFTRST
      000000EEH   SFRSYM    DATA     BYTE      P1SEL
      000000C3H   SFRSYM    DATA     BYTE      ANACON3
      000000ECH   SFRSYM    DATA     BYTE      P0SEL
      000000C2H   SFRSYM    DATA     BYTE      ANACON2
      000000C1H   SFRSYM    DATA     BYTE      ANACON1
      000000EDH   SFRSYM    DATA     BYTE      P1MOD
      00000098H   SFRSYM    DATA     BYTE      SYSCON
      000000ADH   SFRSYM    DATA     BYTE      P1DIR
      000000EBH   SFRSYM    DATA     BYTE      P0MOD
      000000ACH   SFRSYM    DATA     BYTE      P0DIR
      00000094H   SFRSYM    DATA     BYTE      P1BUF
      00000080H   SFRSYM    DATA     BYTE      P0BUF
      000000E4H   SFRSYM    DATA     BYTE      TESTCON3
      000000E3H   SFRSYM    DATA     BYTE      TESTCON2
      000000E5H   SFRSYM    DATA     BYTE      IWKSTA
      0000009AH   SFRSYM    DATA     BYTE      WDTREL
      000000E2H   SFRSYM    DATA     BYTE      TESTCON1
      000000E1H   SFRSYM    DATA     BYTE      TESTCON0
      00000099H   SFRSYM    DATA     BYTE      WDTCON
      000000C0H   SFRSYM    DATA     BYTE      AIF
      000000E8H   SFRSYM    DATA     BYTE      AIE
      000000BDH   SFRSYM    DATA     BYTE      FT_EN_REG
      0000009EH   SFRSYM    DATA     BYTE      RTCCON
      000000FEH   SFRSYM    DATA     BYTE      LED_EN
      000000B9H   SFRSYM    DATA     BYTE      CNTCON
      000000D7H   SFRSYM    DATA     BYTE      MEMBIST_FAIL2
      000000D6H   SFRSYM    DATA     BYTE      MEMBIST_FAIL1
      000000D3H   SFRSYM    DATA     BYTE      MEMBIST_EN2
      000000D2H   SFRSYM    DATA     BYTE      MEMBIST_EN1
      0000009BH   SFRSYM    DATA     BYTE      TDIV
      000000EFH   SFRSYM    DATA     BYTE      XDP_STA
      00000088H   SFRSYM    DATA     BYTE      TCON
      00000089H   SFRSYM    DATA     BYTE      TMOD
      000000A7H   SFRSYM    DATA     BYTE      SPI0CON5
      000000B2H   SFRSYM    DATA     BYTE      SPI1CON4
      000000B1H   SFRSYM    DATA     BYTE      SPI1CON3
      000000A5H   SFRSYM    DATA     BYTE      SPI0CON3
      000000B4H   SFRSYM    DATA     BYTE      SPI1CON2
      000000EAH   SFRSYM    DATA     BYTE      ANACON
      00000087H   SFRSYM    DATA     BYTE      PCON
      000000A3H   SFRSYM    DATA     BYTE      SPI0CON2
      000000DAH   SFRSYM    DATA     BYTE      DSV_CON
      000000F8H   SFRSYM    DATA     BYTE      AIPL
      00000095H   SFRSYM    DATA     BYTE      I2CSEL
      000000F5H   SFRSYM    DATA     BYTE      SSCG_CON0
      000000F7H   SFRSYM    DATA     BYTE      AIPH
      000000FDH   SFRSYM    DATA     BYTE      I2C_STATE
      00000090H   SFRSYM    DATA     BYTE      I2CCON
      000000A9H   SFRSYM    DATA     BYTE      UARTCON
      000000B8H   SFRSYM    DATA     BYTE      IPL0
      000000F3H   SFRSYM    DATA     BYTE      ANACON10
      000000B7H   SFRSYM    DATA     BYTE      IPH0
      000000DFH   SFRSYM    DATA     BYTE      IEN1
      000000A8H   SFRSYM    DATA     BYTE      IEN0
      00000093H   SFRSYM    DATA     BYTE      I2CSTOP
      000000B3H   SFRSYM    DATA     BYTE      SPI1CON
      000000A2H   SFRSYM    DATA     BYTE      SPI0CON

      ---         MODULE    ---      ---       Test_RTC
      000000B6H   SFRSYM    DATA     BYTE      RTCCON1
L251 LINKER/LOCATER V4.65.0.0                                                         06/22/2017  19:19:11  PAGE 33


      000000BFH   SFRSYM    DATA     BYTE      CGUCON8
      000000CEH   SFRSYM    DATA     BYTE      CGUCON6
      000000CDH   SFRSYM    DATA     BYTE      CGUCON5
      000000CCH   SFRSYM    DATA     BYTE      CGUCON4
      000000CBH   SFRSYM    DATA     BYTE      CGUCON3
      000000CAH   SFRSYM    DATA     BYTE      CGUCON2
      000000C8H   SFRSYM    DATA     BYTE      CGUCON1
      000000C9H   SFRSYM    DATA     BYTE      CGUCON0
      000000D9H   SFRSYM    DATA     BYTE      MEMBIST_ERRMAP2
      000000D8H   SFRSYM    DATA     BYTE      MEMBIST_ERRMAP1
      000000B0H   SFRSYM    DATA     BYTE      ANACON9
      000000A0H   SFRSYM    DATA     BYTE      ANACON8
      000000D5H   SFRSYM    DATA     BYTE      MEMBIST_FINISH2
      000000C7H   SFRSYM    DATA     BYTE      ANACON7
      000000D4H   SFRSYM    DATA     BYTE      MEMBIST_FINISH1
      000000E9H   SFRSYM    DATA     BYTE      SFTRST
      000000EEH   SFRSYM    DATA     BYTE      P1SEL
      000000C3H   SFRSYM    DATA     BYTE      ANACON3
      000000ECH   SFRSYM    DATA     BYTE      P0SEL
      000000C2H   SFRSYM    DATA     BYTE      ANACON2
      000000C1H   SFRSYM    DATA     BYTE      ANACON1
      000000EDH   SFRSYM    DATA     BYTE      P1MOD
      00000098H   SFRSYM    DATA     BYTE      SYSCON
      000000ADH   SFRSYM    DATA     BYTE      P1DIR
      000000EBH   SFRSYM    DATA     BYTE      P0MOD
      000000ACH   SFRSYM    DATA     BYTE      P0DIR
      00000094H   SFRSYM    DATA     BYTE      P1BUF
      00000080H   SFRSYM    DATA     BYTE      P0BUF
      000000E4H   SFRSYM    DATA     BYTE      TESTCON3
      000000E3H   SFRSYM    DATA     BYTE      TESTCON2
      000000E5H   SFRSYM    DATA     BYTE      IWKSTA
      0000009AH   SFRSYM    DATA     BYTE      WDTREL
      000000E2H   SFRSYM    DATA     BYTE      TESTCON1
      000000E1H   SFRSYM    DATA     BYTE      TESTCON0
      00000099H   SFRSYM    DATA     BYTE      WDTCON
      000000C0H   SFRSYM    DATA     BYTE      AIF
      000000E8H   SFRSYM    DATA     BYTE      AIE
      000000BDH   SFRSYM    DATA     BYTE      FT_EN_REG
      0000009EH   SFRSYM    DATA     BYTE      RTCCON
      000000FEH   SFRSYM    DATA     BYTE      LED_EN
      000000B9H   SFRSYM    DATA     BYTE      CNTCON
      000000D7H   SFRSYM    DATA     BYTE      MEMBIST_FAIL2
      000000D6H   SFRSYM    DATA     BYTE      MEMBIST_FAIL1
      000000D3H   SFRSYM    DATA     BYTE      MEMBIST_EN2
      000000D2H   SFRSYM    DATA     BYTE      MEMBIST_EN1
      0000009BH   SFRSYM    DATA     BYTE      TDIV
      000000EFH   SFRSYM    DATA     BYTE      XDP_STA
      00000088H   SFRSYM    DATA     BYTE      TCON
      00000089H   SFRSYM    DATA     BYTE      TMOD
      000000A7H   SFRSYM    DATA     BYTE      SPI0CON5
      000000B2H   SFRSYM    DATA     BYTE      SPI1CON4
      000000B1H   SFRSYM    DATA     BYTE      SPI1CON3
      000000A5H   SFRSYM    DATA     BYTE      SPI0CON3
      000000B4H   SFRSYM    DATA     BYTE      SPI1CON2
      000000EAH   SFRSYM    DATA     BYTE      ANACON
      00000087H   SFRSYM    DATA     BYTE      PCON
      000000A3H   SFRSYM    DATA     BYTE      SPI0CON2
      000000DAH   SFRSYM    DATA     BYTE      DSV_CON
      000000F8H   SFRSYM    DATA     BYTE      AIPL
      00000095H   SFRSYM    DATA     BYTE      I2CSEL
      000000F5H   SFRSYM    DATA     BYTE      SSCG_CON0
      000000F7H   SFRSYM    DATA     BYTE      AIPH
      000000FDH   SFRSYM    DATA     BYTE      I2C_STATE
      00000090H   SFRSYM    DATA     BYTE      I2CCON
      000000A9H   SFRSYM    DATA     BYTE      UARTCON
L251 LINKER/LOCATER V4.65.0.0                                                         06/22/2017  19:19:11  PAGE 34


      000000B8H   SFRSYM    DATA     BYTE      IPL0
      000000F3H   SFRSYM    DATA     BYTE      ANACON10
      000000B7H   SFRSYM    DATA     BYTE      IPH0
      000000DFH   SFRSYM    DATA     BYTE      IEN1
      000000A8H   SFRSYM    DATA     BYTE      IEN0
      00000093H   SFRSYM    DATA     BYTE      I2CSTOP
      000000B3H   SFRSYM    DATA     BYTE      SPI1CON
      000000A2H   SFRSYM    DATA     BYTE      SPI0CON

      ---         MODULE    ---      ---       Test_SFR
      000000B6H   SFRSYM    DATA     BYTE      RTCCON1
      000000BFH   SFRSYM    DATA     BYTE      CGUCON8
      000000CEH   SFRSYM    DATA     BYTE      CGUCON6
      000000CDH   SFRSYM    DATA     BYTE      CGUCON5
      000000CCH   SFRSYM    DATA     BYTE      CGUCON4
      000000CBH   SFRSYM    DATA     BYTE      CGUCON3
      000000CAH   SFRSYM    DATA     BYTE      CGUCON2
      000000C8H   SFRSYM    DATA     BYTE      CGUCON1
      000000C9H   SFRSYM    DATA     BYTE      CGUCON0
      000000D9H   SFRSYM    DATA     BYTE      MEMBIST_ERRMAP2
      000000D8H   SFRSYM    DATA     BYTE      MEMBIST_ERRMAP1
      000000B0H   SFRSYM    DATA     BYTE      ANACON9
      000000A0H   SFRSYM    DATA     BYTE      ANACON8
      000000D5H   SFRSYM    DATA     BYTE      MEMBIST_FINISH2
      000000C7H   SFRSYM    DATA     BYTE      ANACON7
      000000D4H   SFRSYM    DATA     BYTE      MEMBIST_FINISH1
      000000E9H   SFRSYM    DATA     BYTE      SFTRST
      000000EEH   SFRSYM    DATA     BYTE      P1SEL
      000000C3H   SFRSYM    DATA     BYTE      ANACON3
      000000ECH   SFRSYM    DATA     BYTE      P0SEL
      000000C2H   SFRSYM    DATA     BYTE      ANACON2
      000000C1H   SFRSYM    DATA     BYTE      ANACON1
      000000EDH   SFRSYM    DATA     BYTE      P1MOD
      00000098H   SFRSYM    DATA     BYTE      SYSCON
      000000ADH   SFRSYM    DATA     BYTE      P1DIR
      000000EBH   SFRSYM    DATA     BYTE      P0MOD
      000000ACH   SFRSYM    DATA     BYTE      P0DIR
      00000094H   SFRSYM    DATA     BYTE      P1BUF
      00000080H   SFRSYM    DATA     BYTE      P0BUF
      000000E4H   SFRSYM    DATA     BYTE      TESTCON3
      000000E3H   SFRSYM    DATA     BYTE      TESTCON2
      000000E5H   SFRSYM    DATA     BYTE      IWKSTA
      0000009AH   SFRSYM    DATA     BYTE      WDTREL
      000000E2H   SFRSYM    DATA     BYTE      TESTCON1
      000000E1H   SFRSYM    DATA     BYTE      TESTCON0
      00000099H   SFRSYM    DATA     BYTE      WDTCON
      000000C0H   SFRSYM    DATA     BYTE      AIF
      000000E8H   SFRSYM    DATA     BYTE      AIE
      000000BDH   SFRSYM    DATA     BYTE      FT_EN_REG
      0000009EH   SFRSYM    DATA     BYTE      RTCCON
      000000FEH   SFRSYM    DATA     BYTE      LED_EN
      000000B9H   SFRSYM    DATA     BYTE      CNTCON
      000000D7H   SFRSYM    DATA     BYTE      MEMBIST_FAIL2
      000000D6H   SFRSYM    DATA     BYTE      MEMBIST_FAIL1
      000000D3H   SFRSYM    DATA     BYTE      MEMBIST_EN2
      000000D2H   SFRSYM    DATA     BYTE      MEMBIST_EN1
      0000009BH   SFRSYM    DATA     BYTE      TDIV
      000000EFH   SFRSYM    DATA     BYTE      XDP_STA
      00000088H   SFRSYM    DATA     BYTE      TCON
      00000089H   SFRSYM    DATA     BYTE      TMOD
      000000A7H   SFRSYM    DATA     BYTE      SPI0CON5
      000000B2H   SFRSYM    DATA     BYTE      SPI1CON4
      000000B1H   SFRSYM    DATA     BYTE      SPI1CON3
      000000A5H   SFRSYM    DATA     BYTE      SPI0CON3
      000000B4H   SFRSYM    DATA     BYTE      SPI1CON2
L251 LINKER/LOCATER V4.65.0.0                                                         06/22/2017  19:19:11  PAGE 35


      000000EAH   SFRSYM    DATA     BYTE      ANACON
      00000087H   SFRSYM    DATA     BYTE      PCON
      000000A3H   SFRSYM    DATA     BYTE      SPI0CON2
      000000DAH   SFRSYM    DATA     BYTE      DSV_CON
      000000F8H   SFRSYM    DATA     BYTE      AIPL
      00000095H   SFRSYM    DATA     BYTE      I2CSEL
      000000F5H   SFRSYM    DATA     BYTE      SSCG_CON0
      000000F7H   SFRSYM    DATA     BYTE      AIPH
      000000FDH   SFRSYM    DATA     BYTE      I2C_STATE
      00000090H   SFRSYM    DATA     BYTE      I2CCON
      000000A9H   SFRSYM    DATA     BYTE      UARTCON
      000000B8H   SFRSYM    DATA     BYTE      IPL0
      000000F3H   SFRSYM    DATA     BYTE      ANACON10
      000000B7H   SFRSYM    DATA     BYTE      IPH0
      000000DFH   SFRSYM    DATA     BYTE      IEN1
      000000A8H   SFRSYM    DATA     BYTE      IEN0
      00000093H   SFRSYM    DATA     BYTE      I2CSTOP
      000000B3H   SFRSYM    DATA     BYTE      SPI1CON
      000000A2H   SFRSYM    DATA     BYTE      SPI0CON

      ---         MODULE    ---      ---       Test_spi
      000000B6H   SFRSYM    DATA     BYTE      RTCCON1
      000000BFH   SFRSYM    DATA     BYTE      CGUCON8
      000000CEH   SFRSYM    DATA     BYTE      CGUCON6
      000000CDH   SFRSYM    DATA     BYTE      CGUCON5
      000000CCH   SFRSYM    DATA     BYTE      CGUCON4
      000000CBH   SFRSYM    DATA     BYTE      CGUCON3
      000000CAH   SFRSYM    DATA     BYTE      CGUCON2
      000000C8H   SFRSYM    DATA     BYTE      CGUCON1
      000000C9H   SFRSYM    DATA     BYTE      CGUCON0
      000000D9H   SFRSYM    DATA     BYTE      MEMBIST_ERRMAP2
      000000D8H   SFRSYM    DATA     BYTE      MEMBIST_ERRMAP1
      000000B0H   SFRSYM    DATA     BYTE      ANACON9
      000000A0H   SFRSYM    DATA     BYTE      ANACON8
      000000D5H   SFRSYM    DATA     BYTE      MEMBIST_FINISH2
      000000C7H   SFRSYM    DATA     BYTE      ANACON7
      000000D4H   SFRSYM    DATA     BYTE      MEMBIST_FINISH1
      000000E9H   SFRSYM    DATA     BYTE      SFTRST
      000000EEH   SFRSYM    DATA     BYTE      P1SEL
      000000C3H   SFRSYM    DATA     BYTE      ANACON3
      000000ECH   SFRSYM    DATA     BYTE      P0SEL
      000000C2H   SFRSYM    DATA     BYTE      ANACON2
      000000C1H   SFRSYM    DATA     BYTE      ANACON1
      000000EDH   SFRSYM    DATA     BYTE      P1MOD
      00000098H   SFRSYM    DATA     BYTE      SYSCON
      000000ADH   SFRSYM    DATA     BYTE      P1DIR
      000000EBH   SFRSYM    DATA     BYTE      P0MOD
      000000ACH   SFRSYM    DATA     BYTE      P0DIR
      00000094H   SFRSYM    DATA     BYTE      P1BUF
      00000080H   SFRSYM    DATA     BYTE      P0BUF
      000000E4H   SFRSYM    DATA     BYTE      TESTCON3
      000000E3H   SFRSYM    DATA     BYTE      TESTCON2
      000000E5H   SFRSYM    DATA     BYTE      IWKSTA
      0000009AH   SFRSYM    DATA     BYTE      WDTREL
      000000E2H   SFRSYM    DATA     BYTE      TESTCON1
      000000E1H   SFRSYM    DATA     BYTE      TESTCON0
      00000099H   SFRSYM    DATA     BYTE      WDTCON
      000000C0H   SFRSYM    DATA     BYTE      AIF
      000000E8H   SFRSYM    DATA     BYTE      AIE
      000000BDH   SFRSYM    DATA     BYTE      FT_EN_REG
      0000009EH   SFRSYM    DATA     BYTE      RTCCON
      000000FEH   SFRSYM    DATA     BYTE      LED_EN
      000000B9H   SFRSYM    DATA     BYTE      CNTCON
      000000D7H   SFRSYM    DATA     BYTE      MEMBIST_FAIL2
      000000D6H   SFRSYM    DATA     BYTE      MEMBIST_FAIL1
L251 LINKER/LOCATER V4.65.0.0                                                         06/22/2017  19:19:11  PAGE 36


      000000D3H   SFRSYM    DATA     BYTE      MEMBIST_EN2
      000000D2H   SFRSYM    DATA     BYTE      MEMBIST_EN1
      0000009BH   SFRSYM    DATA     BYTE      TDIV
      000000EFH   SFRSYM    DATA     BYTE      XDP_STA
      00000088H   SFRSYM    DATA     BYTE      TCON
      00000089H   SFRSYM    DATA     BYTE      TMOD
      000000A7H   SFRSYM    DATA     BYTE      SPI0CON5
      000000B2H   SFRSYM    DATA     BYTE      SPI1CON4
      000000B1H   SFRSYM    DATA     BYTE      SPI1CON3
      000000A5H   SFRSYM    DATA     BYTE      SPI0CON3
      000000B4H   SFRSYM    DATA     BYTE      SPI1CON2
      000000EAH   SFRSYM    DATA     BYTE      ANACON
      00000087H   SFRSYM    DATA     BYTE      PCON
      000000A3H   SFRSYM    DATA     BYTE      SPI0CON2
      000000DAH   SFRSYM    DATA     BYTE      DSV_CON
      000000F8H   SFRSYM    DATA     BYTE      AIPL
      00000095H   SFRSYM    DATA     BYTE      I2CSEL
      000000F5H   SFRSYM    DATA     BYTE      SSCG_CON0
      000000F7H   SFRSYM    DATA     BYTE      AIPH
      000000FDH   SFRSYM    DATA     BYTE      I2C_STATE
      00000090H   SFRSYM    DATA     BYTE      I2CCON
      000000A9H   SFRSYM    DATA     BYTE      UARTCON
      000000B8H   SFRSYM    DATA     BYTE      IPL0
      000000F3H   SFRSYM    DATA     BYTE      ANACON10
      000000B7H   SFRSYM    DATA     BYTE      IPH0
      000000DFH   SFRSYM    DATA     BYTE      IEN1
      000000A8H   SFRSYM    DATA     BYTE      IEN0
      00000093H   SFRSYM    DATA     BYTE      I2CSTOP
      000000B3H   SFRSYM    DATA     BYTE      SPI1CON
      000000A2H   SFRSYM    DATA     BYTE      SPI0CON

      ---         MODULE    ---      ---       Test_timer
      000000B6H   SFRSYM    DATA     BYTE      RTCCON1
      000000BFH   SFRSYM    DATA     BYTE      CGUCON8
      000000CEH   SFRSYM    DATA     BYTE      CGUCON6
      000000CDH   SFRSYM    DATA     BYTE      CGUCON5
      000000CCH   SFRSYM    DATA     BYTE      CGUCON4
      000000CBH   SFRSYM    DATA     BYTE      CGUCON3
      000000CAH   SFRSYM    DATA     BYTE      CGUCON2
      000000C8H   SFRSYM    DATA     BYTE      CGUCON1
      000000C9H   SFRSYM    DATA     BYTE      CGUCON0
      000000D9H   SFRSYM    DATA     BYTE      MEMBIST_ERRMAP2
      000000D8H   SFRSYM    DATA     BYTE      MEMBIST_ERRMAP1
      000000B0H   SFRSYM    DATA     BYTE      ANACON9
      000000A0H   SFRSYM    DATA     BYTE      ANACON8
      000000D5H   SFRSYM    DATA     BYTE      MEMBIST_FINISH2
      000000C7H   SFRSYM    DATA     BYTE      ANACON7
      000000D4H   SFRSYM    DATA     BYTE      MEMBIST_FINISH1
      000000E9H   SFRSYM    DATA     BYTE      SFTRST
      000000EEH   SFRSYM    DATA     BYTE      P1SEL
      000000C3H   SFRSYM    DATA     BYTE      ANACON3
      000000ECH   SFRSYM    DATA     BYTE      P0SEL
      000000C2H   SFRSYM    DATA     BYTE      ANACON2
      000000C1H   SFRSYM    DATA     BYTE      ANACON1
      000000EDH   SFRSYM    DATA     BYTE      P1MOD
      00000098H   SFRSYM    DATA     BYTE      SYSCON
      000000ADH   SFRSYM    DATA     BYTE      P1DIR
      000000EBH   SFRSYM    DATA     BYTE      P0MOD
      000000ACH   SFRSYM    DATA     BYTE      P0DIR
      00000094H   SFRSYM    DATA     BYTE      P1BUF
      00000080H   SFRSYM    DATA     BYTE      P0BUF
      000000E4H   SFRSYM    DATA     BYTE      TESTCON3
      000000E3H   SFRSYM    DATA     BYTE      TESTCON2
      000000E5H   SFRSYM    DATA     BYTE      IWKSTA
      0000009AH   SFRSYM    DATA     BYTE      WDTREL
L251 LINKER/LOCATER V4.65.0.0                                                         06/22/2017  19:19:11  PAGE 37


      000000E2H   SFRSYM    DATA     BYTE      TESTCON1
      000000E1H   SFRSYM    DATA     BYTE      TESTCON0
      00000099H   SFRSYM    DATA     BYTE      WDTCON
      000000C0H   SFRSYM    DATA     BYTE      AIF
      000000E8H   SFRSYM    DATA     BYTE      AIE
      000000BDH   SFRSYM    DATA     BYTE      FT_EN_REG
      0000009EH   SFRSYM    DATA     BYTE      RTCCON
      000000FEH   SFRSYM    DATA     BYTE      LED_EN
      000000B9H   SFRSYM    DATA     BYTE      CNTCON
      000000D7H   SFRSYM    DATA     BYTE      MEMBIST_FAIL2
      000000D6H   SFRSYM    DATA     BYTE      MEMBIST_FAIL1
      000000D3H   SFRSYM    DATA     BYTE      MEMBIST_EN2
      000000D2H   SFRSYM    DATA     BYTE      MEMBIST_EN1
      0000009BH   SFRSYM    DATA     BYTE      TDIV
      000000EFH   SFRSYM    DATA     BYTE      XDP_STA
      00000088H   SFRSYM    DATA     BYTE      TCON
      00000089H   SFRSYM    DATA     BYTE      TMOD
      000000A7H   SFRSYM    DATA     BYTE      SPI0CON5
      000000B2H   SFRSYM    DATA     BYTE      SPI1CON4
      000000B1H   SFRSYM    DATA     BYTE      SPI1CON3
      000000A5H   SFRSYM    DATA     BYTE      SPI0CON3
      000000B4H   SFRSYM    DATA     BYTE      SPI1CON2
      000000EAH   SFRSYM    DATA     BYTE      ANACON
      00000087H   SFRSYM    DATA     BYTE      PCON
      000000A3H   SFRSYM    DATA     BYTE      SPI0CON2
      000000DAH   SFRSYM    DATA     BYTE      DSV_CON
      000000F8H   SFRSYM    DATA     BYTE      AIPL
      00000095H   SFRSYM    DATA     BYTE      I2CSEL
      000000F5H   SFRSYM    DATA     BYTE      SSCG_CON0
      000000F7H   SFRSYM    DATA     BYTE      AIPH
      000000FDH   SFRSYM    DATA     BYTE      I2C_STATE
      00000090H   SFRSYM    DATA     BYTE      I2CCON
      000000A9H   SFRSYM    DATA     BYTE      UARTCON
      000000B8H   SFRSYM    DATA     BYTE      IPL0
      000000F3H   SFRSYM    DATA     BYTE      ANACON10
      000000B7H   SFRSYM    DATA     BYTE      IPH0
      000000DFH   SFRSYM    DATA     BYTE      IEN1
      000000A8H   SFRSYM    DATA     BYTE      IEN0
      00000093H   SFRSYM    DATA     BYTE      I2CSTOP
      000000B3H   SFRSYM    DATA     BYTE      SPI1CON
      000000A2H   SFRSYM    DATA     BYTE      SPI0CON

      ---         MODULE    ---      ---       Test_wdt
      000000B6H   SFRSYM    DATA     BYTE      RTCCON1
      000000BFH   SFRSYM    DATA     BYTE      CGUCON8
      000000CEH   SFRSYM    DATA     BYTE      CGUCON6
      000000CDH   SFRSYM    DATA     BYTE      CGUCON5
      000000CCH   SFRSYM    DATA     BYTE      CGUCON4
      000000CBH   SFRSYM    DATA     BYTE      CGUCON3
      000000CAH   SFRSYM    DATA     BYTE      CGUCON2
      000000C8H   SFRSYM    DATA     BYTE      CGUCON1
      000000C9H   SFRSYM    DATA     BYTE      CGUCON0
      000000D9H   SFRSYM    DATA     BYTE      MEMBIST_ERRMAP2
      000000D8H   SFRSYM    DATA     BYTE      MEMBIST_ERRMAP1
      000000B0H   SFRSYM    DATA     BYTE      ANACON9
      000000A0H   SFRSYM    DATA     BYTE      ANACON8
      000000D5H   SFRSYM    DATA     BYTE      MEMBIST_FINISH2
      000000C7H   SFRSYM    DATA     BYTE      ANACON7
      000000D4H   SFRSYM    DATA     BYTE      MEMBIST_FINISH1
      000000E9H   SFRSYM    DATA     BYTE      SFTRST
      000000EEH   SFRSYM    DATA     BYTE      P1SEL
      000000C3H   SFRSYM    DATA     BYTE      ANACON3
      000000ECH   SFRSYM    DATA     BYTE      P0SEL
      000000C2H   SFRSYM    DATA     BYTE      ANACON2
      000000C1H   SFRSYM    DATA     BYTE      ANACON1
L251 LINKER/LOCATER V4.65.0.0                                                         06/22/2017  19:19:11  PAGE 38


      000000EDH   SFRSYM    DATA     BYTE      P1MOD
      00000098H   SFRSYM    DATA     BYTE      SYSCON
      000000ADH   SFRSYM    DATA     BYTE      P1DIR
      000000EBH   SFRSYM    DATA     BYTE      P0MOD
      000000ACH   SFRSYM    DATA     BYTE      P0DIR
      00000094H   SFRSYM    DATA     BYTE      P1BUF
      00000080H   SFRSYM    DATA     BYTE      P0BUF
      000000E4H   SFRSYM    DATA     BYTE      TESTCON3
      000000E3H   SFRSYM    DATA     BYTE      TESTCON2
      000000E5H   SFRSYM    DATA     BYTE      IWKSTA
      0000009AH   SFRSYM    DATA     BYTE      WDTREL
      000000E2H   SFRSYM    DATA     BYTE      TESTCON1
      000000E1H   SFRSYM    DATA     BYTE      TESTCON0
      00000099H   SFRSYM    DATA     BYTE      WDTCON
      000000C0H   SFRSYM    DATA     BYTE      AIF
      000000E8H   SFRSYM    DATA     BYTE      AIE
      000000BDH   SFRSYM    DATA     BYTE      FT_EN_REG
      0000009EH   SFRSYM    DATA     BYTE      RTCCON
      000000FEH   SFRSYM    DATA     BYTE      LED_EN
      000000B9H   SFRSYM    DATA     BYTE      CNTCON
      000000D7H   SFRSYM    DATA     BYTE      MEMBIST_FAIL2
      000000D6H   SFRSYM    DATA     BYTE      MEMBIST_FAIL1
      000000D3H   SFRSYM    DATA     BYTE      MEMBIST_EN2
      000000D2H   SFRSYM    DATA     BYTE      MEMBIST_EN1
      0000009BH   SFRSYM    DATA     BYTE      TDIV
      000000EFH   SFRSYM    DATA     BYTE      XDP_STA
      00000088H   SFRSYM    DATA     BYTE      TCON
      00000089H   SFRSYM    DATA     BYTE      TMOD
      000000A7H   SFRSYM    DATA     BYTE      SPI0CON5
      000000B2H   SFRSYM    DATA     BYTE      SPI1CON4
      000000B1H   SFRSYM    DATA     BYTE      SPI1CON3
      000000A5H   SFRSYM    DATA     BYTE      SPI0CON3
      000000B4H   SFRSYM    DATA     BYTE      SPI1CON2
      000000EAH   SFRSYM    DATA     BYTE      ANACON
      00000087H   SFRSYM    DATA     BYTE      PCON
      000000A3H   SFRSYM    DATA     BYTE      SPI0CON2
      000000DAH   SFRSYM    DATA     BYTE      DSV_CON
      000000F8H   SFRSYM    DATA     BYTE      AIPL
      00000095H   SFRSYM    DATA     BYTE      I2CSEL
      000000F5H   SFRSYM    DATA     BYTE      SSCG_CON0
      000000F7H   SFRSYM    DATA     BYTE      AIPH
      000000FDH   SFRSYM    DATA     BYTE      I2C_STATE
      00000090H   SFRSYM    DATA     BYTE      I2CCON
      000000A9H   SFRSYM    DATA     BYTE      UARTCON
      000000B8H   SFRSYM    DATA     BYTE      IPL0
      000000F3H   SFRSYM    DATA     BYTE      ANACON10
      000000B7H   SFRSYM    DATA     BYTE      IPH0
      000000DFH   SFRSYM    DATA     BYTE      IEN1
      000000A8H   SFRSYM    DATA     BYTE      IEN0
      00000093H   SFRSYM    DATA     BYTE      I2CSTOP
      000000B3H   SFRSYM    DATA     BYTE      SPI1CON
      000000A2H   SFRSYM    DATA     BYTE      SPI0CON

      ---         MODULE    ---      ---       Test_Xbus
      000000B6H   SFRSYM    DATA     BYTE      RTCCON1
      000000BFH   SFRSYM    DATA     BYTE      CGUCON8
      000000CEH   SFRSYM    DATA     BYTE      CGUCON6
      000000CDH   SFRSYM    DATA     BYTE      CGUCON5
      000000CCH   SFRSYM    DATA     BYTE      CGUCON4
      000000CBH   SFRSYM    DATA     BYTE      CGUCON3
      000000CAH   SFRSYM    DATA     BYTE      CGUCON2
      000000C8H   SFRSYM    DATA     BYTE      CGUCON1
      000000C9H   SFRSYM    DATA     BYTE      CGUCON0
      000000D9H   SFRSYM    DATA     BYTE      MEMBIST_ERRMAP2
      000000D8H   SFRSYM    DATA     BYTE      MEMBIST_ERRMAP1
L251 LINKER/LOCATER V4.65.0.0                                                         06/22/2017  19:19:11  PAGE 39


      000000B0H   SFRSYM    DATA     BYTE      ANACON9
      000000A0H   SFRSYM    DATA     BYTE      ANACON8
      000000D5H   SFRSYM    DATA     BYTE      MEMBIST_FINISH2
      000000C7H   SFRSYM    DATA     BYTE      ANACON7
      000000D4H   SFRSYM    DATA     BYTE      MEMBIST_FINISH1
      000000E9H   SFRSYM    DATA     BYTE      SFTRST
      000000EEH   SFRSYM    DATA     BYTE      P1SEL
      000000C3H   SFRSYM    DATA     BYTE      ANACON3
      000000ECH   SFRSYM    DATA     BYTE      P0SEL
      000000C2H   SFRSYM    DATA     BYTE      ANACON2
      000000C1H   SFRSYM    DATA     BYTE      ANACON1
      000000EDH   SFRSYM    DATA     BYTE      P1MOD
      00000098H   SFRSYM    DATA     BYTE      SYSCON
      000000ADH   SFRSYM    DATA     BYTE      P1DIR
      000000EBH   SFRSYM    DATA     BYTE      P0MOD
      000000ACH   SFRSYM    DATA     BYTE      P0DIR
      00000094H   SFRSYM    DATA     BYTE      P1BUF
      00000080H   SFRSYM    DATA     BYTE      P0BUF
      000000E4H   SFRSYM    DATA     BYTE      TESTCON3
      000000E3H   SFRSYM    DATA     BYTE      TESTCON2
      000000E5H   SFRSYM    DATA     BYTE      IWKSTA
      0000009AH   SFRSYM    DATA     BYTE      WDTREL
      000000E2H   SFRSYM    DATA     BYTE      TESTCON1
      000000E1H   SFRSYM    DATA     BYTE      TESTCON0
      00000099H   SFRSYM    DATA     BYTE      WDTCON
      000000C0H   SFRSYM    DATA     BYTE      AIF
      000000E8H   SFRSYM    DATA     BYTE      AIE
      000000BDH   SFRSYM    DATA     BYTE      FT_EN_REG
      0000009EH   SFRSYM    DATA     BYTE      RTCCON
      000000FEH   SFRSYM    DATA     BYTE      LED_EN
      000000B9H   SFRSYM    DATA     BYTE      CNTCON
      000000D7H   SFRSYM    DATA     BYTE      MEMBIST_FAIL2
      000000D6H   SFRSYM    DATA     BYTE      MEMBIST_FAIL1
      000000D3H   SFRSYM    DATA     BYTE      MEMBIST_EN2
      000000D2H   SFRSYM    DATA     BYTE      MEMBIST_EN1
      0000009BH   SFRSYM    DATA     BYTE      TDIV
      000000EFH   SFRSYM    DATA     BYTE      XDP_STA
      00000088H   SFRSYM    DATA     BYTE      TCON
      00000089H   SFRSYM    DATA     BYTE      TMOD
      000000A7H   SFRSYM    DATA     BYTE      SPI0CON5
      000000B2H   SFRSYM    DATA     BYTE      SPI1CON4
      000000B1H   SFRSYM    DATA     BYTE      SPI1CON3
      000000A5H   SFRSYM    DATA     BYTE      SPI0CON3
      000000B4H   SFRSYM    DATA     BYTE      SPI1CON2
      000000EAH   SFRSYM    DATA     BYTE      ANACON
      00000087H   SFRSYM    DATA     BYTE      PCON
      000000A3H   SFRSYM    DATA     BYTE      SPI0CON2
      000000DAH   SFRSYM    DATA     BYTE      DSV_CON
      000000F8H   SFRSYM    DATA     BYTE      AIPL
      00000095H   SFRSYM    DATA     BYTE      I2CSEL
      000000F5H   SFRSYM    DATA     BYTE      SSCG_CON0
      000000F7H   SFRSYM    DATA     BYTE      AIPH
      000000FDH   SFRSYM    DATA     BYTE      I2C_STATE
      00000090H   SFRSYM    DATA     BYTE      I2CCON
      000000A9H   SFRSYM    DATA     BYTE      UARTCON
      000000B8H   SFRSYM    DATA     BYTE      IPL0
      000000F3H   SFRSYM    DATA     BYTE      ANACON10
      000000B7H   SFRSYM    DATA     BYTE      IPH0
      000000DFH   SFRSYM    DATA     BYTE      IEN1
      000000A8H   SFRSYM    DATA     BYTE      IEN0
      00000093H   SFRSYM    DATA     BYTE      I2CSTOP
      000000B3H   SFRSYM    DATA     BYTE      SPI1CON
      000000A2H   SFRSYM    DATA     BYTE      SPI0CON

      ---         MODULE    ---      ---       Test_RomEcc
L251 LINKER/LOCATER V4.65.0.0                                                         06/22/2017  19:19:11  PAGE 40


      000000B6H   SFRSYM    DATA     BYTE      RTCCON1
      000000BFH   SFRSYM    DATA     BYTE      CGUCON8
      000000CEH   SFRSYM    DATA     BYTE      CGUCON6
      000000CDH   SFRSYM    DATA     BYTE      CGUCON5
      000000CCH   SFRSYM    DATA     BYTE      CGUCON4
      000000CBH   SFRSYM    DATA     BYTE      CGUCON3
      000000CAH   SFRSYM    DATA     BYTE      CGUCON2
      000000C8H   SFRSYM    DATA     BYTE      CGUCON1
      000000C9H   SFRSYM    DATA     BYTE      CGUCON0
      000000D9H   SFRSYM    DATA     BYTE      MEMBIST_ERRMAP2
      000000D8H   SFRSYM    DATA     BYTE      MEMBIST_ERRMAP1
      000000B0H   SFRSYM    DATA     BYTE      ANACON9
      000000A0H   SFRSYM    DATA     BYTE      ANACON8
      000000D5H   SFRSYM    DATA     BYTE      MEMBIST_FINISH2
      000000C7H   SFRSYM    DATA     BYTE      ANACON7
      000000D4H   SFRSYM    DATA     BYTE      MEMBIST_FINISH1
      000000E9H   SFRSYM    DATA     BYTE      SFTRST
      000000EEH   SFRSYM    DATA     BYTE      P1SEL
      000000C3H   SFRSYM    DATA     BYTE      ANACON3
      000000ECH   SFRSYM    DATA     BYTE      P0SEL
      000000C2H   SFRSYM    DATA     BYTE      ANACON2
      000000C1H   SFRSYM    DATA     BYTE      ANACON1
      000000EDH   SFRSYM    DATA     BYTE      P1MOD
      00000098H   SFRSYM    DATA     BYTE      SYSCON
      000000ADH   SFRSYM    DATA     BYTE      P1DIR
      000000EBH   SFRSYM    DATA     BYTE      P0MOD
      000000ACH   SFRSYM    DATA     BYTE      P0DIR
      00000094H   SFRSYM    DATA     BYTE      P1BUF
      00000080H   SFRSYM    DATA     BYTE      P0BUF
      000000E4H   SFRSYM    DATA     BYTE      TESTCON3
      000000E3H   SFRSYM    DATA     BYTE      TESTCON2
      000000E5H   SFRSYM    DATA     BYTE      IWKSTA
      0000009AH   SFRSYM    DATA     BYTE      WDTREL
      000000E2H   SFRSYM    DATA     BYTE      TESTCON1
      000000E1H   SFRSYM    DATA     BYTE      TESTCON0
      00000099H   SFRSYM    DATA     BYTE      WDTCON
      000000C0H   SFRSYM    DATA     BYTE      AIF
      000000E8H   SFRSYM    DATA     BYTE      AIE
      000000BDH   SFRSYM    DATA     BYTE      FT_EN_REG
      0000009EH   SFRSYM    DATA     BYTE      RTCCON
      000000FEH   SFRSYM    DATA     BYTE      LED_EN
      000000B9H   SFRSYM    DATA     BYTE      CNTCON
      000000D7H   SFRSYM    DATA     BYTE      MEMBIST_FAIL2
      000000D6H   SFRSYM    DATA     BYTE      MEMBIST_FAIL1
      000000D3H   SFRSYM    DATA     BYTE      MEMBIST_EN2
      000000D2H   SFRSYM    DATA     BYTE      MEMBIST_EN1
      0000009BH   SFRSYM    DATA     BYTE      TDIV
      000000EFH   SFRSYM    DATA     BYTE      XDP_STA
      00000088H   SFRSYM    DATA     BYTE      TCON
      00000089H   SFRSYM    DATA     BYTE      TMOD
      000000A7H   SFRSYM    DATA     BYTE      SPI0CON5
      000000B2H   SFRSYM    DATA     BYTE      SPI1CON4
      000000B1H   SFRSYM    DATA     BYTE      SPI1CON3
      000000A5H   SFRSYM    DATA     BYTE      SPI0CON3
      000000B4H   SFRSYM    DATA     BYTE      SPI1CON2
      000000EAH   SFRSYM    DATA     BYTE      ANACON
      00000087H   SFRSYM    DATA     BYTE      PCON
      000000A3H   SFRSYM    DATA     BYTE      SPI0CON2
      000000DAH   SFRSYM    DATA     BYTE      DSV_CON
      000000F8H   SFRSYM    DATA     BYTE      AIPL
      00000095H   SFRSYM    DATA     BYTE      I2CSEL
      000000F5H   SFRSYM    DATA     BYTE      SSCG_CON0
      000000F7H   SFRSYM    DATA     BYTE      AIPH
      000000FDH   SFRSYM    DATA     BYTE      I2C_STATE
      00000090H   SFRSYM    DATA     BYTE      I2CCON
L251 LINKER/LOCATER V4.65.0.0                                                         06/22/2017  19:19:11  PAGE 41


      000000A9H   SFRSYM    DATA     BYTE      UARTCON
      000000B8H   SFRSYM    DATA     BYTE      IPL0
      000000F3H   SFRSYM    DATA     BYTE      ANACON10
      000000B7H   SFRSYM    DATA     BYTE      IPH0
      000000DFH   SFRSYM    DATA     BYTE      IEN1
      000000A8H   SFRSYM    DATA     BYTE      IEN0
      00000093H   SFRSYM    DATA     BYTE      I2CSTOP
      000000B3H   SFRSYM    DATA     BYTE      SPI1CON
      000000A2H   SFRSYM    DATA     BYTE      SPI0CON

      ---         MODULE    ---      ---       Test_Uart
      000000B6H   SFRSYM    DATA     BYTE      RTCCON1
      000000BFH   SFRSYM    DATA     BYTE      CGUCON8
      000000CEH   SFRSYM    DATA     BYTE      CGUCON6
      000000CDH   SFRSYM    DATA     BYTE      CGUCON5
      000000CCH   SFRSYM    DATA     BYTE      CGUCON4
      000000CBH   SFRSYM    DATA     BYTE      CGUCON3
      000000CAH   SFRSYM    DATA     BYTE      CGUCON2
      000000C8H   SFRSYM    DATA     BYTE      CGUCON1
      000000C9H   SFRSYM    DATA     BYTE      CGUCON0
      000000D9H   SFRSYM    DATA     BYTE      MEMBIST_ERRMAP2
      000000D8H   SFRSYM    DATA     BYTE      MEMBIST_ERRMAP1
      000000B0H   SFRSYM    DATA     BYTE      ANACON9
      000000A0H   SFRSYM    DATA     BYTE      ANACON8
      000000D5H   SFRSYM    DATA     BYTE      MEMBIST_FINISH2
      000000C7H   SFRSYM    DATA     BYTE      ANACON7
      000000D4H   SFRSYM    DATA     BYTE      MEMBIST_FINISH1
      000000E9H   SFRSYM    DATA     BYTE      SFTRST
      000000EEH   SFRSYM    DATA     BYTE      P1SEL
      000000C3H   SFRSYM    DATA     BYTE      ANACON3
      000000ECH   SFRSYM    DATA     BYTE      P0SEL
      000000C2H   SFRSYM    DATA     BYTE      ANACON2
      000000C1H   SFRSYM    DATA     BYTE      ANACON1
      000000EDH   SFRSYM    DATA     BYTE      P1MOD
      00000098H   SFRSYM    DATA     BYTE      SYSCON
      000000ADH   SFRSYM    DATA     BYTE      P1DIR
      000000EBH   SFRSYM    DATA     BYTE      P0MOD
      000000ACH   SFRSYM    DATA     BYTE      P0DIR
      00000094H   SFRSYM    DATA     BYTE      P1BUF
      00000080H   SFRSYM    DATA     BYTE      P0BUF
      000000E4H   SFRSYM    DATA     BYTE      TESTCON3
      000000E3H   SFRSYM    DATA     BYTE      TESTCON2
      000000E5H   SFRSYM    DATA     BYTE      IWKSTA
      0000009AH   SFRSYM    DATA     BYTE      WDTREL
      000000E2H   SFRSYM    DATA     BYTE      TESTCON1
      000000E1H   SFRSYM    DATA     BYTE      TESTCON0
      00000099H   SFRSYM    DATA     BYTE      WDTCON
      000000C0H   SFRSYM    DATA     BYTE      AIF
      000000E8H   SFRSYM    DATA     BYTE      AIE
      000000BDH   SFRSYM    DATA     BYTE      FT_EN_REG
      0000009EH   SFRSYM    DATA     BYTE      RTCCON
      000000FEH   SFRSYM    DATA     BYTE      LED_EN
      000000B9H   SFRSYM    DATA     BYTE      CNTCON
      000000D7H   SFRSYM    DATA     BYTE      MEMBIST_FAIL2
      000000D6H   SFRSYM    DATA     BYTE      MEMBIST_FAIL1
      000000D3H   SFRSYM    DATA     BYTE      MEMBIST_EN2
      000000D2H   SFRSYM    DATA     BYTE      MEMBIST_EN1
      0000009BH   SFRSYM    DATA     BYTE      TDIV
      000000EFH   SFRSYM    DATA     BYTE      XDP_STA
      00000088H   SFRSYM    DATA     BYTE      TCON
      00000089H   SFRSYM    DATA     BYTE      TMOD
      000000A7H   SFRSYM    DATA     BYTE      SPI0CON5
      000000B2H   SFRSYM    DATA     BYTE      SPI1CON4
      000000B1H   SFRSYM    DATA     BYTE      SPI1CON3
      000000A5H   SFRSYM    DATA     BYTE      SPI0CON3
L251 LINKER/LOCATER V4.65.0.0                                                         06/22/2017  19:19:11  PAGE 42


      000000B4H   SFRSYM    DATA     BYTE      SPI1CON2
      000000EAH   SFRSYM    DATA     BYTE      ANACON
      00000087H   SFRSYM    DATA     BYTE      PCON
      000000A3H   SFRSYM    DATA     BYTE      SPI0CON2
      000000DAH   SFRSYM    DATA     BYTE      DSV_CON
      000000F8H   SFRSYM    DATA     BYTE      AIPL
      00000095H   SFRSYM    DATA     BYTE      I2CSEL
      000000F5H   SFRSYM    DATA     BYTE      SSCG_CON0
      000000F7H   SFRSYM    DATA     BYTE      AIPH
      000000FDH   SFRSYM    DATA     BYTE      I2C_STATE
      00000090H   SFRSYM    DATA     BYTE      I2CCON
      000000A9H   SFRSYM    DATA     BYTE      UARTCON
      000000B8H   SFRSYM    DATA     BYTE      IPL0
      000000F3H   SFRSYM    DATA     BYTE      ANACON10
      000000B7H   SFRSYM    DATA     BYTE      IPH0
      000000DFH   SFRSYM    DATA     BYTE      IEN1
      000000A8H   SFRSYM    DATA     BYTE      IEN0
      00000093H   SFRSYM    DATA     BYTE      I2CSTOP
      000000B3H   SFRSYM    DATA     BYTE      SPI1CON
      000000A2H   SFRSYM    DATA     BYTE      SPI0CON

      ---         MODULE    ---      ---       Test_SFT_RST
      000000B6H   SFRSYM    DATA     BYTE      RTCCON1
      000000BFH   SFRSYM    DATA     BYTE      CGUCON8
      000000CEH   SFRSYM    DATA     BYTE      CGUCON6
      000000CDH   SFRSYM    DATA     BYTE      CGUCON5
      000000CCH   SFRSYM    DATA     BYTE      CGUCON4
      000000CBH   SFRSYM    DATA     BYTE      CGUCON3
      000000CAH   SFRSYM    DATA     BYTE      CGUCON2
      000000C8H   SFRSYM    DATA     BYTE      CGUCON1
      000000C9H   SFRSYM    DATA     BYTE      CGUCON0
      000000D9H   SFRSYM    DATA     BYTE      MEMBIST_ERRMAP2
      000000D8H   SFRSYM    DATA     BYTE      MEMBIST_ERRMAP1
      000000B0H   SFRSYM    DATA     BYTE      ANACON9
      000000A0H   SFRSYM    DATA     BYTE      ANACON8
      000000D5H   SFRSYM    DATA     BYTE      MEMBIST_FINISH2
      000000C7H   SFRSYM    DATA     BYTE      ANACON7
      000000D4H   SFRSYM    DATA     BYTE      MEMBIST_FINISH1
      000000E9H   SFRSYM    DATA     BYTE      SFTRST
      000000EEH   SFRSYM    DATA     BYTE      P1SEL
      000000C3H   SFRSYM    DATA     BYTE      ANACON3
      000000ECH   SFRSYM    DATA     BYTE      P0SEL
      000000C2H   SFRSYM    DATA     BYTE      ANACON2
      000000C1H   SFRSYM    DATA     BYTE      ANACON1
      000000EDH   SFRSYM    DATA     BYTE      P1MOD
      00000098H   SFRSYM    DATA     BYTE      SYSCON
      000000ADH   SFRSYM    DATA     BYTE      P1DIR
      000000EBH   SFRSYM    DATA     BYTE      P0MOD
      000000ACH   SFRSYM    DATA     BYTE      P0DIR
      00000094H   SFRSYM    DATA     BYTE      P1BUF
      00000080H   SFRSYM    DATA     BYTE      P0BUF
      000000E4H   SFRSYM    DATA     BYTE      TESTCON3
      000000E3H   SFRSYM    DATA     BYTE      TESTCON2
      000000E5H   SFRSYM    DATA     BYTE      IWKSTA
      0000009AH   SFRSYM    DATA     BYTE      WDTREL
      000000E2H   SFRSYM    DATA     BYTE      TESTCON1
      000000E1H   SFRSYM    DATA     BYTE      TESTCON0
      00000099H   SFRSYM    DATA     BYTE      WDTCON
      000000C0H   SFRSYM    DATA     BYTE      AIF
      000000E8H   SFRSYM    DATA     BYTE      AIE
      000000BDH   SFRSYM    DATA     BYTE      FT_EN_REG
      0000009EH   SFRSYM    DATA     BYTE      RTCCON
      000000FEH   SFRSYM    DATA     BYTE      LED_EN
      000000B9H   SFRSYM    DATA     BYTE      CNTCON
      000000D7H   SFRSYM    DATA     BYTE      MEMBIST_FAIL2
L251 LINKER/LOCATER V4.65.0.0                                                         06/22/2017  19:19:11  PAGE 43


      000000D6H   SFRSYM    DATA     BYTE      MEMBIST_FAIL1
      000000D3H   SFRSYM    DATA     BYTE      MEMBIST_EN2
      000000D2H   SFRSYM    DATA     BYTE      MEMBIST_EN1
      0000009BH   SFRSYM    DATA     BYTE      TDIV
      000000EFH   SFRSYM    DATA     BYTE      XDP_STA
      00000088H   SFRSYM    DATA     BYTE      TCON
      00000089H   SFRSYM    DATA     BYTE      TMOD
      000000A7H   SFRSYM    DATA     BYTE      SPI0CON5
      000000B2H   SFRSYM    DATA     BYTE      SPI1CON4
      000000B1H   SFRSYM    DATA     BYTE      SPI1CON3
      000000A5H   SFRSYM    DATA     BYTE      SPI0CON3
      000000B4H   SFRSYM    DATA     BYTE      SPI1CON2
      000000EAH   SFRSYM    DATA     BYTE      ANACON
      00000087H   SFRSYM    DATA     BYTE      PCON
      000000A3H   SFRSYM    DATA     BYTE      SPI0CON2
      000000DAH   SFRSYM    DATA     BYTE      DSV_CON
      000000F8H   SFRSYM    DATA     BYTE      AIPL
      00000095H   SFRSYM    DATA     BYTE      I2CSEL
      000000F5H   SFRSYM    DATA     BYTE      SSCG_CON0
      000000F7H   SFRSYM    DATA     BYTE      AIPH
      000000FDH   SFRSYM    DATA     BYTE      I2C_STATE
      00000090H   SFRSYM    DATA     BYTE      I2CCON
      000000A9H   SFRSYM    DATA     BYTE      UARTCON
      000000B8H   SFRSYM    DATA     BYTE      IPL0
      000000F3H   SFRSYM    DATA     BYTE      ANACON10
      000000B7H   SFRSYM    DATA     BYTE      IPH0
      000000DFH   SFRSYM    DATA     BYTE      IEN1
      000000A8H   SFRSYM    DATA     BYTE      IEN0
      00000093H   SFRSYM    DATA     BYTE      I2CSTOP
      000000B3H   SFRSYM    DATA     BYTE      SPI1CON
      000000A2H   SFRSYM    DATA     BYTE      SPI0CON

      ---         MODULE    ---      ---       Test_spi0
      000000B6H   SFRSYM    DATA     BYTE      RTCCON1
      000000BFH   SFRSYM    DATA     BYTE      CGUCON8
      000000CEH   SFRSYM    DATA     BYTE      CGUCON6
      000000CDH   SFRSYM    DATA     BYTE      CGUCON5
      000000CCH   SFRSYM    DATA     BYTE      CGUCON4
      000000CBH   SFRSYM    DATA     BYTE      CGUCON3
      000000CAH   SFRSYM    DATA     BYTE      CGUCON2
      000000C8H   SFRSYM    DATA     BYTE      CGUCON1
      000000C9H   SFRSYM    DATA     BYTE      CGUCON0
      000000D9H   SFRSYM    DATA     BYTE      MEMBIST_ERRMAP2
      000000D8H   SFRSYM    DATA     BYTE      MEMBIST_ERRMAP1
      000000B0H   SFRSYM    DATA     BYTE      ANACON9
      000000A0H   SFRSYM    DATA     BYTE      ANACON8
      000000D5H   SFRSYM    DATA     BYTE      MEMBIST_FINISH2
      000000C7H   SFRSYM    DATA     BYTE      ANACON7
      000000D4H   SFRSYM    DATA     BYTE      MEMBIST_FINISH1
      000000E9H   SFRSYM    DATA     BYTE      SFTRST
      000000EEH   SFRSYM    DATA     BYTE      P1SEL
      000000C3H   SFRSYM    DATA     BYTE      ANACON3
      000000ECH   SFRSYM    DATA     BYTE      P0SEL
      000000C2H   SFRSYM    DATA     BYTE      ANACON2
      000000C1H   SFRSYM    DATA     BYTE      ANACON1
      000000EDH   SFRSYM    DATA     BYTE      P1MOD
      00000098H   SFRSYM    DATA     BYTE      SYSCON
      000000ADH   SFRSYM    DATA     BYTE      P1DIR
      000000EBH   SFRSYM    DATA     BYTE      P0MOD
      000000ACH   SFRSYM    DATA     BYTE      P0DIR
      00000094H   SFRSYM    DATA     BYTE      P1BUF
      00000080H   SFRSYM    DATA     BYTE      P0BUF
      000000E4H   SFRSYM    DATA     BYTE      TESTCON3
      000000E3H   SFRSYM    DATA     BYTE      TESTCON2
      000000E5H   SFRSYM    DATA     BYTE      IWKSTA
L251 LINKER/LOCATER V4.65.0.0                                                         06/22/2017  19:19:11  PAGE 44


      0000009AH   SFRSYM    DATA     BYTE      WDTREL
      000000E2H   SFRSYM    DATA     BYTE      TESTCON1
      000000E1H   SFRSYM    DATA     BYTE      TESTCON0
      00000099H   SFRSYM    DATA     BYTE      WDTCON
      000000C0H   SFRSYM    DATA     BYTE      AIF
      000000E8H   SFRSYM    DATA     BYTE      AIE
      000000BDH   SFRSYM    DATA     BYTE      FT_EN_REG
      0000009EH   SFRSYM    DATA     BYTE      RTCCON
      000000FEH   SFRSYM    DATA     BYTE      LED_EN
      000000B9H   SFRSYM    DATA     BYTE      CNTCON
      000000D7H   SFRSYM    DATA     BYTE      MEMBIST_FAIL2
      000000D6H   SFRSYM    DATA     BYTE      MEMBIST_FAIL1
      000000D3H   SFRSYM    DATA     BYTE      MEMBIST_EN2
      000000D2H   SFRSYM    DATA     BYTE      MEMBIST_EN1
      0000009BH   SFRSYM    DATA     BYTE      TDIV
      000000EFH   SFRSYM    DATA     BYTE      XDP_STA
      00000088H   SFRSYM    DATA     BYTE      TCON
      00000089H   SFRSYM    DATA     BYTE      TMOD
      000000A7H   SFRSYM    DATA     BYTE      SPI0CON5
      000000B2H   SFRSYM    DATA     BYTE      SPI1CON4
      000000B1H   SFRSYM    DATA     BYTE      SPI1CON3
      000000A5H   SFRSYM    DATA     BYTE      SPI0CON3
      000000B4H   SFRSYM    DATA     BYTE      SPI1CON2
      000000EAH   SFRSYM    DATA     BYTE      ANACON
      00000087H   SFRSYM    DATA     BYTE      PCON
      000000A3H   SFRSYM    DATA     BYTE      SPI0CON2
      000000DAH   SFRSYM    DATA     BYTE      DSV_CON
      000000F8H   SFRSYM    DATA     BYTE      AIPL
      00000095H   SFRSYM    DATA     BYTE      I2CSEL
      000000F5H   SFRSYM    DATA     BYTE      SSCG_CON0
      000000F7H   SFRSYM    DATA     BYTE      AIPH
      000000FDH   SFRSYM    DATA     BYTE      I2C_STATE
      00000090H   SFRSYM    DATA     BYTE      I2CCON
      000000A9H   SFRSYM    DATA     BYTE      UARTCON
      000000B8H   SFRSYM    DATA     BYTE      IPL0
      000000F3H   SFRSYM    DATA     BYTE      ANACON10
      000000B7H   SFRSYM    DATA     BYTE      IPH0
      000000DFH   SFRSYM    DATA     BYTE      IEN1
      000000A8H   SFRSYM    DATA     BYTE      IEN0
      00000093H   SFRSYM    DATA     BYTE      I2CSTOP
      000000B3H   SFRSYM    DATA     BYTE      SPI1CON
      000000A2H   SFRSYM    DATA     BYTE      SPI0CON

      ---         MODULE    ---      ---       Test_spi0_dma
      000000B6H   SFRSYM    DATA     BYTE      RTCCON1
      000000BFH   SFRSYM    DATA     BYTE      CGUCON8
      000000CEH   SFRSYM    DATA     BYTE      CGUCON6
      000000CDH   SFRSYM    DATA     BYTE      CGUCON5
      000000CCH   SFRSYM    DATA     BYTE      CGUCON4
      000000CBH   SFRSYM    DATA     BYTE      CGUCON3
      000000CAH   SFRSYM    DATA     BYTE      CGUCON2
      000000C8H   SFRSYM    DATA     BYTE      CGUCON1
      000000C9H   SFRSYM    DATA     BYTE      CGUCON0
      000000D9H   SFRSYM    DATA     BYTE      MEMBIST_ERRMAP2
      000000D8H   SFRSYM    DATA     BYTE      MEMBIST_ERRMAP1
      000000B0H   SFRSYM    DATA     BYTE      ANACON9
      000000A0H   SFRSYM    DATA     BYTE      ANACON8
      000000D5H   SFRSYM    DATA     BYTE      MEMBIST_FINISH2
      000000C7H   SFRSYM    DATA     BYTE      ANACON7
      000000D4H   SFRSYM    DATA     BYTE      MEMBIST_FINISH1
      000000E9H   SFRSYM    DATA     BYTE      SFTRST
      000000EEH   SFRSYM    DATA     BYTE      P1SEL
      000000C3H   SFRSYM    DATA     BYTE      ANACON3
      000000ECH   SFRSYM    DATA     BYTE      P0SEL
      000000C2H   SFRSYM    DATA     BYTE      ANACON2
L251 LINKER/LOCATER V4.65.0.0                                                         06/22/2017  19:19:11  PAGE 45


      000000C1H   SFRSYM    DATA     BYTE      ANACON1
      000000EDH   SFRSYM    DATA     BYTE      P1MOD
      00000098H   SFRSYM    DATA     BYTE      SYSCON
      000000ADH   SFRSYM    DATA     BYTE      P1DIR
      000000EBH   SFRSYM    DATA     BYTE      P0MOD
      000000ACH   SFRSYM    DATA     BYTE      P0DIR
      00000094H   SFRSYM    DATA     BYTE      P1BUF
      00000080H   SFRSYM    DATA     BYTE      P0BUF
      000000E4H   SFRSYM    DATA     BYTE      TESTCON3
      000000E3H   SFRSYM    DATA     BYTE      TESTCON2
      000000E5H   SFRSYM    DATA     BYTE      IWKSTA
      0000009AH   SFRSYM    DATA     BYTE      WDTREL
      000000E2H   SFRSYM    DATA     BYTE      TESTCON1
      000000E1H   SFRSYM    DATA     BYTE      TESTCON0
      00000099H   SFRSYM    DATA     BYTE      WDTCON
      000000C0H   SFRSYM    DATA     BYTE      AIF
      000000E8H   SFRSYM    DATA     BYTE      AIE
      000000BDH   SFRSYM    DATA     BYTE      FT_EN_REG
      0000009EH   SFRSYM    DATA     BYTE      RTCCON
      000000FEH   SFRSYM    DATA     BYTE      LED_EN
      000000B9H   SFRSYM    DATA     BYTE      CNTCON
      000000D7H   SFRSYM    DATA     BYTE      MEMBIST_FAIL2
      000000D6H   SFRSYM    DATA     BYTE      MEMBIST_FAIL1
      000000D3H   SFRSYM    DATA     BYTE      MEMBIST_EN2
      000000D2H   SFRSYM    DATA     BYTE      MEMBIST_EN1
      0000009BH   SFRSYM    DATA     BYTE      TDIV
      000000EFH   SFRSYM    DATA     BYTE      XDP_STA
      00000088H   SFRSYM    DATA     BYTE      TCON
      00000089H   SFRSYM    DATA     BYTE      TMOD
      000000A7H   SFRSYM    DATA     BYTE      SPI0CON5
      000000B2H   SFRSYM    DATA     BYTE      SPI1CON4
      000000B1H   SFRSYM    DATA     BYTE      SPI1CON3
      000000A5H   SFRSYM    DATA     BYTE      SPI0CON3
      000000B4H   SFRSYM    DATA     BYTE      SPI1CON2
      000000EAH   SFRSYM    DATA     BYTE      ANACON
      00000087H   SFRSYM    DATA     BYTE      PCON
      000000A3H   SFRSYM    DATA     BYTE      SPI0CON2
      000000DAH   SFRSYM    DATA     BYTE      DSV_CON
      000000F8H   SFRSYM    DATA     BYTE      AIPL
      00000095H   SFRSYM    DATA     BYTE      I2CSEL
      000000F5H   SFRSYM    DATA     BYTE      SSCG_CON0
      000000F7H   SFRSYM    DATA     BYTE      AIPH
      000000FDH   SFRSYM    DATA     BYTE      I2C_STATE
      00000090H   SFRSYM    DATA     BYTE      I2CCON
      000000A9H   SFRSYM    DATA     BYTE      UARTCON
      000000B8H   SFRSYM    DATA     BYTE      IPL0
      000000F3H   SFRSYM    DATA     BYTE      ANACON10
      000000B7H   SFRSYM    DATA     BYTE      IPH0
      000000DFH   SFRSYM    DATA     BYTE      IEN1
      000000A8H   SFRSYM    DATA     BYTE      IEN0
      00000093H   SFRSYM    DATA     BYTE      I2CSTOP
      000000B3H   SFRSYM    DATA     BYTE      SPI1CON
      000000A2H   SFRSYM    DATA     BYTE      SPI0CON

      ---         MODULE    ---      ---       Test_spi0_wakeup
      000000B6H   SFRSYM    DATA     BYTE      RTCCON1
      000000BFH   SFRSYM    DATA     BYTE      CGUCON8
      000000CEH   SFRSYM    DATA     BYTE      CGUCON6
      000000CDH   SFRSYM    DATA     BYTE      CGUCON5
      000000CCH   SFRSYM    DATA     BYTE      CGUCON4
      000000CBH   SFRSYM    DATA     BYTE      CGUCON3
      000000CAH   SFRSYM    DATA     BYTE      CGUCON2
      000000C8H   SFRSYM    DATA     BYTE      CGUCON1
      000000C9H   SFRSYM    DATA     BYTE      CGUCON0
      000000D9H   SFRSYM    DATA     BYTE      MEMBIST_ERRMAP2
L251 LINKER/LOCATER V4.65.0.0                                                         06/22/2017  19:19:11  PAGE 46


      000000D8H   SFRSYM    DATA     BYTE      MEMBIST_ERRMAP1
      000000B0H   SFRSYM    DATA     BYTE      ANACON9
      000000A0H   SFRSYM    DATA     BYTE      ANACON8
      000000D5H   SFRSYM    DATA     BYTE      MEMBIST_FINISH2
      000000C7H   SFRSYM    DATA     BYTE      ANACON7
      000000D4H   SFRSYM    DATA     BYTE      MEMBIST_FINISH1
      000000E9H   SFRSYM    DATA     BYTE      SFTRST
      000000EEH   SFRSYM    DATA     BYTE      P1SEL
      000000C3H   SFRSYM    DATA     BYTE      ANACON3
      000000ECH   SFRSYM    DATA     BYTE      P0SEL
      000000C2H   SFRSYM    DATA     BYTE      ANACON2
      000000C1H   SFRSYM    DATA     BYTE      ANACON1
      000000EDH   SFRSYM    DATA     BYTE      P1MOD
      00000098H   SFRSYM    DATA     BYTE      SYSCON
      000000ADH   SFRSYM    DATA     BYTE      P1DIR
      000000EBH   SFRSYM    DATA     BYTE      P0MOD
      000000ACH   SFRSYM    DATA     BYTE      P0DIR
      00000094H   SFRSYM    DATA     BYTE      P1BUF
      00000080H   SFRSYM    DATA     BYTE      P0BUF
      000000E4H   SFRSYM    DATA     BYTE      TESTCON3
      000000E3H   SFRSYM    DATA     BYTE      TESTCON2
      000000E5H   SFRSYM    DATA     BYTE      IWKSTA
      0000009AH   SFRSYM    DATA     BYTE      WDTREL
      000000E2H   SFRSYM    DATA     BYTE      TESTCON1
      000000E1H   SFRSYM    DATA     BYTE      TESTCON0
      00000099H   SFRSYM    DATA     BYTE      WDTCON
      000000C0H   SFRSYM    DATA     BYTE      AIF
      000000E8H   SFRSYM    DATA     BYTE      AIE
      000000BDH   SFRSYM    DATA     BYTE      FT_EN_REG
      0000009EH   SFRSYM    DATA     BYTE      RTCCON
      000000FEH   SFRSYM    DATA     BYTE      LED_EN
      000000B9H   SFRSYM    DATA     BYTE      CNTCON
      000000D7H   SFRSYM    DATA     BYTE      MEMBIST_FAIL2
      000000D6H   SFRSYM    DATA     BYTE      MEMBIST_FAIL1
      000000D3H   SFRSYM    DATA     BYTE      MEMBIST_EN2
      000000D2H   SFRSYM    DATA     BYTE      MEMBIST_EN1
      0000009BH   SFRSYM    DATA     BYTE      TDIV
      000000EFH   SFRSYM    DATA     BYTE      XDP_STA
      00000088H   SFRSYM    DATA     BYTE      TCON
      00000089H   SFRSYM    DATA     BYTE      TMOD
      000000A7H   SFRSYM    DATA     BYTE      SPI0CON5
      000000B2H   SFRSYM    DATA     BYTE      SPI1CON4
      000000B1H   SFRSYM    DATA     BYTE      SPI1CON3
      000000A5H   SFRSYM    DATA     BYTE      SPI0CON3
      000000B4H   SFRSYM    DATA     BYTE      SPI1CON2
      000000EAH   SFRSYM    DATA     BYTE      ANACON
      00000087H   SFRSYM    DATA     BYTE      PCON
      000000A3H   SFRSYM    DATA     BYTE      SPI0CON2
      000000DAH   SFRSYM    DATA     BYTE      DSV_CON
      000000F8H   SFRSYM    DATA     BYTE      AIPL
      00000095H   SFRSYM    DATA     BYTE      I2CSEL
      000000F5H   SFRSYM    DATA     BYTE      SSCG_CON0
      000000F7H   SFRSYM    DATA     BYTE      AIPH
      000000FDH   SFRSYM    DATA     BYTE      I2C_STATE
      00000090H   SFRSYM    DATA     BYTE      I2CCON
      000000A9H   SFRSYM    DATA     BYTE      UARTCON
      000000B8H   SFRSYM    DATA     BYTE      IPL0
      000000F3H   SFRSYM    DATA     BYTE      ANACON10
      000000B7H   SFRSYM    DATA     BYTE      IPH0
      000000DFH   SFRSYM    DATA     BYTE      IEN1
      000000A8H   SFRSYM    DATA     BYTE      IEN0
      00000093H   SFRSYM    DATA     BYTE      I2CSTOP
      000000B3H   SFRSYM    DATA     BYTE      SPI1CON
      000000A2H   SFRSYM    DATA     BYTE      SPI0CON

L251 LINKER/LOCATER V4.65.0.0                                                         06/22/2017  19:19:11  PAGE 47


      ---         MODULE    ---      ---       Test_DebugOut
      00FEF795H   PUBLIC    ECODE    ---       Test_CON0?
      00FEF79DH   PUBLIC    ECODE    ---       Test_CON1?
      00FEF7A5H   PUBLIC    ECODE    ---       Test_CON2?
      00FEF7BBH   PUBLIC    ECODE    ---       Test_CON3?
      00FEF7C6H   PUBLIC    ECODE    ---       Test_DebugOut?
      00FEF6B8H   PUBLIC    ECODE    ---       Test_CLk32K?
      00FEF617H   PUBLIC    ECODE    ---       Test_CLk48M?
      000000DAH.6 SFRSYM    DATA     BIT       UART_INH
      000000B6H   SFRSYM    DATA     BYTE      RTCCON1
      000000BFH   SFRSYM    DATA     BYTE      CGUCON8
      000000CFH   SFRSYM    DATA     BYTE      CGUCON7
      000000CEH   SFRSYM    DATA     BYTE      CGUCON6
      000000CDH   SFRSYM    DATA     BYTE      CGUCON5
      000000CCH   SFRSYM    DATA     BYTE      CGUCON4
      000000CBH   SFRSYM    DATA     BYTE      CGUCON3
      000000CAH   SFRSYM    DATA     BYTE      CGUCON2
      000000C8H   SFRSYM    DATA     BYTE      CGUCON1
      000000C9H   SFRSYM    DATA     BYTE      CGUCON0
      000000D9H   SFRSYM    DATA     BYTE      MEMBIST_ERRMAP2
      000000BDH.2 SFRSYM    DATA     BIT       TEST_CLK_EN
      000000D8H   SFRSYM    DATA     BYTE      MEMBIST_ERRMAP1
      000000B0H   SFRSYM    DATA     BYTE      ANACON9
      000000A0H   SFRSYM    DATA     BYTE      ANACON8
      000000D5H   SFRSYM    DATA     BYTE      MEMBIST_FINISH2
      000000C7H   SFRSYM    DATA     BYTE      ANACON7
      000000D4H   SFRSYM    DATA     BYTE      MEMBIST_FINISH1
      000000E9H   SFRSYM    DATA     BYTE      SFTRST
      000000EEH   SFRSYM    DATA     BYTE      P1SEL
      000000C3H   SFRSYM    DATA     BYTE      ANACON3
      000000ECH   SFRSYM    DATA     BYTE      P0SEL
      000000C2H   SFRSYM    DATA     BYTE      ANACON2
      000000C1H   SFRSYM    DATA     BYTE      ANACON1
      000000EDH   SFRSYM    DATA     BYTE      P1MOD
      00000098H   SFRSYM    DATA     BYTE      SYSCON
      000000ADH   SFRSYM    DATA     BYTE      P1DIR
      000000EBH   SFRSYM    DATA     BYTE      P0MOD
      000000ACH   SFRSYM    DATA     BYTE      P0DIR
      00000094H   SFRSYM    DATA     BYTE      P1BUF
      00000080H   SFRSYM    DATA     BYTE      P0BUF
      000000E4H   SFRSYM    DATA     BYTE      TESTCON3
      000000E3H   SFRSYM    DATA     BYTE      TESTCON2
      000000E5H   SFRSYM    DATA     BYTE      IWKSTA
      0000009AH   SFRSYM    DATA     BYTE      WDTREL
      000000E2H   SFRSYM    DATA     BYTE      TESTCON1
      000000C9H.2 SFRSYM    DATA     BIT       PROBE32K_DIG_EN
      000000E1H   SFRSYM    DATA     BYTE      TESTCON0
      00000099H   SFRSYM    DATA     BYTE      WDTCON
      000000C0H   SFRSYM    DATA     BYTE      AIF
      000000E8H   SFRSYM    DATA     BYTE      AIE
      000000BDH   SFRSYM    DATA     BYTE      FT_EN_REG
      0000009EH   SFRSYM    DATA     BYTE      RTCCON
      000000FEH   SFRSYM    DATA     BYTE      LED_EN
      000000B9H   SFRSYM    DATA     BYTE      CNTCON
      000000D7H   SFRSYM    DATA     BYTE      MEMBIST_FAIL2
      000000D6H   SFRSYM    DATA     BYTE      MEMBIST_FAIL1
      000000EAH   SFRSYM    DATA     BIT       GPIO_INT_SEL
      000000E4H.7 SFRSYM    DATA     BIT       TEST_OUT3_EN
      000000E3H.7 SFRSYM    DATA     BIT       TEST_OUT2_EN
      000000E2H.7 SFRSYM    DATA     BIT       TEST_OUT1_EN
      000000DAH.2 SFRSYM    DATA     BIT       SPI_REPLACE_EN
      000000E1H.7 SFRSYM    DATA     BIT       TEST_OUT0_EN
      000000BFH.7 SFRSYM    DATA     BIT       SEL_32K_SRC
      000000D3H   SFRSYM    DATA     BYTE      MEMBIST_EN2
      000000D2H   SFRSYM    DATA     BYTE      MEMBIST_EN1
L251 LINKER/LOCATER V4.65.0.0                                                         06/22/2017  19:19:11  PAGE 48


      0000009BH   SFRSYM    DATA     BYTE      TDIV
      000000EFH   SFRSYM    DATA     BYTE      XDP_STA
      00000088H   SFRSYM    DATA     BYTE      TCON
      00000089H   SFRSYM    DATA     BYTE      TMOD
      000000A7H   SFRSYM    DATA     BYTE      SPI0CON5
      000000B2H   SFRSYM    DATA     BYTE      SPI1CON4
      000000C9H   SFRSYM    DATA     BIT       PROBE32K_FROM1M_EN
      000000B1H   SFRSYM    DATA     BYTE      SPI1CON3
      000000A5H   SFRSYM    DATA     BYTE      SPI0CON3
      000000B4H   SFRSYM    DATA     BYTE      SPI1CON2
      000000EAH   SFRSYM    DATA     BYTE      ANACON
      00000087H   SFRSYM    DATA     BYTE      PCON
      000000A3H   SFRSYM    DATA     BYTE      SPI0CON2
      00000098H.5 SFRSYM    DATA     BIT       BUS_SEL
      000000DAH   SFRSYM    DATA     BYTE      DSV_CON
      000000F8H   SFRSYM    DATA     BYTE      AIPL
      00000095H   SFRSYM    DATA     BYTE      I2CSEL
      000000F5H   SFRSYM    DATA     BYTE      SSCG_CON0
      000000F7H   SFRSYM    DATA     BYTE      AIPH
      000000FDH   SFRSYM    DATA     BYTE      I2C_STATE
      00000090H   SFRSYM    DATA     BYTE      I2CCON
      000000A9H   SFRSYM    DATA     BYTE      UARTCON
      000000B8H   SFRSYM    DATA     BYTE      IPL0
      000000F3H   SFRSYM    DATA     BYTE      ANACON10
      000000B7H   SFRSYM    DATA     BYTE      IPH0
      000000DFH   SFRSYM    DATA     BYTE      IEN1
      000000A8H   SFRSYM    DATA     BYTE      IEN0
      00000093H   SFRSYM    DATA     BYTE      I2CSTOP
      000000DAH.5 SFRSYM    DATA     BIT       UART_INL
      000000B3H   SFRSYM    DATA     BYTE      SPI1CON
      000000A2H   SFRSYM    DATA     BYTE      SPI0CON

      00FEF617H   BLOCK     ECODE    ---       LVL=0
      00FEF619H   BLOCK     ECODE    NEAR LAB  LVL=1
      R15         REGSYM    ---      BYTE      ucDiv
      ---         BLOCKEND  ---      ---       LVL=1
      00FEF617H   LINE      ECODE    ---       #152
      00FEF619H   LINE      ECODE    ---       #153
      00FEF619H   LINE      ECODE    ---       #154
      00FEF61CH   LINE      ECODE    ---       #160
      00FEF624H   LINE      ECODE    ---       #162
      00FEF630H   LINE      ECODE    ---       #163
      00FEF633H   LINE      ECODE    ---       #164
      00FEF636H   LINE      ECODE    ---       #165
      00FEF636H   LINE      ECODE    ---       #166
      00FEF639H   LINE      ECODE    ---       #167
      00FEF63CH   LINE      ECODE    ---       #168
      00FEF63FH   LINE      ECODE    ---       #169
      00FEF642H   LINE      ECODE    ---       #171
      00FEF645H   LINE      ECODE    ---       #173
      00FEF659H   LINE      ECODE    ---       #174
      00FEF66DH   LINE      ECODE    ---       #175
      00FEF681H   LINE      ECODE    ---       #176
      00FEF695H   LINE      ECODE    ---       #177
      00FEF6A9H   LINE      ECODE    ---       #178
      00FEF6B5H   LINE      ECODE    ---       #179
      ---         BLOCKEND  ---      ---       LVL=0

      00FEF6B8H   BLOCK     ECODE    ---       LVL=0
      00FEF6BAH   BLOCK     ECODE    NEAR LAB  LVL=1
      R15         REGSYM    ---      BYTE      ucDiv
      R14         REGSYM    ---      BYTE      ucSrc
      ---         BLOCKEND  ---      ---       LVL=1
      00FEF6B8H   LINE      ECODE    ---       #188
      00FEF6BAH   LINE      ECODE    ---       #189
L251 LINKER/LOCATER V4.65.0.0                                                         06/22/2017  19:19:11  PAGE 49


      00FEF6BAH   LINE      ECODE    ---       #190
      00FEF6BCH   LINE      ECODE    ---       #191
      00FEF6BFH   LINE      ECODE    ---       #198
      00FEF6C7H   LINE      ECODE    ---       #200
      00FEF6D3H   LINE      ECODE    ---       #201
      00FEF6D6H   LINE      ECODE    ---       #202
      00FEF6D9H   LINE      ECODE    ---       #203
      00FEF6D9H   LINE      ECODE    ---       #205
      00FEF6DCH   LINE      ECODE    ---       #206
      00FEF6DFH   LINE      ECODE    ---       #207
      00FEF6E2H   LINE      ECODE    ---       #208
      00FEF6E5H   LINE      ECODE    ---       #210
      00FEF6EAH   LINE      ECODE    ---       #212
      00FEF6EDH   LINE      ECODE    ---       #213
      00FEF6EFH   LINE      ECODE    ---       #214
      00FEF6F4H   LINE      ECODE    ---       #216
      00FEF6F7H   LINE      ECODE    ---       #217
      00FEF6F9H   LINE      ECODE    ---       #218
      00FEF6FEH   LINE      ECODE    ---       #220
      00FEF701H   LINE      ECODE    ---       #221
      00FEF704H   LINE      ECODE    ---       #222
      00FEF704H   LINE      ECODE    ---       #224
      00FEF70EH   LINE      ECODE    ---       #226
      00FEF722H   LINE      ECODE    ---       #227
      00FEF736H   LINE      ECODE    ---       #228
      00FEF74AH   LINE      ECODE    ---       #229
      00FEF75EH   LINE      ECODE    ---       #230
      00FEF772H   LINE      ECODE    ---       #231
      00FEF786H   LINE      ECODE    ---       #232
      00FEF792H   LINE      ECODE    ---       #233
      ---         BLOCKEND  ---      ---       LVL=0

      00FEF795H   BLOCK     ECODE    ---       LVL=0
      WR6         REGSYM    ---      INT       ucSignal
      00FEF795H   LINE      ECODE    ---       #242
      00FEF795H   LINE      ECODE    ---       #244
      00FEF798H   LINE      ECODE    ---       #246
      00FEF79CH   LINE      ECODE    ---       #247
      ---         BLOCKEND  ---      ---       LVL=0

      00FEF79DH   BLOCK     ECODE    ---       LVL=0
      WR6         REGSYM    ---      INT       ucSignal
      00FEF79DH   LINE      ECODE    ---       #256
      00FEF79DH   LINE      ECODE    ---       #258
      00FEF7A0H   LINE      ECODE    ---       #260
      00FEF7A4H   LINE      ECODE    ---       #261
      ---         BLOCKEND  ---      ---       LVL=0

      00FEF7A5H   BLOCK     ECODE    ---       LVL=0
      WR6         REGSYM    ---      INT       ucSignal
      00FEF7A5H   LINE      ECODE    ---       #270
      00FEF7A5H   LINE      ECODE    ---       #272
      00FEF7A8H   LINE      ECODE    ---       #274
      00FEF7ABH   LINE      ECODE    ---       #275
      00FEF7ADH   LINE      ECODE    ---       #278
      00FEF7B0H   LINE      ECODE    ---       #279
      00FEF7B3H   LINE      ECODE    ---       #280
      00FEF7B3H   LINE      ECODE    ---       #282
      00FEF7B6H   LINE      ECODE    ---       #284
      00FEF7BAH   LINE      ECODE    ---       #285
      ---         BLOCKEND  ---      ---       LVL=0

      00FEF7BBH   BLOCK     ECODE    ---       LVL=0
      WR6         REGSYM    ---      INT       ucSignal
      00FEF7BBH   LINE      ECODE    ---       #294
L251 LINKER/LOCATER V4.65.0.0                                                         06/22/2017  19:19:11  PAGE 50


      00FEF7BBH   LINE      ECODE    ---       #297
      00FEF7BEH   LINE      ECODE    ---       #299
      00FEF7C1H   LINE      ECODE    ---       #301
      00FEF7C5H   LINE      ECODE    ---       #302
      ---         BLOCKEND  ---      ---       LVL=0

      00FEF7C6H   BLOCK     ECODE    ---       LVL=0
      00FEF7C6H   LINE      ECODE    ---       #312
      00FEF7C6H   LINE      ECODE    ---       #322
      00FEF7CEH   LINE      ECODE    ---       #324
      00FEF7D6H   LINE      ECODE    ---       #331
      ---         BLOCKEND  ---      ---       LVL=0

      ---         MODULE    ---      ---       Test_Reset
      000000B6H   SFRSYM    DATA     BYTE      RTCCON1
      000000BFH   SFRSYM    DATA     BYTE      CGUCON8
      000000CEH   SFRSYM    DATA     BYTE      CGUCON6
      000000CDH   SFRSYM    DATA     BYTE      CGUCON5
      000000CCH   SFRSYM    DATA     BYTE      CGUCON4
      000000CBH   SFRSYM    DATA     BYTE      CGUCON3
      000000CAH   SFRSYM    DATA     BYTE      CGUCON2
      000000C8H   SFRSYM    DATA     BYTE      CGUCON1
      000000C9H   SFRSYM    DATA     BYTE      CGUCON0
      000000D9H   SFRSYM    DATA     BYTE      MEMBIST_ERRMAP2
      000000D8H   SFRSYM    DATA     BYTE      MEMBIST_ERRMAP1
      000000B0H   SFRSYM    DATA     BYTE      ANACON9
      000000A0H   SFRSYM    DATA     BYTE      ANACON8
      000000D5H   SFRSYM    DATA     BYTE      MEMBIST_FINISH2
      000000C7H   SFRSYM    DATA     BYTE      ANACON7
      000000D4H   SFRSYM    DATA     BYTE      MEMBIST_FINISH1
      000000E9H   SFRSYM    DATA     BYTE      SFTRST
      000000EEH   SFRSYM    DATA     BYTE      P1SEL
      000000C3H   SFRSYM    DATA     BYTE      ANACON3
      000000ECH   SFRSYM    DATA     BYTE      P0SEL
      000000C2H   SFRSYM    DATA     BYTE      ANACON2
      000000C1H   SFRSYM    DATA     BYTE      ANACON1
      000000EDH   SFRSYM    DATA     BYTE      P1MOD
      00000098H   SFRSYM    DATA     BYTE      SYSCON
      000000ADH   SFRSYM    DATA     BYTE      P1DIR
      000000EBH   SFRSYM    DATA     BYTE      P0MOD
      000000ACH   SFRSYM    DATA     BYTE      P0DIR
      00000094H   SFRSYM    DATA     BYTE      P1BUF
      00000080H   SFRSYM    DATA     BYTE      P0BUF
      000000E4H   SFRSYM    DATA     BYTE      TESTCON3
      000000E3H   SFRSYM    DATA     BYTE      TESTCON2
      000000E5H   SFRSYM    DATA     BYTE      IWKSTA
      0000009AH   SFRSYM    DATA     BYTE      WDTREL
      000000E2H   SFRSYM    DATA     BYTE      TESTCON1
      000000E1H   SFRSYM    DATA     BYTE      TESTCON0
      00000099H   SFRSYM    DATA     BYTE      WDTCON
      000000C0H   SFRSYM    DATA     BYTE      AIF
      000000E8H   SFRSYM    DATA     BYTE      AIE
      000000BDH   SFRSYM    DATA     BYTE      FT_EN_REG
      0000009EH   SFRSYM    DATA     BYTE      RTCCON
      000000FEH   SFRSYM    DATA     BYTE      LED_EN
      000000B9H   SFRSYM    DATA     BYTE      CNTCON
      000000D7H   SFRSYM    DATA     BYTE      MEMBIST_FAIL2
      000000D6H   SFRSYM    DATA     BYTE      MEMBIST_FAIL1
      000000D3H   SFRSYM    DATA     BYTE      MEMBIST_EN2
      000000D2H   SFRSYM    DATA     BYTE      MEMBIST_EN1
      0000009BH   SFRSYM    DATA     BYTE      TDIV
      000000EFH   SFRSYM    DATA     BYTE      XDP_STA
      00000088H   SFRSYM    DATA     BYTE      TCON
      00000089H   SFRSYM    DATA     BYTE      TMOD
      000000A7H   SFRSYM    DATA     BYTE      SPI0CON5
L251 LINKER/LOCATER V4.65.0.0                                                         06/22/2017  19:19:11  PAGE 51


      000000B2H   SFRSYM    DATA     BYTE      SPI1CON4
      000000B1H   SFRSYM    DATA     BYTE      SPI1CON3
      000000A5H   SFRSYM    DATA     BYTE      SPI0CON3
      000000B4H   SFRSYM    DATA     BYTE      SPI1CON2
      000000EAH   SFRSYM    DATA     BYTE      ANACON
      00000087H   SFRSYM    DATA     BYTE      PCON
      000000A3H   SFRSYM    DATA     BYTE      SPI0CON2
      000000DAH   SFRSYM    DATA     BYTE      DSV_CON
      000000F8H   SFRSYM    DATA     BYTE      AIPL
      00000095H   SFRSYM    DATA     BYTE      I2CSEL
      000000F5H   SFRSYM    DATA     BYTE      SSCG_CON0
      000000F7H   SFRSYM    DATA     BYTE      AIPH
      000000FDH   SFRSYM    DATA     BYTE      I2C_STATE
      00000090H   SFRSYM    DATA     BYTE      I2CCON
      000000A9H   SFRSYM    DATA     BYTE      UARTCON
      000000B8H   SFRSYM    DATA     BYTE      IPL0
      000000F3H   SFRSYM    DATA     BYTE      ANACON10
      000000B7H   SFRSYM    DATA     BYTE      IPH0
      000000DFH   SFRSYM    DATA     BYTE      IEN1
      000000A8H   SFRSYM    DATA     BYTE      IEN0
      00000093H   SFRSYM    DATA     BYTE      I2CSTOP
      000000B3H   SFRSYM    DATA     BYTE      SPI1CON
      000000A2H   SFRSYM    DATA     BYTE      SPI0CON

      ---         MODULE    ---      ---       Drv_Cal
      000000B6H   SFRSYM    DATA     BYTE      RTCCON1
      000000BFH   SFRSYM    DATA     BYTE      CGUCON8
      000000CEH   SFRSYM    DATA     BYTE      CGUCON6
      000000CDH   SFRSYM    DATA     BYTE      CGUCON5
      000000CCH   SFRSYM    DATA     BYTE      CGUCON4
      000000CBH   SFRSYM    DATA     BYTE      CGUCON3
      000000CAH   SFRSYM    DATA     BYTE      CGUCON2
      000000C8H   SFRSYM    DATA     BYTE      CGUCON1
      000000C9H   SFRSYM    DATA     BYTE      CGUCON0
      000000D9H   SFRSYM    DATA     BYTE      MEMBIST_ERRMAP2
      000000D8H   SFRSYM    DATA     BYTE      MEMBIST_ERRMAP1
      000000B0H   SFRSYM    DATA     BYTE      ANACON9
      000000A0H   SFRSYM    DATA     BYTE      ANACON8
      000000D5H   SFRSYM    DATA     BYTE      MEMBIST_FINISH2
      000000C7H   SFRSYM    DATA     BYTE      ANACON7
      000000D4H   SFRSYM    DATA     BYTE      MEMBIST_FINISH1
      000000E9H   SFRSYM    DATA     BYTE      SFTRST
      000000EEH   SFRSYM    DATA     BYTE      P1SEL
      000000C3H   SFRSYM    DATA     BYTE      ANACON3
      000000ECH   SFRSYM    DATA     BYTE      P0SEL
      000000C2H   SFRSYM    DATA     BYTE      ANACON2
      000000C1H   SFRSYM    DATA     BYTE      ANACON1
      000000EDH   SFRSYM    DATA     BYTE      P1MOD
      00000098H   SFRSYM    DATA     BYTE      SYSCON
      000000ADH   SFRSYM    DATA     BYTE      P1DIR
      000000EBH   SFRSYM    DATA     BYTE      P0MOD
      000000ACH   SFRSYM    DATA     BYTE      P0DIR
      00000094H   SFRSYM    DATA     BYTE      P1BUF
      00000080H   SFRSYM    DATA     BYTE      P0BUF
      000000E4H   SFRSYM    DATA     BYTE      TESTCON3
      000000E3H   SFRSYM    DATA     BYTE      TESTCON2
      000000E5H   SFRSYM    DATA     BYTE      IWKSTA
      0000009AH   SFRSYM    DATA     BYTE      WDTREL
      000000E2H   SFRSYM    DATA     BYTE      TESTCON1
      000000E1H   SFRSYM    DATA     BYTE      TESTCON0
      00000099H   SFRSYM    DATA     BYTE      WDTCON
      000000C0H   SFRSYM    DATA     BYTE      AIF
      000000E8H   SFRSYM    DATA     BYTE      AIE
      000000BDH   SFRSYM    DATA     BYTE      FT_EN_REG
      0000009EH   SFRSYM    DATA     BYTE      RTCCON
L251 LINKER/LOCATER V4.65.0.0                                                         06/22/2017  19:19:11  PAGE 52


      000000FEH   SFRSYM    DATA     BYTE      LED_EN
      000000B9H   SFRSYM    DATA     BYTE      CNTCON
      000000D7H   SFRSYM    DATA     BYTE      MEMBIST_FAIL2
      000000D6H   SFRSYM    DATA     BYTE      MEMBIST_FAIL1
      000000D3H   SFRSYM    DATA     BYTE      MEMBIST_EN2
      000000D2H   SFRSYM    DATA     BYTE      MEMBIST_EN1
      0000009BH   SFRSYM    DATA     BYTE      TDIV
      000000EFH   SFRSYM    DATA     BYTE      XDP_STA
      00000088H   SFRSYM    DATA     BYTE      TCON
      00000089H   SFRSYM    DATA     BYTE      TMOD
      000000A7H   SFRSYM    DATA     BYTE      SPI0CON5
      000000B2H   SFRSYM    DATA     BYTE      SPI1CON4
      000000B1H   SFRSYM    DATA     BYTE      SPI1CON3
      000000A5H   SFRSYM    DATA     BYTE      SPI0CON3
      000000B4H   SFRSYM    DATA     BYTE      SPI1CON2
      000000EAH   SFRSYM    DATA     BYTE      ANACON
      00000087H   SFRSYM    DATA     BYTE      PCON
      000000A3H   SFRSYM    DATA     BYTE      SPI0CON2
      000000DAH   SFRSYM    DATA     BYTE      DSV_CON
      000000F8H   SFRSYM    DATA     BYTE      AIPL
      00000095H   SFRSYM    DATA     BYTE      I2CSEL
      000000F5H   SFRSYM    DATA     BYTE      SSCG_CON0
      000000F7H   SFRSYM    DATA     BYTE      AIPH
      000000FDH   SFRSYM    DATA     BYTE      I2C_STATE
      00000090H   SFRSYM    DATA     BYTE      I2CCON
      000000A9H   SFRSYM    DATA     BYTE      UARTCON
      000000B8H   SFRSYM    DATA     BYTE      IPL0
      000000F3H   SFRSYM    DATA     BYTE      ANACON10
      000000B7H   SFRSYM    DATA     BYTE      IPH0
      000000DFH   SFRSYM    DATA     BYTE      IEN1
      000000A8H   SFRSYM    DATA     BYTE      IEN0
      00000093H   SFRSYM    DATA     BYTE      I2CSTOP
      000000B3H   SFRSYM    DATA     BYTE      SPI1CON
      000000A2H   SFRSYM    DATA     BYTE      SPI0CON

      ---         MODULE    ---      ---       Drv_mcu
      00FEE8C2H   PUBLIC    ECODE    ---       DrvSysPowerMode?
      00FEE800H   PUBLIC    ECODE    ---       DrvSysClkInit?
      00FEE8A3H   PUBLIC    ECODE    ---       DelayMs?
      00FEE874H   PUBLIC    ECODE    ---       DelayUs?
      00FEE80BH   PUBLIC    ECODE    ---       DrvIOInit?
      00000568H   PUBLIC    EDATA    ---       g_ucbuf
      000000B6H   SFRSYM    DATA     BYTE      RTCCON1
      000000BFH   SFRSYM    DATA     BYTE      CGUCON8
      000000CFH   SFRSYM    DATA     BYTE      CGUCON7
      000000CEH   SFRSYM    DATA     BYTE      CGUCON6
      000000CDH   SFRSYM    DATA     BYTE      CGUCON5
      000000CCH   SFRSYM    DATA     BYTE      CGUCON4
      000000CBH   SFRSYM    DATA     BYTE      CGUCON3
      000000CAH   SFRSYM    DATA     BYTE      CGUCON2
      000000C8H   SFRSYM    DATA     BYTE      CGUCON1
      000000C9H   SFRSYM    DATA     BYTE      CGUCON0
      000000D9H   SFRSYM    DATA     BYTE      MEMBIST_ERRMAP2
      000000D8H   SFRSYM    DATA     BYTE      MEMBIST_ERRMAP1
      000000B0H   SFRSYM    DATA     BYTE      ANACON9
      000000A0H   SFRSYM    DATA     BYTE      ANACON8
      000000D5H   SFRSYM    DATA     BYTE      MEMBIST_FINISH2
      000000C7H   SFRSYM    DATA     BYTE      ANACON7
      000000D4H   SFRSYM    DATA     BYTE      MEMBIST_FINISH1
      000000E9H   SFRSYM    DATA     BYTE      SFTRST
      000000EEH   SFRSYM    DATA     BYTE      P1SEL
      000000C3H   SFRSYM    DATA     BYTE      ANACON3
      000000ECH   SFRSYM    DATA     BYTE      P0SEL
      000000C2H   SFRSYM    DATA     BYTE      ANACON2
      000000C1H   SFRSYM    DATA     BYTE      ANACON1
L251 LINKER/LOCATER V4.65.0.0                                                         06/22/2017  19:19:11  PAGE 53


      000000EDH   SFRSYM    DATA     BYTE      P1MOD
      000000CEH   SFRSYM    DATA     BIT       CLK_WP
      00000098H   SFRSYM    DATA     BYTE      SYSCON
      000000ADH   SFRSYM    DATA     BYTE      P1DIR
      000000EBH   SFRSYM    DATA     BYTE      P0MOD
      000000ACH   SFRSYM    DATA     BYTE      P0DIR
      00000094H   SFRSYM    DATA     BYTE      P1BUF
      00000080H   SFRSYM    DATA     BYTE      P0BUF
      000000E4H   SFRSYM    DATA     BYTE      TESTCON3
      000000E3H   SFRSYM    DATA     BYTE      TESTCON2
      000000E5H   SFRSYM    DATA     BYTE      IWKSTA
      0000009AH   SFRSYM    DATA     BYTE      WDTREL
      000000E2H   SFRSYM    DATA     BYTE      TESTCON1
      000000E1H   SFRSYM    DATA     BYTE      TESTCON0
      00000087H.1 SFRSYM    DATA     BIT       CORE_STOP
      00000099H   SFRSYM    DATA     BYTE      WDTCON
      000000C0H   SFRSYM    DATA     BYTE      AIF
      000000E8H   SFRSYM    DATA     BYTE      AIE
      000000BDH   SFRSYM    DATA     BYTE      FT_EN_REG
      0000009EH   SFRSYM    DATA     BYTE      RTCCON
      000000FEH   SFRSYM    DATA     BYTE      LED_EN
      000000B9H   SFRSYM    DATA     BYTE      CNTCON
      000000D7H   SFRSYM    DATA     BYTE      MEMBIST_FAIL2
      000000D6H   SFRSYM    DATA     BYTE      MEMBIST_FAIL1
      000000E7H   SFRSYM    DATA     BYTE      RST_STA
      000000E6H   SFRSYM    DATA     BYTE      POR_STA
      000000D3H   SFRSYM    DATA     BYTE      MEMBIST_EN2
      000000D2H   SFRSYM    DATA     BYTE      MEMBIST_EN1
      0000009BH   SFRSYM    DATA     BYTE      TDIV
      000000EFH   SFRSYM    DATA     BYTE      XDP_STA
      00000088H   SFRSYM    DATA     BYTE      TCON
      00000089H   SFRSYM    DATA     BYTE      TMOD
      000000A7H   SFRSYM    DATA     BYTE      SPI0CON5
      000000B2H   SFRSYM    DATA     BYTE      SPI1CON4
      000000B1H   SFRSYM    DATA     BYTE      SPI1CON3
      000000A5H   SFRSYM    DATA     BYTE      SPI0CON3
      000000B4H   SFRSYM    DATA     BYTE      SPI1CON2
      000000EAH   SFRSYM    DATA     BYTE      ANACON
      00000087H   SFRSYM    DATA     BYTE      PCON
      000000A3H   SFRSYM    DATA     BYTE      SPI0CON2
      000000CAH.7 SFRSYM    DATA     BIT       CLKEN_500K
      000000DAH   SFRSYM    DATA     BYTE      DSV_CON
      00000087H   SFRSYM    DATA     BIT       CORE_IDLE
      000000F8H   SFRSYM    DATA     BYTE      AIPL
      00000095H   SFRSYM    DATA     BYTE      I2CSEL
      000000F5H   SFRSYM    DATA     BYTE      SSCG_CON0
      000000F7H   SFRSYM    DATA     BYTE      AIPH
      000000C8H.7 SFRSYM    DATA     BIT       SYSCKEN
      000000FDH   SFRSYM    DATA     BYTE      I2C_STATE
      00000090H   SFRSYM    DATA     BYTE      I2CCON
      000000A9H   SFRSYM    DATA     BYTE      UARTCON
      000000C9H.6 SFRSYM    DATA     BIT       STANDBY
      000000B8H   SFRSYM    DATA     BYTE      IPL0
      000000F3H   SFRSYM    DATA     BYTE      ANACON10
      000000B7H   SFRSYM    DATA     BYTE      IPH0
      000000DFH   SFRSYM    DATA     BYTE      IEN1
      000000A8H   SFRSYM    DATA     BYTE      IEN0
      00000093H   SFRSYM    DATA     BYTE      I2CSTOP
      000000A8H.7 SFRSYM    DATA     BIT       EA
      000000B3H   SFRSYM    DATA     BYTE      SPI1CON
      000000A2H   SFRSYM    DATA     BYTE      SPI0CON

      00FEE800H   BLOCK     ECODE    ---       LVL=0
      R11         REGSYM    ---      BYTE      ucDiv
      00FEE800H   LINE      ECODE    ---       #53
L251 LINKER/LOCATER V4.65.0.0                                                         06/22/2017  19:19:11  PAGE 54


      00FEE800H   LINE      ECODE    ---       #55
      00FEE805H   LINE      ECODE    ---       #57
      00FEE807H   LINE      ECODE    ---       #58
      00FEE807H   LINE      ECODE    ---       #60
      00FEE80AH   LINE      ECODE    ---       #61
      ---         BLOCKEND  ---      ---       LVL=0

      00FEE80BH   BLOCK     ECODE    ---       LVL=0
      00FEE80BH   LINE      ECODE    ---       #70
      00FEE80BH   LINE      ECODE    ---       #72
      00FEE811H   LINE      ECODE    ---       #73
      00FEE817H   LINE      ECODE    ---       #74
      00FEE81DH   LINE      ECODE    ---       #75
      00FEE823H   LINE      ECODE    ---       #76
      00FEE829H   LINE      ECODE    ---       #77
      00FEE82FH   LINE      ECODE    ---       #78
      00FEE835H   LINE      ECODE    ---       #79
      00FEE83BH   LINE      ECODE    ---       #80
      00FEE841H   LINE      ECODE    ---       #81
      00FEE847H   LINE      ECODE    ---       #82
      00FEE84DH   LINE      ECODE    ---       #83
      00FEE853H   LINE      ECODE    ---       #84
      00FEE859H   LINE      ECODE    ---       #86
      00FEE85CH   LINE      ECODE    ---       #87
      00FEE85FH   LINE      ECODE    ---       #89
      00FEE861H   LINE      ECODE    ---       #90
      00FEE864H   LINE      ECODE    ---       #91
      00FEE867H   LINE      ECODE    ---       #93
      00FEE86AH   LINE      ECODE    ---       #95
      00FEE86DH   LINE      ECODE    ---       #97
      00FEE870H   LINE      ECODE    ---       #98
      00FEE873H   LINE      ECODE    ---       #100
      ---         BLOCKEND  ---      ---       LVL=0

      00FEE874H   BLOCK     ECODE    ---       LVL=0
      R10         REGSYM    ---      BYTE      ucDlyCnt
      00FEE874H   LINE      ECODE    ---       #109
      00FEE876H   LINE      ECODE    ---       #114
      00FEE878H   LINE      ECODE    ---       #116
      00FEE879H   LINE      ECODE    ---       #117
      00FEE87AH   LINE      ECODE    ---       #118
      00FEE87BH   LINE      ECODE    ---       #119
      00FEE87CH   LINE      ECODE    ---       #121
      00FEE87DH   LINE      ECODE    ---       #122
      00FEE87EH   LINE      ECODE    ---       #123
      00FEE87FH   LINE      ECODE    ---       #124
      00FEE880H   LINE      ECODE    ---       #126
      00FEE881H   LINE      ECODE    ---       #127
      00FEE882H   LINE      ECODE    ---       #128
      00FEE883H   LINE      ECODE    ---       #129
      00FEE884H   LINE      ECODE    ---       #131
      00FEE885H   LINE      ECODE    ---       #132
      00FEE886H   LINE      ECODE    ---       #134
      00FEE887H   LINE      ECODE    ---       #135
      00FEE888H   LINE      ECODE    ---       #136
      00FEE889H   LINE      ECODE    ---       #137
      00FEE88AH   LINE      ECODE    ---       #139
      00FEE88BH   LINE      ECODE    ---       #140
      00FEE88CH   LINE      ECODE    ---       #141
      00FEE88DH   LINE      ECODE    ---       #142
      00FEE88EH   LINE      ECODE    ---       #144
      00FEE88FH   LINE      ECODE    ---       #145
      00FEE890H   LINE      ECODE    ---       #146
      00FEE891H   LINE      ECODE    ---       #147
      00FEE892H   LINE      ECODE    ---       #149
L251 LINKER/LOCATER V4.65.0.0                                                         06/22/2017  19:19:11  PAGE 55


      00FEE893H   LINE      ECODE    ---       #150
      00FEE894H   LINE      ECODE    ---       #151
      00FEE895H   LINE      ECODE    ---       #152
      00FEE896H   LINE      ECODE    ---       #154
      00FEE897H   LINE      ECODE    ---       #155
      00FEE898H   LINE      ECODE    ---       #156
      00FEE899H   LINE      ECODE    ---       #157
      00FEE89AH   LINE      ECODE    ---       #160
      00FEE8A2H   LINE      ECODE    ---       #162
      ---         BLOCKEND  ---      ---       LVL=0

      00FEE8A3H   BLOCK     ECODE    ---       LVL=0
      WR8         REGSYM    ---      WORD      ucDlyCnt
      00FEE8A3H   LINE      ECODE    ---       #171
      00FEE8A5H   LINE      ECODE    ---       #173
      00FEE8A7H   LINE      ECODE    ---       #175
      00FEE8ADH   LINE      ECODE    ---       #176
      00FEE8B1H   LINE      ECODE    ---       #177
      00FEE8B5H   LINE      ECODE    ---       #178
      00FEE8B9H   LINE      ECODE    ---       #179
      00FEE8C1H   LINE      ECODE    ---       #180
      ---         BLOCKEND  ---      ---       LVL=0

      00FEE8C2H   BLOCK     ECODE    ---       LVL=0
      R11         REGSYM    ---      BYTE      pmode
      00FEE8C2H   LINE      ECODE    ---       #189
      00FEE8C2H   LINE      ECODE    ---       #192
      00FEE8C4H   LINE      ECODE    ---       #194
      00FEE8C7H   LINE      ECODE    ---       #195
      00FEE8CAH   LINE      ECODE    ---       #196
      00FEE8CCH   LINE      ECODE    ---       #197
      00FEE8CCH   LINE      ECODE    ---       #199
      00FEE8CFH   LINE      ECODE    ---       #201
      00FEE8D2H   LINE      ECODE    ---       #202
      00FEE8D5H   LINE      ECODE    ---       #203
      00FEE8D8H   LINE      ECODE    ---       #204
      00FEE8DAH   LINE      ECODE    ---       #205
      00FEE8DAH   LINE      ECODE    ---       #208
      00FEE8DDH   LINE      ECODE    ---       #210
      00FEE8E0H   LINE      ECODE    ---       #211
      00FEE8E3H   LINE      ECODE    ---       #212
      00FEE8E6H   LINE      ECODE    ---       #213
      00FEE8E8H   LINE      ECODE    ---       #214
      00FEE8E8H   LINE      ECODE    ---       #216
      00FEE8E9H   LINE      ECODE    ---       #217
      00FEE8EAH   LINE      ECODE    ---       #218
      00FEE8EBH   LINE      ECODE    ---       #219
      00FEE8ECH   LINE      ECODE    ---       #220
      ---         BLOCKEND  ---      ---       LVL=0

      ---         MODULE    ---      ---       Drv_XSI
      00FEF87DH   PUBLIC    ECODE    ---       Drv_XsiRead?
      00FEF8D4H   PUBLIC    ECODE    ---       Drv_XsiWrite?
      00FEF7DAH   PUBLIC    ECODE    ---       Drv_XsiInit?
      00FEF7FBH   PUBLIC    ECODE    ---       Drv_XsiReadReg?
      00FEF83CH   PUBLIC    ECODE    ---       Drv_XsiWriteReg?
      00000592H   PUBLIC    EDATA    ---       pXSI0Regs
      00000596H   PUBLIC    EDATA    ---       pXSI1Regs
      0000059CH   PUBLIC    EDATA    BYTE      ?Drv_XsiRead??BYTE
      000005A3H   PUBLIC    EDATA    BYTE      ?Drv_XsiWrite??BYTE
      000000B6H   SFRSYM    DATA     BYTE      RTCCON1
      000000BFH   SFRSYM    DATA     BYTE      CGUCON8
      000000CEH   SFRSYM    DATA     BYTE      CGUCON6
      000000CDH   SFRSYM    DATA     BYTE      CGUCON5
      000000CCH   SFRSYM    DATA     BYTE      CGUCON4
L251 LINKER/LOCATER V4.65.0.0                                                         06/22/2017  19:19:11  PAGE 56


      000000CBH   SFRSYM    DATA     BYTE      CGUCON3
      000000CAH   SFRSYM    DATA     BYTE      CGUCON2
      000000C8H   SFRSYM    DATA     BYTE      CGUCON1
      000000C9H   SFRSYM    DATA     BYTE      CGUCON0
      000000D9H   SFRSYM    DATA     BYTE      MEMBIST_ERRMAP2
      000000D8H   SFRSYM    DATA     BYTE      MEMBIST_ERRMAP1
      000000CBH.5 SFRSYM    DATA     BIT       AFECKEN
      000000B0H   SFRSYM    DATA     BYTE      ANACON9
      000000A0H   SFRSYM    DATA     BYTE      ANACON8
      000000D5H   SFRSYM    DATA     BYTE      MEMBIST_FINISH2
      000000C7H   SFRSYM    DATA     BYTE      ANACON7
      000000D4H   SFRSYM    DATA     BYTE      MEMBIST_FINISH1
      000000E9H   SFRSYM    DATA     BYTE      SFTRST
      000000EEH   SFRSYM    DATA     BYTE      P1SEL
      000000C3H   SFRSYM    DATA     BYTE      ANACON3
      000000ECH   SFRSYM    DATA     BYTE      P0SEL
      000000C2H   SFRSYM    DATA     BYTE      ANACON2
      000000C1H   SFRSYM    DATA     BYTE      ANACON1
      000000EDH   SFRSYM    DATA     BYTE      P1MOD
      00000098H   SFRSYM    DATA     BYTE      SYSCON
      000000ADH   SFRSYM    DATA     BYTE      P1DIR
      000000EBH   SFRSYM    DATA     BYTE      P0MOD
      000000ACH   SFRSYM    DATA     BYTE      P0DIR
      00000094H   SFRSYM    DATA     BYTE      P1BUF
      00000080H   SFRSYM    DATA     BYTE      P0BUF
      000000E4H   SFRSYM    DATA     BYTE      TESTCON3
      000000E3H   SFRSYM    DATA     BYTE      TESTCON2
      000000E5H   SFRSYM    DATA     BYTE      IWKSTA
      0000009AH   SFRSYM    DATA     BYTE      WDTREL
      000000E2H   SFRSYM    DATA     BYTE      TESTCON1
      000000E1H   SFRSYM    DATA     BYTE      TESTCON0
      00000099H   SFRSYM    DATA     BYTE      WDTCON
      000000C0H   SFRSYM    DATA     BYTE      AIF
      000000E8H   SFRSYM    DATA     BYTE      AIE
      000000BDH   SFRSYM    DATA     BYTE      FT_EN_REG
      0000009EH   SFRSYM    DATA     BYTE      RTCCON
      000000FEH   SFRSYM    DATA     BYTE      LED_EN
      000000B9H   SFRSYM    DATA     BYTE      CNTCON
      000000D7H   SFRSYM    DATA     BYTE      MEMBIST_FAIL2
      000000D6H   SFRSYM    DATA     BYTE      MEMBIST_FAIL1
      000000D3H   SFRSYM    DATA     BYTE      MEMBIST_EN2
      000000EAH.3 SFRSYM    DATA     BIT       XSI_SEL
      000000D2H   SFRSYM    DATA     BYTE      MEMBIST_EN1
      0000009BH   SFRSYM    DATA     BYTE      TDIV
      000000EFH   SFRSYM    DATA     BYTE      XDP_STA
      00000088H   SFRSYM    DATA     BYTE      TCON
      00000089H   SFRSYM    DATA     BYTE      TMOD
      000000A7H   SFRSYM    DATA     BYTE      SPI0CON5
      000000B2H   SFRSYM    DATA     BYTE      SPI1CON4
      000000B1H   SFRSYM    DATA     BYTE      SPI1CON3
      000000A5H   SFRSYM    DATA     BYTE      SPI0CON3
      000000B4H   SFRSYM    DATA     BYTE      SPI1CON2
      000000EAH   SFRSYM    DATA     BYTE      ANACON
      00000087H   SFRSYM    DATA     BYTE      PCON
      000000A3H   SFRSYM    DATA     BYTE      SPI0CON2
      000000DAH   SFRSYM    DATA     BYTE      DSV_CON
      000000F8H   SFRSYM    DATA     BYTE      AIPL
      00000095H   SFRSYM    DATA     BYTE      I2CSEL
      000000F5H   SFRSYM    DATA     BYTE      SSCG_CON0
      000000F7H   SFRSYM    DATA     BYTE      AIPH
      000000FDH   SFRSYM    DATA     BYTE      I2C_STATE
      00000090H   SFRSYM    DATA     BYTE      I2CCON
      000000A9H   SFRSYM    DATA     BYTE      UARTCON
      000000C8H.5 SFRSYM    DATA     BIT       XSICKEN
      000000B8H   SFRSYM    DATA     BYTE      IPL0
L251 LINKER/LOCATER V4.65.0.0                                                         06/22/2017  19:19:11  PAGE 57


      000000F3H   SFRSYM    DATA     BYTE      ANACON10
      000000B7H   SFRSYM    DATA     BYTE      IPH0
      000000DFH   SFRSYM    DATA     BYTE      IEN1
      000000A8H   SFRSYM    DATA     BYTE      IEN0
      00000093H   SFRSYM    DATA     BYTE      I2CSTOP
      000000BDH.1 SFRSYM    DATA     BIT       XSI_SEL_STA
      000000B3H   SFRSYM    DATA     BYTE      SPI1CON
      000000A2H   SFRSYM    DATA     BYTE      SPI0CON

      00FEF7DAH   BLOCK     ECODE    ---       LVL=0
      00FEF7DAH   LINE      ECODE    ---       #53
      00FEF7DAH   LINE      ECODE    ---       #55
      00FEF7DDH   LINE      ECODE    ---       #56
      00FEF7DFH   LINE      ECODE    ---       #58
      00FEF7E2H   LINE      ECODE    ---       #59
      00FEF7E6H   LINE      ECODE    ---       #62
      00FEF7F2H   LINE      ECODE    ---       #63
      00FEF7FAH   LINE      ECODE    ---       #65
      ---         BLOCKEND  ---      ---       LVL=0

      00FEF7FBH   BLOCK     ECODE    ---       LVL=0
      REG=0       REGSYM    ---      ---       pXSIRegs
      WR4         REGSYM    ---      WORD      usAddr
      R11         REGSYM    ---      BYTE      flag
      00FEF7FDH   BLOCK     ECODE    NEAR LAB  LVL=1
      WR6         REGSYM    ---      WORD      tmp
      ---         BLOCKEND  ---      ---       LVL=1
      00FEF7FBH   LINE      ECODE    ---       #74
      00FEF7FDH   LINE      ECODE    ---       #75
      00FEF7FDH   LINE      ECODE    ---       #77
      00FEF800H   LINE      ECODE    ---       #82
      00FEF80FH   LINE      ECODE    ---       #83
      00FEF817H   LINE      ECODE    ---       #85
      00FEF81CH   LINE      ECODE    ---       #86
      00FEF824H   LINE      ECODE    ---       #88
      00FEF828H   LINE      ECODE    ---       #89
      00FEF830H   LINE      ECODE    ---       #90
      00FEF838H   LINE      ECODE    ---       #91
      00FEF83BH   LINE      ECODE    ---       #93
      00FEF83BH   LINE      ECODE    ---       #94
      ---         BLOCKEND  ---      ---       LVL=0

      00FEF83CH   BLOCK     ECODE    ---       LVL=0
      REG=0       REGSYM    ---      ---       pXSIRegs
      WR10        REGSYM    ---      WORD      usAddr
      WR4         REGSYM    ---      WORD      usData
      R9          REGSYM    ---      BYTE      flag
      00FEF83CH   LINE      ECODE    ---       #103
      00FEF840H   LINE      ECODE    ---       #105
      00FEF843H   LINE      ECODE    ---       #110
      00FEF856H   LINE      ECODE    ---       #111
      00FEF85EH   LINE      ECODE    ---       #113
      00FEF861H   LINE      ECODE    ---       #114
      00FEF869H   LINE      ECODE    ---       #115
      00FEF871H   LINE      ECODE    ---       #116
      00FEF879H   LINE      ECODE    ---       #117
      00FEF87CH   LINE      ECODE    ---       #118
      ---         BLOCKEND  ---      ---       LVL=0

      00FEF87DH   BLOCK     ECODE    ---       LVL=0
      REG=0       REGSYM    ---      ---       pXSIRegs
      WR30        REGSYM    ---      WORD      usAddr
      REG=1       REGSYM    ---      ---       pBuf
      WR8         REGSYM    ---      WORD      len
      R11         REGSYM    ---      BYTE      flag
L251 LINKER/LOCATER V4.65.0.0                                                         06/22/2017  19:19:11  PAGE 58


      00FEF885H   BLOCK     ECODE    NEAR LAB  LVL=1
      R11         REGSYM    ---      BYTE      i
      ---         BLOCKEND  ---      ---       LVL=1
      00FEF87DH   LINE      ECODE    ---       #127
      00FEF885H   LINE      ECODE    ---       #128
      00FEF885H   LINE      ECODE    ---       #131
      00FEF888H   LINE      ECODE    ---       #135
      00FEF898H   LINE      ECODE    ---       #136
      00FEF8A0H   LINE      ECODE    ---       #138
      00FEF8A3H   LINE      ECODE    ---       #140
      00FEF8A8H   LINE      ECODE    ---       #141
      00FEF8B0H   LINE      ECODE    ---       #143
      00FEF8B9H   LINE      ECODE    ---       #144
      00FEF8C0H   LINE      ECODE    ---       #146
      00FEF8C8H   LINE      ECODE    ---       #147
      00FEF8D0H   LINE      ECODE    ---       #148
      00FEF8D3H   LINE      ECODE    ---       #149
      ---         BLOCKEND  ---      ---       LVL=0

      00FEF8D4H   BLOCK     ECODE    ---       LVL=0
      REG=0       REGSYM    ---      ---       pXSIRegs
      WR30        REGSYM    ---      WORD      usAddr
      REG=1       REGSYM    ---      ---       pBuf
      WR10        REGSYM    ---      WORD      len
      R9          REGSYM    ---      BYTE      flag
      00FEF8DEH   BLOCK     ECODE    NEAR LAB  LVL=1
      WR8         REGSYM    ---      WORD      i
      ---         BLOCKEND  ---      ---       LVL=1
      00FEF8D4H   LINE      ECODE    ---       #158
      00FEF8DEH   LINE      ECODE    ---       #159
      00FEF8DEH   LINE      ECODE    ---       #162
      00FEF8E1H   LINE      ECODE    ---       #163
      00FEF8E5H   LINE      ECODE    ---       #167
      00FEF8F8H   LINE      ECODE    ---       #168
      00FEF900H   LINE      ECODE    ---       #170
      00FEF904H   LINE      ECODE    ---       #172
      00FEF90CH   LINE      ECODE    ---       #173
      00FEF914H   LINE      ECODE    ---       #174
      00FEF91AH   LINE      ECODE    ---       #176
      00FEF922H   LINE      ECODE    ---       #177
      00FEF92AH   LINE      ECODE    ---       #179
      00FEF92DH   LINE      ECODE    ---       #180
      00FEF931H   LINE      ECODE    ---       #181
      ---         BLOCKEND  ---      ---       LVL=0

      ---         MODULE    ---      ---       Drv_XBUS
      00FEFB03H   PUBLIC    ECODE    ---       DrvXbus_WriteLcd8?
      00FEFAD8H   PUBLIC    ECODE    ---       DrvXbus_ReadLcd16?
      00FEFAD1H   PUBLIC    ECODE    ---       Drv_XbusInit?
      000005B0H   PUBLIC    EDATA    ---       pLcdWrapRegs
      000000B6H   SFRSYM    DATA     BYTE      RTCCON1
      000000BFH   SFRSYM    DATA     BYTE      CGUCON8
      000000CEH   SFRSYM    DATA     BYTE      CGUCON6
      000000CDH   SFRSYM    DATA     BYTE      CGUCON5
      000000CCH   SFRSYM    DATA     BYTE      CGUCON4
      000000CBH   SFRSYM    DATA     BYTE      CGUCON3
      000000CAH   SFRSYM    DATA     BYTE      CGUCON2
      000000C8H   SFRSYM    DATA     BYTE      CGUCON1
      000000C9H   SFRSYM    DATA     BYTE      CGUCON0
      000000D9H   SFRSYM    DATA     BYTE      MEMBIST_ERRMAP2
      000000D8H   SFRSYM    DATA     BYTE      MEMBIST_ERRMAP1
      000000B0H   SFRSYM    DATA     BYTE      ANACON9
      000000A0H   SFRSYM    DATA     BYTE      ANACON8
      000000D5H   SFRSYM    DATA     BYTE      MEMBIST_FINISH2
      000000C7H   SFRSYM    DATA     BYTE      ANACON7
L251 LINKER/LOCATER V4.65.0.0                                                         06/22/2017  19:19:11  PAGE 59


      000000D4H   SFRSYM    DATA     BYTE      MEMBIST_FINISH1
      000000E9H   SFRSYM    DATA     BYTE      SFTRST
      000000EEH   SFRSYM    DATA     BYTE      P1SEL
      000000CBH.3 SFRSYM    DATA     BIT       XBUSCKEN
      000000C3H   SFRSYM    DATA     BYTE      ANACON3
      000000ECH   SFRSYM    DATA     BYTE      P0SEL
      000000C2H   SFRSYM    DATA     BYTE      ANACON2
      000000C1H   SFRSYM    DATA     BYTE      ANACON1
      000000EDH   SFRSYM    DATA     BYTE      P1MOD
      00000098H   SFRSYM    DATA     BYTE      SYSCON
      000000ADH   SFRSYM    DATA     BYTE      P1DIR
      000000EBH   SFRSYM    DATA     BYTE      P0MOD
      000000ACH   SFRSYM    DATA     BYTE      P0DIR
      00000094H   SFRSYM    DATA     BYTE      P1BUF
      00000080H   SFRSYM    DATA     BYTE      P0BUF
      000000E4H   SFRSYM    DATA     BYTE      TESTCON3
      000000E3H   SFRSYM    DATA     BYTE      TESTCON2
      000000E5H   SFRSYM    DATA     BYTE      IWKSTA
      000000CDH.3 SFRSYM    DATA     BIT       LCD_RELOAD_FLASH_WKEN
      0000009AH   SFRSYM    DATA     BYTE      WDTREL
      000000E2H   SFRSYM    DATA     BYTE      TESTCON1
      000000E1H   SFRSYM    DATA     BYTE      TESTCON0
      00000099H   SFRSYM    DATA     BYTE      WDTCON
      000000C0H   SFRSYM    DATA     BYTE      AIF
      000000E8H   SFRSYM    DATA     BYTE      AIE
      000000BDH   SFRSYM    DATA     BYTE      FT_EN_REG
      0000009EH   SFRSYM    DATA     BYTE      RTCCON
      000000FEH   SFRSYM    DATA     BYTE      LED_EN
      000000B9H   SFRSYM    DATA     BYTE      CNTCON
      000000D7H   SFRSYM    DATA     BYTE      MEMBIST_FAIL2
      000000D6H   SFRSYM    DATA     BYTE      MEMBIST_FAIL1
      000000D3H   SFRSYM    DATA     BYTE      MEMBIST_EN2
      000000D2H   SFRSYM    DATA     BYTE      MEMBIST_EN1
      0000009BH   SFRSYM    DATA     BYTE      TDIV
      000000EFH   SFRSYM    DATA     BYTE      XDP_STA
      00000088H   SFRSYM    DATA     BYTE      TCON
      00000089H   SFRSYM    DATA     BYTE      TMOD
      000000A7H   SFRSYM    DATA     BYTE      SPI0CON5
      000000B2H   SFRSYM    DATA     BYTE      SPI1CON4
      000000B1H   SFRSYM    DATA     BYTE      SPI1CON3
      000000A5H   SFRSYM    DATA     BYTE      SPI0CON3
      000000B4H   SFRSYM    DATA     BYTE      SPI1CON2
      000000EAH   SFRSYM    DATA     BYTE      ANACON
      00000087H   SFRSYM    DATA     BYTE      PCON
      000000A3H   SFRSYM    DATA     BYTE      SPI0CON2
      000000DAH   SFRSYM    DATA     BYTE      DSV_CON
      000000F8H   SFRSYM    DATA     BYTE      AIPL
      00000095H   SFRSYM    DATA     BYTE      I2CSEL
      000000F5H   SFRSYM    DATA     BYTE      SSCG_CON0
      000000F7H   SFRSYM    DATA     BYTE      AIPH
      000000FDH   SFRSYM    DATA     BYTE      I2C_STATE
      00000090H   SFRSYM    DATA     BYTE      I2CCON
      000000A9H   SFRSYM    DATA     BYTE      UARTCON
      000000B8H   SFRSYM    DATA     BYTE      IPL0
      000000F3H   SFRSYM    DATA     BYTE      ANACON10
      000000B7H   SFRSYM    DATA     BYTE      IPH0
      000000DFH   SFRSYM    DATA     BYTE      IEN1
      000000A8H   SFRSYM    DATA     BYTE      IEN0
      00000093H   SFRSYM    DATA     BYTE      I2CSTOP
      000000B3H   SFRSYM    DATA     BYTE      SPI1CON
      000000A2H   SFRSYM    DATA     BYTE      SPI0CON

      00FEFAD1H   BLOCK     ECODE    ---       LVL=0
      00FEFAD1H   LINE      ECODE    ---       #61
      00FEFAD1H   LINE      ECODE    ---       #63
L251 LINKER/LOCATER V4.65.0.0                                                         06/22/2017  19:19:11  PAGE 60


      00FEFAD4H   LINE      ECODE    ---       #64
      00FEFAD7H   LINE      ECODE    ---       #66
      ---         BLOCKEND  ---      ---       LVL=0

      00FEFAD8H   BLOCK     ECODE    ---       LVL=0
      WR6         REGSYM    ---      WORD      usaddr
      000005BCH   SYMBOL    EDATA    BYTE      Dummy
      00FEFAD8H   LINE      ECODE    ---       #77
      00FEFAD8H   LINE      ECODE    ---       #78
      00FEFAD8H   LINE      ECODE    ---       #80
      00FEFAE6H   LINE      ECODE    ---       #81
      00FEFAF1H   LINE      ECODE    ---       #82
      00FEFAFFH   LINE      ECODE    ---       #84
      00FEFB02H   LINE      ECODE    ---       #86
      ---         BLOCKEND  ---      ---       LVL=0

      00FEFB03H   BLOCK     ECODE    ---       LVL=0
      WR6         REGSYM    ---      WORD      usaddr
      R11         REGSYM    ---      BYTE      usdata
      00FEFB03H   LINE      ECODE    ---       #97
      00FEFB03H   LINE      ECODE    ---       #99
      00FEFB11H   LINE      ECODE    ---       #100
      00FEFB18H   LINE      ECODE    ---       #101
      ---         BLOCKEND  ---      ---       LVL=0

      ---         MODULE    ---      ---       crckrmit
      00FEFA77H   PUBLIC    ECODE    ---       update_crc_kermit?
      00FEFA33H   PUBLIC    ECODE    ---       crc_kermit?
      000000B6H   SFRSYM    DATA     BYTE      RTCCON1
      000000BFH   SFRSYM    DATA     BYTE      CGUCON8
      000000CEH   SFRSYM    DATA     BYTE      CGUCON6
      000000CDH   SFRSYM    DATA     BYTE      CGUCON5
      000000CCH   SFRSYM    DATA     BYTE      CGUCON4
      000000CBH   SFRSYM    DATA     BYTE      CGUCON3
      000000CAH   SFRSYM    DATA     BYTE      CGUCON2
      000000C8H   SFRSYM    DATA     BYTE      CGUCON1
      000000C9H   SFRSYM    DATA     BYTE      CGUCON0
      000000D9H   SFRSYM    DATA     BYTE      MEMBIST_ERRMAP2
      000000D8H   SFRSYM    DATA     BYTE      MEMBIST_ERRMAP1
      000000B0H   SFRSYM    DATA     BYTE      ANACON9
      000000A0H   SFRSYM    DATA     BYTE      ANACON8
      000000D5H   SFRSYM    DATA     BYTE      MEMBIST_FINISH2
      000000C7H   SFRSYM    DATA     BYTE      ANACON7
      000000D4H   SFRSYM    DATA     BYTE      MEMBIST_FINISH1
      000000E9H   SFRSYM    DATA     BYTE      SFTRST
      000000EEH   SFRSYM    DATA     BYTE      P1SEL
      000000C3H   SFRSYM    DATA     BYTE      ANACON3
      000000ECH   SFRSYM    DATA     BYTE      P0SEL
      000000C2H   SFRSYM    DATA     BYTE      ANACON2
      000000C1H   SFRSYM    DATA     BYTE      ANACON1
      000000EDH   SFRSYM    DATA     BYTE      P1MOD
      00000098H   SFRSYM    DATA     BYTE      SYSCON
      000000ADH   SFRSYM    DATA     BYTE      P1DIR
      000000EBH   SFRSYM    DATA     BYTE      P0MOD
      000000ACH   SFRSYM    DATA     BYTE      P0DIR
      00000094H   SFRSYM    DATA     BYTE      P1BUF
      00000080H   SFRSYM    DATA     BYTE      P0BUF
      000000E4H   SFRSYM    DATA     BYTE      TESTCON3
      000000E3H   SFRSYM    DATA     BYTE      TESTCON2
      000000E5H   SFRSYM    DATA     BYTE      IWKSTA
      0000009AH   SFRSYM    DATA     BYTE      WDTREL
      000000E2H   SFRSYM    DATA     BYTE      TESTCON1
      000000E1H   SFRSYM    DATA     BYTE      TESTCON0
      00000099H   SFRSYM    DATA     BYTE      WDTCON
      000000C0H   SFRSYM    DATA     BYTE      AIF
L251 LINKER/LOCATER V4.65.0.0                                                         06/22/2017  19:19:11  PAGE 61


      000000E8H   SFRSYM    DATA     BYTE      AIE
      000000BDH   SFRSYM    DATA     BYTE      FT_EN_REG
      0000009EH   SFRSYM    DATA     BYTE      RTCCON
      000000FEH   SFRSYM    DATA     BYTE      LED_EN
      000000B9H   SFRSYM    DATA     BYTE      CNTCON
      000000D7H   SFRSYM    DATA     BYTE      MEMBIST_FAIL2
      000000D6H   SFRSYM    DATA     BYTE      MEMBIST_FAIL1
      000000D3H   SFRSYM    DATA     BYTE      MEMBIST_EN2
      000000D2H   SFRSYM    DATA     BYTE      MEMBIST_EN1
      0000009BH   SFRSYM    DATA     BYTE      TDIV
      000000EFH   SFRSYM    DATA     BYTE      XDP_STA
      00000088H   SFRSYM    DATA     BYTE      TCON
      00000089H   SFRSYM    DATA     BYTE      TMOD
      000000A7H   SFRSYM    DATA     BYTE      SPI0CON5
      000000B2H   SFRSYM    DATA     BYTE      SPI1CON4
      000000B1H   SFRSYM    DATA     BYTE      SPI1CON3
      000000A5H   SFRSYM    DATA     BYTE      SPI0CON3
      000000B4H   SFRSYM    DATA     BYTE      SPI1CON2
      000000EAH   SFRSYM    DATA     BYTE      ANACON
      00000087H   SFRSYM    DATA     BYTE      PCON
      000000A3H   SFRSYM    DATA     BYTE      SPI0CON2
      000000DAH   SFRSYM    DATA     BYTE      DSV_CON
      000000F8H   SFRSYM    DATA     BYTE      AIPL
      00000095H   SFRSYM    DATA     BYTE      I2CSEL
      000000F5H   SFRSYM    DATA     BYTE      SSCG_CON0
      000000F7H   SFRSYM    DATA     BYTE      AIPH
      000000FDH   SFRSYM    DATA     BYTE      I2C_STATE
      00000090H   SFRSYM    DATA     BYTE      I2CCON
      000000A9H   SFRSYM    DATA     BYTE      UARTCON
      000000B8H   SFRSYM    DATA     BYTE      IPL0
      000000F3H   SFRSYM    DATA     BYTE      ANACON10
      000000B7H   SFRSYM    DATA     BYTE      IPH0
      000000DFH   SFRSYM    DATA     BYTE      IEN1
      000000A8H   SFRSYM    DATA     BYTE      IEN0
      00000093H   SFRSYM    DATA     BYTE      I2CSTOP
      000000B3H   SFRSYM    DATA     BYTE      SPI1CON
      000000A2H   SFRSYM    DATA     BYTE      SPI0CON
      00FEFA98H   SYMBOL    ECODE    ---       init_crc_tab
      00000229H   SYMBOL    EDATA    ---       crc_tab
      00000020H.2 SYMBOL    BIT      BIT       crc_tab_init

      00FEFA33H   BLOCK     ECODE    ---       LVL=0
      000005B4H   SYMBOL    EDATA    ---       input_str
      WR12        REGSYM    ---      WORD      num_bytes
      00FEFA3BH   BLOCK     ECODE    NEAR LAB  LVL=1
      WR14        REGSYM    ---      WORD      crc
      WR10        REGSYM    ---      WORD      tmp
      WR0         REGSYM    ---      WORD      short_c
      REG=1       REGSYM    ---      ---       ptr
      WR2         REGSYM    ---      WORD      a
      ---         BLOCKEND  ---      ---       LVL=1
      00FEFA33H   LINE      ECODE    ---       #50
      00FEFA3BH   LINE      ECODE    ---       #51
      00FEFA3BH   LINE      ECODE    ---       #61
      00FEFA41H   LINE      ECODE    ---       #63
      00FEFA45H   LINE      ECODE    ---       #64
      00FEFA49H   LINE      ECODE    ---       #66
      00FEFA53H   LINE      ECODE    ---       #68
      00FEFA58H   LINE      ECODE    ---       #69
      00FEFA5CH   LINE      ECODE    ---       #70
      00FEFA6AH   LINE      ECODE    ---       #72
      00FEFA6CH   LINE      ECODE    ---       #73
      00FEFA72H   LINE      ECODE    ---       #79
      00FEFA74H   LINE      ECODE    ---       #81
      ---         BLOCKEND  ---      ---       LVL=0
L251 LINKER/LOCATER V4.65.0.0                                                         06/22/2017  19:19:11  PAGE 62



      00FEFA77H   BLOCK     ECODE    ---       LVL=0
      WR14        REGSYM    ---      WORD      crc
      R11         REGSYM    ---      BYTE      c
      00FEFA7BH   BLOCK     ECODE    NEAR LAB  LVL=1
      WR6         REGSYM    ---      WORD      tmp
      WR12        REGSYM    ---      WORD      short_c
      ---         BLOCKEND  ---      ---       LVL=1
      00FEFA77H   LINE      ECODE    ---       #90
      00FEFA7BH   LINE      ECODE    ---       #95
      00FEFA7DH   LINE      ECODE    ---       #97
      00FEFA83H   LINE      ECODE    ---       #99
      00FEFA87H   LINE      ECODE    ---       #100
      00FEFA93H   LINE      ECODE    ---       #102
      00FEFA95H   LINE      ECODE    ---       #104
      ---         BLOCKEND  ---      ---       LVL=0

      00FEFA98H   BLOCK     ECODE    ---       LVL=0
      WR6         REGSYM    ---      WORD      i
      WR0         REGSYM    ---      WORD      j
      WR4         REGSYM    ---      WORD      crc
      WR2         REGSYM    ---      WORD      c
      00FEFA98H   LINE      ECODE    ---       #115
      00FEFA98H   LINE      ECODE    ---       #122
      00FEFA9AH   LINE      ECODE    ---       #124
      00FEFA9CH   LINE      ECODE    ---       #125
      00FEFA9EH   LINE      ECODE    ---       #127
      00FEFAA0H   LINE      ECODE    ---       #129
      00FEFAB2H   LINE      ECODE    ---       #130
      00FEFAB4H   LINE      ECODE    ---       #132
      00FEFAB6H   LINE      ECODE    ---       #133
      00FEFABEH   LINE      ECODE    ---       #135
      00FEFAC6H   LINE      ECODE    ---       #136
      00FEFACEH   LINE      ECODE    ---       #138
      00FEFAD0H   LINE      ECODE    ---       #140
      ---         BLOCKEND  ---      ---       LVL=0

      ---         MODULE    ---      ---       Drv_CRC
      00FEE9F5H   PUBLIC    ECODE    ---       InvertUint16?
      00FEEB57H   PUBLIC    ECODE    ---       CRCKERMIT?
      00FEE9A0H   PUBLIC    ECODE    ---       CRC16?
      00FEEBD9H   PUBLIC    ECODE    ---       crc_sick?
      00FEE9C9H   PUBLIC    ECODE    ---       InvertUint8?
      00FEEE5EH   PUBLIC    ECODE    ---       Test_CRC?
      00FEEA16H   PUBLIC    ECODE    ---       CRC16_mode_init?
      00FEEAECH   PUBLIC    ECODE    ---       CRC16_fun?
      00FEEB96H   PUBLIC    ECODE    ---       CRC16_LCD?
      00000021H   PUBLIC    EDATA    ---       Crc_mode
      00000594H   PUBLIC    EDATA    BYTE      ?CRC16_fun??BYTE
      000005B2H   PUBLIC    EDATA    BYTE      ?CRCKERMIT??BYTE
      000000B6H   SFRSYM    DATA     BYTE      RTCCON1
      000000BFH   SFRSYM    DATA     BYTE      CGUCON8
      000000CEH   SFRSYM    DATA     BYTE      CGUCON6
      000000CDH   SFRSYM    DATA     BYTE      CGUCON5
      000000CCH   SFRSYM    DATA     BYTE      CGUCON4
      000000CBH   SFRSYM    DATA     BYTE      CGUCON3
      000000CAH   SFRSYM    DATA     BYTE      CGUCON2
      000000C8H   SFRSYM    DATA     BYTE      CGUCON1
      000000C9H   SFRSYM    DATA     BYTE      CGUCON0
      000000D9H   SFRSYM    DATA     BYTE      MEMBIST_ERRMAP2
      000000D8H   SFRSYM    DATA     BYTE      MEMBIST_ERRMAP1
      000000B0H   SFRSYM    DATA     BYTE      ANACON9
      000000A0H   SFRSYM    DATA     BYTE      ANACON8
      000000D5H   SFRSYM    DATA     BYTE      MEMBIST_FINISH2
      000000C7H   SFRSYM    DATA     BYTE      ANACON7
L251 LINKER/LOCATER V4.65.0.0                                                         06/22/2017  19:19:11  PAGE 63


      000000D4H   SFRSYM    DATA     BYTE      MEMBIST_FINISH1
      000000E9H   SFRSYM    DATA     BYTE      SFTRST
      000000EEH   SFRSYM    DATA     BYTE      P1SEL
      000000C3H   SFRSYM    DATA     BYTE      ANACON3
      000000ECH   SFRSYM    DATA     BYTE      P0SEL
      000000C2H   SFRSYM    DATA     BYTE      ANACON2
      000000C1H   SFRSYM    DATA     BYTE      ANACON1
      000000EDH   SFRSYM    DATA     BYTE      P1MOD
      00000098H   SFRSYM    DATA     BYTE      SYSCON
      000000ADH   SFRSYM    DATA     BYTE      P1DIR
      000000EBH   SFRSYM    DATA     BYTE      P0MOD
      000000ACH   SFRSYM    DATA     BYTE      P0DIR
      00000094H   SFRSYM    DATA     BYTE      P1BUF
      00000080H   SFRSYM    DATA     BYTE      P0BUF
      000000E4H   SFRSYM    DATA     BYTE      TESTCON3
      000000E3H   SFRSYM    DATA     BYTE      TESTCON2
      000000E5H   SFRSYM    DATA     BYTE      IWKSTA
      0000009AH   SFRSYM    DATA     BYTE      WDTREL
      000000E2H   SFRSYM    DATA     BYTE      TESTCON1
      000000E1H   SFRSYM    DATA     BYTE      TESTCON0
      00000099H   SFRSYM    DATA     BYTE      WDTCON
      000000C0H   SFRSYM    DATA     BYTE      AIF
      000000E8H   SFRSYM    DATA     BYTE      AIE
      000000BDH   SFRSYM    DATA     BYTE      FT_EN_REG
      0000009EH   SFRSYM    DATA     BYTE      RTCCON
      000000FEH   SFRSYM    DATA     BYTE      LED_EN
      000000B9H   SFRSYM    DATA     BYTE      CNTCON
      000000D7H   SFRSYM    DATA     BYTE      MEMBIST_FAIL2
      000000D6H   SFRSYM    DATA     BYTE      MEMBIST_FAIL1
      000000D3H   SFRSYM    DATA     BYTE      MEMBIST_EN2
      000000D2H   SFRSYM    DATA     BYTE      MEMBIST_EN1
      0000009BH   SFRSYM    DATA     BYTE      TDIV
      000000EFH   SFRSYM    DATA     BYTE      XDP_STA
      00000088H   SFRSYM    DATA     BYTE      TCON
      00000089H   SFRSYM    DATA     BYTE      TMOD
      000000A7H   SFRSYM    DATA     BYTE      SPI0CON5
      000000B2H   SFRSYM    DATA     BYTE      SPI1CON4
      000000B1H   SFRSYM    DATA     BYTE      SPI1CON3
      000000A5H   SFRSYM    DATA     BYTE      SPI0CON3
      000000B4H   SFRSYM    DATA     BYTE      SPI1CON2
      000000EAH   SFRSYM    DATA     BYTE      ANACON
      00000087H   SFRSYM    DATA     BYTE      PCON
      000000A3H   SFRSYM    DATA     BYTE      SPI0CON2
      000000DAH   SFRSYM    DATA     BYTE      DSV_CON
      000000F8H   SFRSYM    DATA     BYTE      AIPL
      00000095H   SFRSYM    DATA     BYTE      I2CSEL
      000000F5H   SFRSYM    DATA     BYTE      SSCG_CON0
      000000F7H   SFRSYM    DATA     BYTE      AIPH
      000000FDH   SFRSYM    DATA     BYTE      I2C_STATE
      00000090H   SFRSYM    DATA     BYTE      I2CCON
      000000A9H   SFRSYM    DATA     BYTE      UARTCON
      000000B8H   SFRSYM    DATA     BYTE      IPL0
      000000F3H   SFRSYM    DATA     BYTE      ANACON10
      000000B7H   SFRSYM    DATA     BYTE      IPH0
      000000DFH   SFRSYM    DATA     BYTE      IEN1
      000000A8H   SFRSYM    DATA     BYTE      IEN0
      00000093H   SFRSYM    DATA     BYTE      I2CSTOP
      000000B3H   SFRSYM    DATA     BYTE      SPI1CON
      000000A2H   SFRSYM    DATA     BYTE      SPI0CON
      00FF04EAH   SYMBOL    HCONST   ---       ?tpl?0001
      00FF04FAH   SYMBOL    HCONST   ---       ?tpl?0002
      00FEEC20H   SYMBOL    ECODE    ---       Drv_CRC16
      00000029H   SYMBOL    EDATA    ---       wCRCTable

      00FEE9A0H   BLOCK     ECODE    ---       LVL=0
L251 LINKER/LOCATER V4.65.0.0                                                         06/22/2017  19:19:11  PAGE 64


      REG=0       REGSYM    ---      ---       nData
      WR4         REGSYM    ---      WORD      wLength
      00FEE9A2H   BLOCK     ECODE    NEAR LAB  LVL=1
      R10         REGSYM    ---      BYTE      nTemp
      WR6         REGSYM    ---      WORD      wCRCWord
      ---         BLOCKEND  ---      ---       LVL=1
      00FEE9A0H   LINE      ECODE    ---       #113
      00FEE9A2H   LINE      ECODE    ---       #114
      00FEE9A2H   LINE      ECODE    ---       #117
      00FEE9A4H   LINE      ECODE    ---       #119
      00FEE9A6H   LINE      ECODE    ---       #121
      00FEE9B3H   LINE      ECODE    ---       #122
      00FEE9B5H   LINE      ECODE    ---       #123
      00FEE9C0H   LINE      ECODE    ---       #124
      00FEE9C8H   LINE      ECODE    ---       #125
      00FEE9C8H   LINE      ECODE    ---       #127
      ---         BLOCKEND  ---      ---       LVL=0

      00FEE9C9H   BLOCK     ECODE    ---       LVL=0
      R7          REGSYM    ---      BYTE      val
      00FEE9CBH   BLOCK     ECODE    NEAR LAB  LVL=1
      R10         REGSYM    ---      BYTE      temp
      R6          REGSYM    ---      BYTE      c
      R5          REGSYM    ---      BYTE      i
      ---         BLOCKEND  ---      ---       LVL=1
      00FEE9C9H   LINE      ECODE    ---       #129
      00FEE9CBH   LINE      ECODE    ---       #130
      00FEE9CBH   LINE      ECODE    ---       #131
      00FEE9D0H   LINE      ECODE    ---       #133
      00FEE9D2H   LINE      ECODE    ---       #135
      00FEE9D8H   LINE      ECODE    ---       #136
      00FEE9E9H   LINE      ECODE    ---       #137
      00FEE9EBH   LINE      ECODE    ---       #138
      00FEE9F2H   LINE      ECODE    ---       #140
      00FEE9F4H   LINE      ECODE    ---       #141
      ---         BLOCKEND  ---      ---       LVL=0

      00FEE9F5H   BLOCK     ECODE    ---       LVL=0
      WR6         REGSYM    ---      WORD      val
      R2          REGSYM    ---      BYTE      temph
      R3          REGSYM    ---      BYTE      templ
      00FEE9F5H   LINE      ECODE    ---       #143
      00FEE9F5H   LINE      ECODE    ---       #144
      00FEE9F5H   LINE      ECODE    ---       #147
      00FEE9F9H   LINE      ECODE    ---       #148
      00FEE9FDH   LINE      ECODE    ---       #149
      00FEEA05H   LINE      ECODE    ---       #150
      00FEEA0DH   LINE      ECODE    ---       #152
      00FEEA15H   LINE      ECODE    ---       #154
      ---         BLOCKEND  ---      ---       LVL=0

      00FEEA16H   BLOCK     ECODE    ---       LVL=0
      WR6         REGSYM    ---      INT       val
      REG=0       REGSYM    ---      ---       pCrcInit
      00FEEA16H   LINE      ECODE    ---       #163
      00FEEA16H   LINE      ECODE    ---       #166
      00FEEA3DH   LINE      ECODE    ---       #168
      00FEEA3DH   LINE      ECODE    ---       #169
      00FEEA3FH   LINE      ECODE    ---       #170
      00FEEA3FH   LINE      ECODE    ---       #171
      00FEEA3FH   LINE      ECODE    ---       #172
      00FEEA3FH   LINE      ECODE    ---       #173
      00FEEA3FH   LINE      ECODE    ---       #174
      00FEEA41H   LINE      ECODE    ---       #175
      00FEEA41H   LINE      ECODE    ---       #176
L251 LINKER/LOCATER V4.65.0.0                                                         06/22/2017  19:19:11  PAGE 65


      00FEEA47H   LINE      ECODE    ---       #177
      00FEEA4EH   LINE      ECODE    ---       #178
      00FEEA54H   LINE      ECODE    ---       #179
      00FEEA58H   LINE      ECODE    ---       #180
      00FEEA5CH   LINE      ECODE    ---       #181
      00FEEA5FH   LINE      ECODE    ---       #182
      00FEEA5FH   LINE      ECODE    ---       #183
      00FEEA67H   LINE      ECODE    ---       #184
      00FEEA6EH   LINE      ECODE    ---       #185
      00FEEA74H   LINE      ECODE    ---       #186
      00FEEA78H   LINE      ECODE    ---       #187
      00FEEA78H   LINE      ECODE    ---       #188
      00FEEA7AH   LINE      ECODE    ---       #189
      00FEEA7AH   LINE      ECODE    ---       #190
      00FEEA82H   LINE      ECODE    ---       #191
      00FEEA89H   LINE      ECODE    ---       #192
      00FEEA8FH   LINE      ECODE    ---       #193
      00FEEA93H   LINE      ECODE    ---       #194
      00FEEA95H   LINE      ECODE    ---       #195
      00FEEA97H   LINE      ECODE    ---       #197
      00FEEA97H   LINE      ECODE    ---       #198
      00FEEA9FH   LINE      ECODE    ---       #199
      00FEEAA6H   LINE      ECODE    ---       #200
      00FEEAABH   LINE      ECODE    ---       #201
      00FEEAAFH   LINE      ECODE    ---       #202
      00FEEAB1H   LINE      ECODE    ---       #203
      00FEEAB3H   LINE      ECODE    ---       #205
      00FEEAB3H   LINE      ECODE    ---       #206
      00FEEABBH   LINE      ECODE    ---       #207
      00FEEAC2H   LINE      ECODE    ---       #208
      00FEEAC8H   LINE      ECODE    ---       #209
      00FEEACCH   LINE      ECODE    ---       #210
      00FEEACEH   LINE      ECODE    ---       #211
      00FEEAD0H   LINE      ECODE    ---       #212
      00FEEAD0H   LINE      ECODE    ---       #213
      00FEEAD6H   LINE      ECODE    ---       #214
      00FEEADDH   LINE      ECODE    ---       #215
      00FEEAE3H   LINE      ECODE    ---       #216
      00FEEAE7H   LINE      ECODE    ---       #217
      00FEEAEBH   LINE      ECODE    ---       #218
      00FEEAEBH   LINE      ECODE    ---       #221
      00FEEAEBH   LINE      ECODE    ---       #222
      00FEEAEBH   LINE      ECODE    ---       #223
      00FEEAEBH   LINE      ECODE    ---       #225
      ---         BLOCKEND  ---      ---       LVL=0

      00FEEAECH   BLOCK     ECODE    ---       LVL=0
      REG=6       REGSYM    ---      ---       puchMsg
      WR28        REGSYM    ---      WORD      usDataLen
      0000059AH   SYMBOL    EDATA    ---       Crc_mode
      00FEEAF2H   BLOCK     ECODE    NEAR LAB  LVL=1
      WR30        REGSYM    ---      WORD      wCRCin
      WR2         REGSYM    ---      WORD      wCPoly
      WR0         REGSYM    ---      WORD      wXorOut
      R15         REGSYM    ---      BYTE      wChar
      R14         REGSYM    ---      BYTE      i
      ---         BLOCKEND  ---      ---       LVL=1
      00FEEAECH   LINE      ECODE    ---       #233
      00FEEAF2H   LINE      ECODE    ---       #234
      00FEEAF2H   LINE      ECODE    ---       #235
      00FEEAF6H   LINE      ECODE    ---       #236
      00FEEAFAH   LINE      ECODE    ---       #237
      00FEEAFEH   LINE      ECODE    ---       #238
      00FEEAFEH   LINE      ECODE    ---       #261
      00FEEB06H   LINE      ECODE    ---       #262
L251 LINKER/LOCATER V4.65.0.0                                                         06/22/2017  19:19:11  PAGE 66


      00FEEB08H   LINE      ECODE    ---       #264
      00FEEB0FH   LINE      ECODE    ---       #267
      00FEEB15H   LINE      ECODE    ---       #268
      00FEEB1DH   LINE      ECODE    ---       #270
      00FEEB21H   LINE      ECODE    ---       #271
      00FEEB23H   LINE      ECODE    ---       #273
      00FEEB2BH   LINE      ECODE    ---       #274
      00FEEB31H   LINE      ECODE    ---       #276
      00FEEB33H   LINE      ECODE    ---       #277
      00FEEB3AH   LINE      ECODE    ---       #278
      00FEEB42H   LINE      ECODE    ---       #280
      00FEEB48H   LINE      ECODE    ---       #281
      00FEEB50H   LINE      ECODE    ---       #284
      00FEEB54H   LINE      ECODE    ---       #286
      ---         BLOCKEND  ---      ---       LVL=0

      00FEEB57H   BLOCK     ECODE    ---       LVL=0
      REG=2       REGSYM    ---      ---       pDataIn
      WR6         REGSYM    ---      WORD      iLenIn
      000005B8H   SYMBOL    EDATA    ---       pCRCOut
      00FEEB59H   BLOCK     ECODE    NEAR LAB  LVL=1
      WR0         REGSYM    ---      WORD      i
      WR4         REGSYM    ---      WORD      j
      WR2         REGSYM    ---      WORD      wCRC
      ---         BLOCKEND  ---      ---       LVL=1
      00FEEB57H   LINE      ECODE    ---       #294
      00FEEB59H   LINE      ECODE    ---       #295
      00FEEB59H   LINE      ECODE    ---       #296
      00FEEB5BH   LINE      ECODE    ---       #297
      00FEEB5FH   LINE      ECODE    ---       #299
      00FEEB61H   LINE      ECODE    ---       #301
      00FEEB6CH   LINE      ECODE    ---       #303
      00FEEB6EH   LINE      ECODE    ---       #305
      00FEEB7EH   LINE      ECODE    ---       #306
      00FEEB80H   LINE      ECODE    ---       #308
      00FEEB88H   LINE      ECODE    ---       #309
      00FEEB8EH   LINE      ECODE    ---       #311
      00FEEB95H   LINE      ECODE    ---       #312
      ---         BLOCKEND  ---      ---       LVL=0

      00FEEB96H   BLOCK     ECODE    ---       LVL=0
      REG=0       REGSYM    ---      ---       puchMsg
      WR4         REGSYM    ---      WORD      usDataLen
      00FEEB9AH   BLOCK     ECODE    NEAR LAB  LVL=1
      WR6         REGSYM    ---      WORD      wCRCin
      WR8         REGSYM    ---      WORD      wCPoly
      R10         REGSYM    ---      BYTE      wChar
      R15         REGSYM    ---      BYTE      i
      ---         BLOCKEND  ---      ---       LVL=1
      00FEEB96H   LINE      ECODE    ---       #323
      00FEEB9AH   LINE      ECODE    ---       #324
      00FEEB9AH   LINE      ECODE    ---       #325
      00FEEB9EH   LINE      ECODE    ---       #326
      00FEEBA2H   LINE      ECODE    ---       #327
      00FEEBA2H   LINE      ECODE    ---       #329
      00FEEBA4H   LINE      ECODE    ---       #331
      00FEEBABH   LINE      ECODE    ---       #332
      00FEEBB7H   LINE      ECODE    ---       #333
      00FEEBB7H   LINE      ECODE    ---       #335
      00FEEBBFH   LINE      ECODE    ---       #336
      00FEEBC5H   LINE      ECODE    ---       #338
      00FEEBC7H   LINE      ECODE    ---       #339
      00FEEBCEH   LINE      ECODE    ---       #340
      00FEEBD6H   LINE      ECODE    ---       #342
      00FEEBD6H   LINE      ECODE    ---       #344
L251 LINKER/LOCATER V4.65.0.0                                                         06/22/2017  19:19:11  PAGE 67


      ---         BLOCKEND  ---      ---       LVL=0

      00FEEBD9H   BLOCK     ECODE    ---       LVL=0
      REG=0       REGSYM    ---      ---       input_str
      WR4         REGSYM    ---      WORD      num_bytes
      00FEEBDDH   BLOCK     ECODE    NEAR LAB  LVL=1
      WR6         REGSYM    ---      WORD      crc
      WR4         REGSYM    ---      WORD      low_byte
      WR6         REGSYM    ---      WORD      high_byte
      WR30        REGSYM    ---      WORD      short_c
      WR10        REGSYM    ---      WORD      short_p
      REG=0       REGSYM    ---      ---       ptr
      WR8         REGSYM    ---      WORD      a
      ---         BLOCKEND  ---      ---       LVL=1
      00FEEBD9H   LINE      ECODE    ---       #353
      00FEEBDDH   LINE      ECODE    ---       #354
      00FEEBDDH   LINE      ECODE    ---       #364
      00FEEBE1H   LINE      ECODE    ---       #365
      00FEEBE1H   LINE      ECODE    ---       #366
      00FEEBE3H   LINE      ECODE    ---       #368
      00FEEBE9H   LINE      ECODE    ---       #369
      00FEEBEBH   LINE      ECODE    ---       #372
      00FEEBF0H   LINE      ECODE    ---       #374
      00FEEC00H   LINE      ECODE    ---       #375
      00FEEC02H   LINE      ECODE    ---       #377
      00FEEC06H   LINE      ECODE    ---       #378
      00FEEC0BH   LINE      ECODE    ---       #380
      00FEEC0DH   LINE      ECODE    ---       #381
      00FEEC13H   LINE      ECODE    ---       #383
      00FEEC17H   LINE      ECODE    ---       #384
      00FEEC1BH   LINE      ECODE    ---       #385
      00FEEC1DH   LINE      ECODE    ---       #387
      00FEEC1DH   LINE      ECODE    ---       #389
      ---         BLOCKEND  ---      ---       LVL=0

      00FEEC20H   BLOCK     ECODE    ---       LVL=0
      0000054EH   SYMBOL    EDATA    ---       buf
      0000055EH   SYMBOL    EDATA    WORD      lcd_ecc
      00000560H   SYMBOL    EDATA    ---       Lbuf
      00FEEC20H   LINE      ECODE    ---       #399
      00FEEC20H   LINE      ECODE    ---       #400
      00FEEC20H   LINE      ECODE    ---       #401
      00FEEC32H   LINE      ECODE    ---       #402
      00FEEC32H   LINE      ECODE    ---       #403
      00FEEC51H   LINE      ECODE    ---       #405
      00FEEC51H   LINE      ECODE    ---       #406
      00FEEC5BH   LINE      ECODE    ---       #407
      00FEEC7BH   LINE      ECODE    ---       #408
      00FEEC8BH   LINE      ECODE    ---       #410
      00FEEC97H   LINE      ECODE    ---       #411
      00FEECB7H   LINE      ECODE    ---       #412
      00FEECC7H   LINE      ECODE    ---       #414
      00FEECD3H   LINE      ECODE    ---       #415
      00FEECF3H   LINE      ECODE    ---       #416
      00FEED03H   LINE      ECODE    ---       #418
      00FEED0FH   LINE      ECODE    ---       #419
      00FEED2FH   LINE      ECODE    ---       #420
      00FEED3FH   LINE      ECODE    ---       #423
      00FEED4BH   LINE      ECODE    ---       #424
      00FEED6BH   LINE      ECODE    ---       #425
      00FEED7BH   LINE      ECODE    ---       #427
      00FEED87H   LINE      ECODE    ---       #428
      00FEEDA7H   LINE      ECODE    ---       #429
      00FEEDB7H   LINE      ECODE    ---       #431
      00FEEDC3H   LINE      ECODE    ---       #432
L251 LINKER/LOCATER V4.65.0.0                                                         06/22/2017  19:19:11  PAGE 68


      00FEEDE3H   LINE      ECODE    ---       #433
      00FEEDF3H   LINE      ECODE    ---       #435
      00FEEE03H   LINE      ECODE    ---       #436
      00FEEE13H   LINE      ECODE    ---       #440
      00FEEE23H   LINE      ECODE    ---       #441
      00FEEE33H   LINE      ECODE    ---       #445
      00FEEE47H   LINE      ECODE    ---       #446
      00FEEE5BH   LINE      ECODE    ---       #450
      00FEEE5DH   LINE      ECODE    ---       #451
      ---         BLOCKEND  ---      ---       LVL=0

      00FEEE5EH   BLOCK     ECODE    ---       LVL=0
      00FEEE60H   BLOCK     ECODE    NEAR LAB  LVL=1
      R15         REGSYM    ---      BYTE      test_cnt
      ---         BLOCKEND  ---      ---       LVL=1
      00FEEE5EH   LINE      ECODE    ---       #461
      00FEEE60H   LINE      ECODE    ---       #462
      00FEEE60H   LINE      ECODE    ---       #463
      00FEEE63H   LINE      ECODE    ---       #465
      00FEEE65H   LINE      ECODE    ---       #467
      00FEEE68H   LINE      ECODE    ---       #468
      00FEEE70H   LINE      ECODE    ---       #470
      ---         BLOCKEND  ---      ---       LVL=0

      ---         MODULE    ---      ---       uart
      00FEF947H   PUBLIC    ECODE    ---       CLK_DIV?
      00FEFA2CH   PUBLIC    ECODE    ---       wait_printf_done?
      00FEF932H   PUBLIC    ECODE    ---       ParityCheck?
      00FEF9E9H   PUBLIC    ECODE    ---       DrvUartInit?
      00FEF9A3H   PUBLIC    ECODE    ---       ISR_Uart?
      00FEF95CH   PUBLIC    ECODE    ---       putchar?
      00000429H   PUBLIC    EDATA    ---       s_aucUartOutBuf
      00000523H   PUBLIC    EDATA    BYTE      s_ucUartTxStore
      00000524H   PUBLIC    EDATA    BYTE      s_ucUartTxLen
      00000525H   PUBLIC    EDATA    BYTE      s_ucUartTxPos
      000000B6H   SFRSYM    DATA     BYTE      RTCCON1
      000000BFH   SFRSYM    DATA     BYTE      CGUCON8
      000000CEH   SFRSYM    DATA     BYTE      CGUCON6
      000000CDH   SFRSYM    DATA     BYTE      CGUCON5
      000000CCH   SFRSYM    DATA     BYTE      CGUCON4
      000000CBH   SFRSYM    DATA     BYTE      CGUCON3
      000000CAH   SFRSYM    DATA     BYTE      CGUCON2
      000000C8H   SFRSYM    DATA     BYTE      CGUCON1
      000000C9H   SFRSYM    DATA     BYTE      CGUCON0
      000000D9H   SFRSYM    DATA     BYTE      MEMBIST_ERRMAP2
      000000D8H   SFRSYM    DATA     BYTE      MEMBIST_ERRMAP1
      00000098H.3 SFRSYM    DATA     BIT       UART1
      00000098H.2 SFRSYM    DATA     BIT       UART0
      000000B0H   SFRSYM    DATA     BYTE      ANACON9
      000000A0H   SFRSYM    DATA     BYTE      ANACON8
      000000D5H   SFRSYM    DATA     BYTE      MEMBIST_FINISH2
      000000C7H   SFRSYM    DATA     BYTE      ANACON7
      000000D4H   SFRSYM    DATA     BYTE      MEMBIST_FINISH1
      000000E9H   SFRSYM    DATA     BYTE      SFTRST
      000000EEH   SFRSYM    DATA     BYTE      P1SEL
      000000C3H   SFRSYM    DATA     BYTE      ANACON3
      000000ECH   SFRSYM    DATA     BYTE      P0SEL
      000000C2H   SFRSYM    DATA     BYTE      ANACON2
      000000B8H.6 SFRSYM    DATA     BIT       Uart_IPL
      000000C1H   SFRSYM    DATA     BYTE      ANACON1
      000000EDH   SFRSYM    DATA     BYTE      P1MOD
      00000098H   SFRSYM    DATA     BYTE      SYSCON
      000000ADH   SFRSYM    DATA     BYTE      P1DIR
      000000EBH   SFRSYM    DATA     BYTE      P0MOD
      000000ACH   SFRSYM    DATA     BYTE      P0DIR
L251 LINKER/LOCATER V4.65.0.0                                                         06/22/2017  19:19:11  PAGE 69


      000000C8H.2 SFRSYM    DATA     BIT       UARTCKEN
      000000B7H.6 SFRSYM    DATA     BIT       Uart_IPH
      00000094H   SFRSYM    DATA     BYTE      P1BUF
      00000080H   SFRSYM    DATA     BYTE      P0BUF
      000000E4H   SFRSYM    DATA     BYTE      TESTCON3
      000000E3H   SFRSYM    DATA     BYTE      TESTCON2
      000000E5H   SFRSYM    DATA     BYTE      IWKSTA
      0000009AH   SFRSYM    DATA     BYTE      WDTREL
      000000E2H   SFRSYM    DATA     BYTE      TESTCON1
      000000E1H   SFRSYM    DATA     BYTE      TESTCON0
      00000099H   SFRSYM    DATA     BYTE      WDTCON
      000000C0H   SFRSYM    DATA     BYTE      AIF
      000000E8H   SFRSYM    DATA     BYTE      AIE
      000000ABH   SFRSYM    DATA     BYTE      UART_RELL
      000000BDH   SFRSYM    DATA     BYTE      FT_EN_REG
      0000009EH   SFRSYM    DATA     BYTE      RTCCON
      000000AEH   SFRSYM    DATA     BYTE      UART_RELH
      000000FEH   SFRSYM    DATA     BYTE      LED_EN
      000000B9H   SFRSYM    DATA     BYTE      CNTCON
      000000D7H   SFRSYM    DATA     BYTE      MEMBIST_FAIL2
      000000D6H   SFRSYM    DATA     BYTE      MEMBIST_FAIL1
      000000A9H.1 SFRSYM    DATA     BIT       UART_TI
      000000D3H   SFRSYM    DATA     BYTE      MEMBIST_EN2
      000000D2H   SFRSYM    DATA     BYTE      MEMBIST_EN1
      0000009BH   SFRSYM    DATA     BYTE      TDIV
      000000EFH   SFRSYM    DATA     BYTE      XDP_STA
      00000088H   SFRSYM    DATA     BYTE      TCON
      00000089H   SFRSYM    DATA     BYTE      TMOD
      000000A7H   SFRSYM    DATA     BYTE      SPI0CON5
      000000B2H   SFRSYM    DATA     BYTE      SPI1CON4
      000000B1H   SFRSYM    DATA     BYTE      SPI1CON3
      000000A5H   SFRSYM    DATA     BYTE      SPI0CON3
      000000B4H   SFRSYM    DATA     BYTE      SPI1CON2
      000000EAH   SFRSYM    DATA     BYTE      ANACON
      00000087H   SFRSYM    DATA     BYTE      PCON
      000000A3H   SFRSYM    DATA     BYTE      SPI0CON2
      000000DAH   SFRSYM    DATA     BYTE      DSV_CON
      000000F8H   SFRSYM    DATA     BYTE      AIPL
      00000095H   SFRSYM    DATA     BYTE      I2CSEL
      000000F5H   SFRSYM    DATA     BYTE      SSCG_CON0
      000000F7H   SFRSYM    DATA     BYTE      AIPH
      000000FDH   SFRSYM    DATA     BYTE      I2C_STATE
      00000090H   SFRSYM    DATA     BYTE      I2CCON
      000000A9H   SFRSYM    DATA     BYTE      UARTCON
      000000AAH   SFRSYM    DATA     BYTE      UARTBUF
      000000B8H   SFRSYM    DATA     BYTE      IPL0
      000000F3H   SFRSYM    DATA     BYTE      ANACON10
      000000B7H   SFRSYM    DATA     BYTE      IPH0
      000000DFH   SFRSYM    DATA     BYTE      IEN1
      000000A8H   SFRSYM    DATA     BYTE      IEN0
      000000A8H.6 SFRSYM    DATA     BIT       EC
      00000093H   SFRSYM    DATA     BYTE      I2CSTOP
      000000B3H   SFRSYM    DATA     BYTE      SPI1CON
      000000A2H   SFRSYM    DATA     BYTE      SPI0CON

      00FEF932H   BLOCK     ECODE    ---       LVL=0
      R7          REGSYM    ---      BYTE      x
      00FEF934H   BLOCK     ECODE    NEAR LAB  LVL=1
      R10         REGSYM    ---      BYTE      val
      ---         BLOCKEND  ---      ---       LVL=1
      00FEF932H   LINE      ECODE    ---       #73
      00FEF934H   LINE      ECODE    ---       #74
      00FEF934H   LINE      ECODE    ---       #75
      00FEF936H   LINE      ECODE    ---       #76
      00FEF938H   LINE      ECODE    ---       #78
L251 LINKER/LOCATER V4.65.0.0                                                         06/22/2017  19:19:11  PAGE 70


      00FEF93AH   LINE      ECODE    ---       #79
      00FEF93CH   LINE      ECODE    ---       #80
      00FEF940H   LINE      ECODE    ---       #81
      00FEF946H   LINE      ECODE    ---       #82
      ---         BLOCKEND  ---      ---       LVL=0

      00FEF947H   BLOCK     ECODE    ---       LVL=0
      R11         REGSYM    ---      BYTE      div
      00FEF947H   LINE      ECODE    ---       #91
      00FEF947H   LINE      ECODE    ---       #93
      00FEF950H   LINE      ECODE    ---       #95
      00FEF950H   LINE      ECODE    ---       #96
      00FEF953H   LINE      ECODE    ---       #97
      00FEF953H   LINE      ECODE    ---       #98
      00FEF956H   LINE      ECODE    ---       #99
      00FEF956H   LINE      ECODE    ---       #100
      00FEF959H   LINE      ECODE    ---       #101
      00FEF959H   LINE      ECODE    ---       #102
      00FEF95BH   LINE      ECODE    ---       #103
      00FEF95BH   LINE      ECODE    ---       #105
      00FEF95BH   LINE      ECODE    ---       #106
      ---         BLOCKEND  ---      ---       LVL=0

      00FEF95CH   BLOCK     ECODE    ---       LVL=0
      R10         REGSYM    ---      CHAR      ch
      00FEF95CH   LINE      ECODE    ---       #115
      00FEF95EH   LINE      ECODE    ---       #117
      00FEF960H   LINE      ECODE    ---       #118
      00FEF969H   LINE      ECODE    ---       #120
      00FEF96BH   LINE      ECODE    ---       #121
      00FEF974H   LINE      ECODE    ---       #122
      00FEF97BH   LINE      ECODE    ---       #124
      00FEF97EH   LINE      ECODE    ---       #125
      00FEF980H   LINE      ECODE    ---       #128
      00FEF991H   LINE      ECODE    ---       #129
      00FEF99AH   LINE      ECODE    ---       #131
      00FEF99FH   LINE      ECODE    ---       #132
      00FEF99FH   LINE      ECODE    ---       #134
      00FEF9A1H   LINE      ECODE    ---       #135
      00FEF9A2H   LINE      ECODE    ---       #136
      ---         BLOCKEND  ---      ---       LVL=0

      00FEF9A3H   BLOCK     ECODE    ---       LVL=0
      00FEF9A3H   LINE      ECODE    ---       #178
      00FEF9A7H   LINE      ECODE    ---       #202
      00FEF9ABH   LINE      ECODE    ---       #204
      00FEF9AEH   LINE      ECODE    ---       #205
      00FEF9B4H   LINE      ECODE    ---       #207
      00FEF9BDH   LINE      ECODE    ---       #208
      00FEF9C3H   LINE      ECODE    ---       #216
      00FEF9D6H   LINE      ECODE    ---       #217
      00FEF9DFH   LINE      ECODE    ---       #219
      00FEF9E4H   LINE      ECODE    ---       #220
      00FEF9E4H   LINE      ECODE    ---       #222
      00FEF9E4H   LINE      ECODE    ---       #223
      00FEF9E4H   LINE      ECODE    ---       #224
      ---         BLOCKEND  ---      ---       LVL=0

      00FEF9E9H   BLOCK     ECODE    ---       LVL=0
      WR6         REGSYM    ---      WORD      cnt
      00FEF9E9H   LINE      ECODE    ---       #235
      00FEF9E9H   LINE      ECODE    ---       #236
      00FEF9E9H   LINE      ECODE    ---       #240
      00FEF9EBH   LINE      ECODE    ---       #241
      00FEF9EDH   LINE      ECODE    ---       #242
L251 LINKER/LOCATER V4.65.0.0                                                         06/22/2017  19:19:11  PAGE 71


      00FEF9F0H   LINE      ECODE    ---       #280
      00FEF9F3H   LINE      ECODE    ---       #281
      00FEF9F5H   LINE      ECODE    ---       #283
      00FEF9F7H   LINE      ECODE    ---       #289
      00FEF9FAH   LINE      ECODE    ---       #292
      00FEFA23H   LINE      ECODE    ---       #293
      00FEFA27H   LINE      ECODE    ---       #294
      00FEFA2BH   LINE      ECODE    ---       #296
      ---         BLOCKEND  ---      ---       LVL=0

      00FEFA2CH   BLOCK     ECODE    ---       LVL=0
      00FEFA2CH   LINE      ECODE    ---       #297
      00FEFA2CH   LINE      ECODE    ---       #299
      00FEFA32H   LINE      ECODE    ---       #301
      ---         BLOCKEND  ---      ---       LVL=0

      ---         MODULE    ---      ---       ?C?INITEDATA
      00FF0060H   PUBLIC    CODE     ---       ?C?INITEDATA

      ---         MODULE    ---      ---       ?C?SLDIV?
      00FEEE73H   PUBLIC    ECODE    FAR LAB   ?C?SLDIV?

      ---         MODULE    ---      ---       ?C?BMOVENP?
      00FEEEA9H   PUBLIC    ECODE    ---       ?C?BMOVENP8?
      00FEEEABH   PUBLIC    ECODE    ---       ?C?BMOVENP?

      ---         MODULE    ---      ---       PRINTF?
      0000054EH   PUBLIC    EDATA    ---       ?PRINTF??BYTE
      00FEEECEH   PUBLIC    ECODE    FAR LAB   PRINTF?

      ---         MODULE    ---      ---       ?C?INITEDATA_END
      00FF02B8H   PUBLIC    HCONST   WORD      ?C?INITEDATA_END

      ---         MODULE    ---      ---       ?C?ULDIV?
      00FEEEFDH   PUBLIC    ECODE    FAR LAB   ?C?ULDIV?
      00FEEEFBH   PUBLIC    ECODE    FAR LAB   ?C?ULIDIV?

      ---         MODULE    ---      ---       ?C?PRNFMT?
      00FEEF7BH   PUBLIC    ECODE    ---       ?C?PRNFMT?



*** WARNING L16: UNCALLED FUNCTION, IGNORED FOR OVERLAY PROCESS
    NAME:    Test_WriteRamReg?/Test_Reg

*** WARNING L16: UNCALLED FUNCTION, IGNORED FOR OVERLAY PROCESS
    NAME:    Test_AfeRegWrite?/Test_Reg

*** WARNING L16: UNCALLED FUNCTION, IGNORED FOR OVERLAY PROCESS
    NAME:    Test_CLk48M?/Test_DebugOut

*** WARNING L16: UNCALLED FUNCTION, IGNORED FOR OVERLAY PROCESS
    NAME:    Test_CON1?/Test_DebugOut

*** WARNING L16: UNCALLED FUNCTION, IGNORED FOR OVERLAY PROCESS
    NAME:    Test_CON3?/Test_DebugOut

*** WARNING L16: UNCALLED FUNCTION, IGNORED FOR OVERLAY PROCESS
    NAME:    DrvSysPowerMode?/Drv_mcu

*** WARNING L16: UNCALLED FUNCTION, IGNORED FOR OVERLAY PROCESS
    NAME:    Drv_XsiInit?/Drv_XSI

*** WARNING L16: UNCALLED FUNCTION, IGNORED FOR OVERLAY PROCESS
    NAME:    Drv_XsiRead?/Drv_XSI
L251 LINKER/LOCATER V4.65.0.0                                                         06/22/2017  19:19:11  PAGE 72



*** WARNING L16: UNCALLED FUNCTION, IGNORED FOR OVERLAY PROCESS
    NAME:    Drv_XsiWrite?/Drv_XSI

*** WARNING L16: UNCALLED FUNCTION, IGNORED FOR OVERLAY PROCESS
    NAME:    Drv_XbusInit?/Drv_XBUS

*** WARNING L16: UNCALLED FUNCTION, IGNORED FOR OVERLAY PROCESS
    NAME:    DrvXbus_ReadLcd16?/Drv_XBUS

*** WARNING L16: UNCALLED FUNCTION, IGNORED FOR OVERLAY PROCESS
    NAME:    DrvXbus_WriteLcd8?/Drv_XBUS

*** WARNING L16: UNCALLED FUNCTION, IGNORED FOR OVERLAY PROCESS
    NAME:    crc_kermit?/crckrmit

*** WARNING L16: UNCALLED FUNCTION, IGNORED FOR OVERLAY PROCESS
    NAME:    update_crc_kermit?/crckrmit

*** WARNING L16: UNCALLED FUNCTION, IGNORED FOR OVERLAY PROCESS
    NAME:    CRC16_LCD?/Drv_CRC

*** WARNING L16: UNCALLED FUNCTION, IGNORED FOR OVERLAY PROCESS
    NAME:    Test_CRC?/Drv_CRC

*** WARNING L16: UNCALLED FUNCTION, IGNORED FOR OVERLAY PROCESS
    NAME:    ParityCheck?/uart

*** WARNING L16: UNCALLED FUNCTION, IGNORED FOR OVERLAY PROCESS
    NAME:    wait_printf_done?/uart

Program Size: data=8.3 edata+hdata=1692 xdata=0 const=1488 code=4963
L251 RUN COMPLETE.  18 WARNING(S),  0 ERROR(S)
