L251 LINKER/LOCATER V4.65.0.0                                                           04/14/2017  16:04:05  PAGE 1


L251 LINKER/LOCATER V4.65.0.0, INVOKED BY:
D:\PROGRAM FILES (X86)\KEIL\C251\BIN\L251.EXE .\obj\main.obj, .\obj\START251.obj, .\obj\Test_Afe.obj, .\obj\Test_Aram.ob
>> j, .\obj\Test_CAL.obj, .\obj\Test_counter.obj, .\obj\Test_Dram.obj, .\obj\Test_GPIO.obj, .\obj\Test_gpio_wakeup.obj, 
>> .\obj\Test_i2c.obj, .\obj\Test_i2c_wakeup.obj, .\obj\Test_int_nest.obj, .\obj\Test_LED.obj, .\obj\Test_Prom.obj, .\ob
>> j\Test_Reg.obj, .\obj\Test_romboot.obj, .\obj\Test_SFR.obj, .\obj\Test_spi.obj, .\obj\Test_timer.obj, .\obj\Test_wdt.
>> obj, .\obj\Test_Xbus.obj, .\obj\Test_RomEcc.obj, .\obj\Test_Uart.obj, .\obj\Test_SFT_RST.obj, .\obj\Test_spi0.obj, .\
>> obj\Test_spi0_dma.obj, .\obj\Test_RTC.obj, .\obj\Drv_Cal.obj, .\obj\Drv_mcu.obj, .\obj\Drv_XSI.obj, .\obj\Drv_XBUS.ob
>> j, .\obj\uart.obj TO .\obj\mcu PRINT (.\list\mcu.map) CASE CLASSES (EDATA (0X20-0X9FFF), HDATA (0X20-0X9FFF), ECODE (
>> 0XFEE800-0XFEFFFF), ECODE (0XFF0000-0XFFFFFF))


CPU MODE:     251 SOURCE MODE
INTR FRAME:   4 BYTES SAVED ON INTERRUPT
MEMORY MODEL: XSMALL


INPUT MODULES INCLUDED:
  .\obj\main.obj (main)
         COMMENT TYPE 0: C251 V5.54.0.0
  .\obj\START251.obj (?C_START?)
         COMMENT TYPE 0: A251 V4.65.0.0
  .\obj\Test_Afe.obj (Test_Afe)
         COMMENT TYPE 0: C251 V5.54.0.0
  .\obj\Test_Aram.obj (Test_Aram)
         COMMENT TYPE 0: C251 V5.54.0.0
  .\obj\Test_CAL.obj (Test_CAL)
         COMMENT TYPE 0: C251 V5.54.0.0
  .\obj\Test_counter.obj (Test_counter)
         COMMENT TYPE 0: C251 V5.54.0.0
  .\obj\Test_Dram.obj (Test_Dram)
         COMMENT TYPE 0: C251 V5.54.0.0
  .\obj\Test_GPIO.obj (Test_GPIO)
         COMMENT TYPE 0: C251 V5.54.0.0
  .\obj\Test_gpio_wakeup.obj (Test_gpio_wakeup)
         COMMENT TYPE 0: C251 V5.54.0.0
  .\obj\Test_i2c.obj (Test_i2c)
         COMMENT TYPE 0: C251 V5.54.0.0
  .\obj\Test_i2c_wakeup.obj (Test_i2c_wakeup)
         COMMENT TYPE 0: C251 V5.54.0.0
  .\obj\Test_int_nest.obj (Test_int_nest)
         COMMENT TYPE 0: C251 V5.54.0.0
  .\obj\Test_LED.obj (Test_LED)
         COMMENT TYPE 0: C251 V5.54.0.0
  .\obj\Test_Prom.obj (Test_Prom)
         COMMENT TYPE 0: C251 V5.54.0.0
  .\obj\Test_Reg.obj (Test_Reg)
         COMMENT TYPE 0: C251 V5.54.0.0
  .\obj\Test_romboot.obj (Test_romboot)
         COMMENT TYPE 0: C251 V5.54.0.0
  .\obj\Test_SFR.obj (Test_SFR)
         COMMENT TYPE 0: C251 V5.54.0.0
  .\obj\Test_spi.obj (Test_spi)
         COMMENT TYPE 0: C251 V5.54.0.0
  .\obj\Test_timer.obj (Test_timer)
         COMMENT TYPE 0: C251 V5.54.0.0
  .\obj\Test_wdt.obj (Test_wdt)
         COMMENT TYPE 0: C251 V5.54.0.0
  .\obj\Test_Xbus.obj (Test_Xbus)
         COMMENT TYPE 0: C251 V5.54.0.0
  .\obj\Test_RomEcc.obj (Test_RomEcc)
         COMMENT TYPE 0: C251 V5.54.0.0
  .\obj\Test_Uart.obj (Test_Uart)
         COMMENT TYPE 0: C251 V5.54.0.0
  .\obj\Test_SFT_RST.obj (Test_SFT_RST)
         COMMENT TYPE 0: C251 V5.54.0.0
  .\obj\Test_spi0.obj (Test_spi0)
L251 LINKER/LOCATER V4.65.0.0                                                         04/14/2017  16:04:05  PAGE 2


         COMMENT TYPE 0: C251 V5.54.0.0
  .\obj\Test_spi0_dma.obj (Test_spi0_dma)
         COMMENT TYPE 0: C251 V5.54.0.0
  .\obj\Test_RTC.obj (Test_RTC)
         COMMENT TYPE 0: C251 V5.54.0.0
  .\obj\Drv_Cal.obj (Drv_Cal)
         COMMENT TYPE 0: C251 V5.54.0.0
  .\obj\Drv_mcu.obj (Drv_mcu)
         COMMENT TYPE 0: C251 V5.54.0.0
  .\obj\Drv_XSI.obj (Drv_XSI)
         COMMENT TYPE 0: C251 V5.54.0.0
  .\obj\Drv_XBUS.obj (Drv_XBUS)
         COMMENT TYPE 0: C251 V5.54.0.0
  .\obj\uart.obj (uart)
         COMMENT TYPE 0: C251 V5.54.0.0
  D:\PROGRAM FILES (X86)\KEIL\C251\LIB\C2SXS.LIB (?C?INITEDATA)
         COMMENT TYPE 0: A251 V4.60
  D:\PROGRAM FILES (X86)\KEIL\C251\LIB\C2SXS.LIB (?C?INITEDATA_END)
         COMMENT TYPE 0: A251 V4.60


ACTIVE MEMORY CLASSES OF MODULE:  .\obj\mcu (main)

BASE        START       END         USED      MEMORY CLASS
==========================================================
000000H     000020H     009FFFH     00013BH   EDATA
000000H     000020H     009FFFH               HDATA
000000H     FEE800H     FEFFFFH     000514H   ECODE
            FF0000H     FFFFFFH                 
FF0000H     FF0000H     FFFFFFH     000067H   CODE
000020H.0   000020H.0   00002FH.7   000000H.4 BIT
000000H     FF0000H     FFFFFFH     000025H   HCONST
000000H     000000H     00007FH     000008H   DATA


MEMORY MAP OF MODULE:  .\obj\mcu (main)


START     STOP      LENGTH    ALIGN  RELOC    MEMORY CLASS   SEGMENT NAME
=========================================================================
000000H   000007H   000008H   ---    AT..     DATA           "REG BANK 0"
000008H.0 00001FH.7 000018H.0 ---    ---      **GAP**
000020H.0 000020H.1 000000H.2 BIT    UNIT     BIT            ?BI?TEST_RTC
000020H.2 000020H.2 000000H.1 BIT    UNIT     BIT            ?BI?TEST_WRITERAMREG??TEST_REG
000020H.3 000020H.3 000000H.1 BIT    UNIT     BIT            ?BI?TEST_AFEREGWRITE??TEST_REG
000020H.4 000020H   000000H.4 ---    ---      **GAP**
000021H   000030H   000010H   BYTE   UNIT     EDATA          ?ED?DRV_MCU
000031H   00003EH   00000EH   BYTE   UNIT     EDATA          ?ED?TEST_AFEREGWRITE??TEST_REG
00003FH   000046H   000008H   BYTE   UNIT     EDATA          ?ED?DRV_XSI
000047H   00004DH   000007H   BYTE   UNIT     EDATA          ?ED?DRV_XSIREAD??DRV_XSI
00004EH   000053H   000006H   BYTE   UNIT     EDATA          ?ED?DRV_XSIWRITE??DRV_XSI
000054H   000057H   000004H   BYTE   UNIT     EDATA          ?ED?DRV_XBUS
000058H   00005AH   000003H   BYTE   UNIT     EDATA          ?ED?TEST_RTC
00005BH   00005BH   000001H   BYTE   UNIT     EDATA          ?ED?DRVXBUS_READLCD16??DRV_XBUS
00005CH   00015BH   000100H   BYTE   UNIT     EDATA          ?STACK
00015CH   FEE7FFH   FEE6A4H   ---    ---      **GAP**
FEE800H   FEE8E0H   0000E1H   BYTE   INSEG    ECODE          ?PR?DRV_MCU
FEE8E1H   FEE8FFH   00001FH   ---    ---      **GAP**
FEE900H   FEE99FH   0000A0H   BYTE   AT..     ECODE          ?EC?AT_FEE900_?1?MAIN
FEE9A0H   FEEAEAH   00014BH   BYTE   INSEG    ECODE          ?PR?DRV_XSI
FEEAEBH   FEEBF0H   000106H   BYTE   INSEG    ECODE          ?PR?TEST_REG
FEEBF1H   FEECB3H   0000C3H   BYTE   INSEG    ECODE          ?PR?TEST_RTC
FEECB4H   FEED01H   00004EH   BYTE   INSEG    ECODE          ?PR?DRV_XBUS
FEED02H   FEED32H   000031H   BYTE   INSEG    ECODE          ?PR?MAIN
FEED33H   FEFFFFH   0012CDH   ---    ---      **GAP**
L251 LINKER/LOCATER V4.65.0.0                                                         04/14/2017  16:04:05  PAGE 3


FF0000H   FF0002H   000003H   ---    OFFS..   CODE           ?CO?START251?4
FF0003H   FF0006H   000004H   ---    OFFS..   CODE           ?PR?IV?0
FF0007H   FF000AH   000004H   ---    ---      **GAP**
FF000BH   FF000EH   000004H   ---    OFFS..   CODE           ?PR?IV?1
FF000FH   FF0012H   000004H   ---    ---      **GAP**
FF0013H   FF0016H   000004H   ---    OFFS..   CODE           ?PR?IV?2
FF0017H   FF003DH   000027H   BYTE   UNIT     CODE           ?C_C51STARTUP
FF003EH   FF0041H   000004H   BYTE   UNIT     CODE           ?C_C51STARTUP?1
FF0042H   FF006AH   000029H   BYTE   UNIT     CODE           ?C_C51STARTUP?2
FF006BH   FF006EH   000004H   BYTE   UNIT     CODE           ?C_C51STARTUP?3
FF006FH   FF0093H   000025H   BYTE   UNIT     HCONST         ?C_INITEDATA



OVERLAY MAP OF MODULE:   .\obj\mcu (main)


FUNCTION/MODULE                  BIT_GROUP   DATA_GROUP 
--> CALLED FUNCTION/MODULE      START  STOP  START  STOP
========================================================
?C_C51STARTUP                   ----- -----  ----- -----

*** NEW ROOT ******************

?C_C51STARTUP?3                 ----- -----  ----- -----
  +--> main?/main

main?/main                      ----- -----  ----- -----
  +--> init_mcu?/main
  +--> Test_RTC?/Test_RTC
  +--> DelayMs?/Drv_mcu

init_mcu?/main                  ----- -----  ----- -----
  +--> DrvSysClkInit?/Drv_mcu
  +--> DrvIOInit?/Drv_mcu

DrvSysClkInit?/Drv_mcu          ----- -----  ----- -----

DrvIOInit?/Drv_mcu              ----- -----  ----- -----

Test_RTC?/Test_RTC              ----- -----  ----- -----
  +--> DrvSysTimer0_Init?/Test_RTC
  +--> DrvRTCInit?/Test_RTC
  +--> ExternInt1Init?/Test_RTC
  +--> DelayMs?/Drv_mcu

DrvSysTimer0_Init?/Test_RTC     ----- -----  ----- -----

DrvRTCInit?/Test_RTC            ----- -----  ----- -----
  +--> DelayMs?/Drv_mcu

DelayMs?/Drv_mcu                ----- -----  ----- -----
  +--> DelayUs?/Drv_mcu

DelayUs?/Drv_mcu                ----- -----  ----- -----

ExternInt1Init?/Test_RTC        ----- -----  ----- -----

*** NEW ROOT ******************

Exint0_IRQHandler?/Test_RTC     ----- -----  ----- -----

*** NEW ROOT ******************

Timer0_IRQHandler?/Test_RTC     ----- -----  ----- -----
L251 LINKER/LOCATER V4.65.0.0                                                         04/14/2017  16:04:05  PAGE 4



*** NEW ROOT ******************

Exint1_IRQHandler?/Test_RTC     ----- -----  ----- -----

*** NEW ROOT ******************

?C_C51STARTUP?1                 ----- -----  ----- -----

*** NEW ROOT ******************

?C_C51STARTUP?2                 ----- -----  ----- -----



PUBLIC SYMBOLS OF MODULE:  .\obj\mcu (main)


      VALUE       CLASS    TYPE      PUBLIC SYMBOL NAME
      =================================================
      000000FFH   NUMBER   ---       ?C?CODESEG
      00FF0042H   CODE     ---       ?C?INITEDATA
      00FF0092H   HCONST   WORD      ?C?INITEDATA_END
      00FF0000H   CODE     ---       ?C?STARTUP?
      00000001H   NUMBER   ---       ?C?XDATASEG
      00FF0000H   CODE     ---       ?C_STARTUP?
      00000041H   EDATA    BYTE      ?Drv_XsiRead??BYTE
      00000048H   EDATA    BYTE      ?Drv_XsiWrite??BYTE
      0000002DH   EDATA    BYTE      ?Test_AfeRegWrite??BYTE
*SFR* 000000D0H.6 DATA     BIT       AC
*SFR* 000000E0H   DATA     BYTE      ACC
*SFR* 000000CBH.5 DATA     BIT       AFECKEN
*SFR* 000000E8H   DATA     BYTE      AIE
*SFR* 000000C0H   DATA     BYTE      AIF
*SFR* 000000F7H   DATA     BYTE      AIPH
*SFR* 000000F8H   DATA     BYTE      AIPL
*SFR* 000000EAH   DATA     BYTE      ANACON
*SFR* 000000C1H   DATA     BYTE      ANACON1
*SFR* 000000C2H   DATA     BYTE      ANACON2
*SFR* 000000C3H   DATA     BYTE      ANACON3
*SFR* 000000C7H   DATA     BYTE      ANACON7
*SFR* 000000A0H   DATA     BYTE      ANACON8
*SFR* 000000B0H   DATA     BYTE      ANACON9
*SFR* 000000F0H   DATA     BYTE      B
*SFR* 000000C8H.1 DATA     BIT       C_T2
*SFR* 000000FAH   DATA     BYTE      CCAP0H
*SFR* 000000EAH   DATA     BYTE      CCAP0L
*SFR* 000000FBH   DATA     BYTE      CCAP1H
*SFR* 000000EBH   DATA     BYTE      CCAP1L
*SFR* 000000FCH   DATA     BYTE      CCAP2H
*SFR* 000000ECH   DATA     BYTE      CCAP2L
*SFR* 000000FDH   DATA     BYTE      CCAP3H
*SFR* 000000EDH   DATA     BYTE      CCAP3L
*SFR* 000000FEH   DATA     BYTE      CCAP4H
*SFR* 000000EEH   DATA     BYTE      CCAP4L
*SFR* 000000DAH   DATA     BYTE      CCAPM0
*SFR* 000000DBH   DATA     BYTE      CCAPM1
*SFR* 000000DCH   DATA     BYTE      CCAPM2
*SFR* 000000DDH   DATA     BYTE      CCAPM3
*SFR* 000000DEH   DATA     BYTE      CCAPM4
*SFR* 000000D8H   DATA     BIT       CCF0
*SFR* 000000D8H.1 DATA     BIT       CCF1
*SFR* 000000D8H.2 DATA     BIT       CCF2
*SFR* 000000D8H.3 DATA     BIT       CCF3
*SFR* 000000D8H.4 DATA     BIT       CCF4
L251 LINKER/LOCATER V4.65.0.0                                                         04/14/2017  16:04:05  PAGE 5


*SFR* 000000D8H   DATA     BYTE      CCON
*SFR* 00000090H.3 DATA     BIT       CEX0
*SFR* 00000090H.4 DATA     BIT       CEX1
*SFR* 00000090H.5 DATA     BIT       CEX2
*SFR* 00000090H.6 DATA     BIT       CEX3
*SFR* 00000090H.7 DATA     BIT       CEX4
*SFR* 000000D8H.7 DATA     BIT       CF
*SFR* 000000C9H   DATA     BYTE      CGUCON0
*SFR* 000000C8H   DATA     BYTE      CGUCON1
*SFR* 000000CAH   DATA     BYTE      CGUCON2
*SFR* 000000CBH   DATA     BYTE      CGUCON3
*SFR* 000000CCH   DATA     BYTE      CGUCON4
*SFR* 000000CDH   DATA     BYTE      CGUCON5
*SFR* 000000CEH   DATA     BYTE      CGUCON6
*SFR* 000000CFH   DATA     BYTE      CGUCON7
*SFR* 000000BFH   DATA     BYTE      CGUCON8
*SFR* 000000F9H   DATA     BYTE      CH
*SFR* 000000CAH   DATA     BIT       CKEN_32KRTC
*SFR* 000000E9H   DATA     BYTE      CL
*SFR* 000000CEH   DATA     BIT       CLK_WP
*SFR* 000000CAH.7 DATA     BIT       CLKEN_500K
*SFR* 000000D9H   DATA     BYTE      CMOD
*SFR* 000000B9H   DATA     BYTE      CNTCON
*SFR* 00000087H   DATA     BIT       CORE_IDLE
*SFR* 00000087H.1 DATA     BIT       CORE_STOP
*SFR* 000000C8H   DATA     BIT       CP_RL2
*SFR* 000000D8H.6 DATA     BIT       CR
*SFR* 000000D0H.7 DATA     BIT       CY
      00FEE897H   ECODE    ---       DelayMs?
      00FEE868H   ECODE    ---       DelayUs?
*SFR* 00000083H   DATA     BYTE      DPH
*SFR* 00000082H   DATA     BYTE      DPL
*SFR* 00000084H   DATA     BYTE      DPXL
      00FEECB4H   ECODE    ---       Drv_XbusInit?
      00FEE9A0H   ECODE    ---       Drv_XsiInit?
      00FEEA3CH   ECODE    ---       Drv_XsiRead?
      00FEE9BAH   ECODE    ---       Drv_XsiReadReg?
      00FEEA93H   ECODE    ---       Drv_XsiWrite?
      00FEE9FBH   ECODE    ---       Drv_XsiWriteReg?
      00FEE80BH   ECODE    ---       DrvIOInit?
      00FEEBF1H   ECODE    ---       DrvRTCInit?
      00FEE800H   ECODE    ---       DrvSysClkInit?
      00FEE8B6H   ECODE    ---       DrvSysPowerMode?
      00FEEC2AH   ECODE    ---       DrvSysTimer0_Init?
      00FEECB5H   ECODE    ---       DrvXbus_ReadLcd16?
      00FEECECH   ECODE    ---       DrvXbus_WriteLcd8?
*SFR* 000000DAH   DATA     BYTE      DSV_CON
*SFR* 000000A8H.7 DATA     BIT       EA
*SFR* 000000A8H.6 DATA     BIT       EC
*SFR* 00000090H.2 DATA     BIT       ECI
*SFR* 000000C9H.5 DATA     BIT       EN_32K
*SFR* 000000A8H.4 DATA     BIT       ES
*SFR* 000000A8H.1 DATA     BIT       ET0
*SFR* 000000A8H.3 DATA     BIT       ET1
*SFR* 000000A8H.5 DATA     BIT       ET2
*SFR* 000000A8H   DATA     BIT       EX0
*SFR* 000000A8H.2 DATA     BIT       EX1
*SFR* 000000C8H.3 DATA     BIT       EXEN2
*SFR* 000000C8H.6 DATA     BIT       EXF2
      00FEEC46H   ECODE    ---       Exint0_IRQHandler?
      00FEEC6EH   ECODE    ---       Exint1_IRQHandler?
      00FEEC1AH   ECODE    ---       ExternInt0Init?
      00FEEC3AH   ECODE    ---       ExternInt1Init?
*SFR* 000000D0H.5 DATA     BIT       F0
*SFR* 00000098H.7 DATA     BIT       FE
L251 LINKER/LOCATER V4.65.0.0                                                         04/14/2017  16:04:05  PAGE 6


*SFR* 000000BDH   DATA     BYTE      FT_EN_REG
      00FEE900H   ECODE    ---       g_aucVerfication
      00000020H.0 BIT      BIT       g_bRtcFlag
      00000020H.1 BIT      BIT       g_bWKsrcOut
      00000058H   EDATA    BYTE      g_nWKsrc
      00000021H   EDATA    ---       g_ucbuf
*SFR* 000000FDH   DATA     BYTE      I2C_STATE
*SFR* 00000091H   DATA     BYTE      I2CBUF
*SFR* 00000090H   DATA     BYTE      I2CCON
*SFR* 00000090H   DATA     BIT       I2CRI
*SFR* 00000095H   DATA     BYTE      I2CSEL
*SFR* 00000093H   DATA     BYTE      I2CSTOP
*SFR* 00000093H   DATA     BIT       I2CSTP
*SFR* 00000090H.1 DATA     BIT       I2CTI
*SFR* 000000A8H   DATA     BYTE      IE0
*SFR* 00000088H.1 DATA     BIT       IE0_
*SFR* 000000B1H   DATA     BYTE      IE1
*SFR* 00000088H.3 DATA     BIT       IE1_
*SFR* 000000A8H   DATA     BYTE      IEN0
*SFR* 000000DFH   DATA     BYTE      IEN1
      00FEED02H   ECODE    ---       init_mcu?
*SFR* 000000B0H.2 DATA     BIT       INT0
*SFR* 000000B0H.3 DATA     BIT       INT1
*SFR* 000000B7H   DATA     BYTE      IPH0
*SFR* 000000B7H   DATA     BIT       IPHX0
*SFR* 000000B7H.2 DATA     BIT       IPHX1
*SFR* 000000B8H   DATA     BYTE      IPL0
*SFR* 000000B8H   DATA     BIT       IPLX0
*SFR* 000000B8H.2 DATA     BIT       IPLX1
*SFR* 00000088H   DATA     BIT       IT0
*SFR* 00000088H.2 DATA     BIT       IT1
*SFR* 000000E5H   DATA     BYTE      IWKSTA
*SFR* 000000B6H   DATA     BIT       LCD_START_EN
*SFR* 000000FEH   DATA     BYTE      LED_EN
      00000059H   EDATA    WORD      m_usCnt
      00FEED21H   ECODE    ---       main?
*SFR* 000000D2H   DATA     BYTE      MEMBIST_EN1
*SFR* 000000D3H   DATA     BYTE      MEMBIST_EN2
*SFR* 000000D8H   DATA     BYTE      MEMBIST_ERRMAP1
*SFR* 000000D9H   DATA     BYTE      MEMBIST_ERRMAP2
*SFR* 000000D6H   DATA     BYTE      MEMBIST_FAIL1
*SFR* 000000D7H   DATA     BYTE      MEMBIST_FAIL2
*SFR* 000000D4H   DATA     BYTE      MEMBIST_FINISH1
*SFR* 000000D5H   DATA     BYTE      MEMBIST_FINISH2
*SFR* 000000D0H.2 DATA     BIT       OV
*SFR* 000000D0H   DATA     BIT       P
*SFR* 00000080H   DATA     BYTE      P0
*SFR* 00000080H.2 DATA     BIT       P0_2
*SFR* 00000080H   DATA     BYTE      P0BUF
*SFR* 000000ACH   DATA     BYTE      P0DIR
*SFR* 000000EBH   DATA     BYTE      P0MOD
*SFR* 000000ECH   DATA     BYTE      P0SEL
*SFR* 00000090H   DATA     BYTE      P1
*SFR* 00000094H   DATA     BYTE      P1BUF
*SFR* 000000ADH   DATA     BYTE      P1DIR
*SFR* 000000EDH   DATA     BYTE      P1MOD
*SFR* 000000EEH   DATA     BYTE      P1SEL
*SFR* 000000A0H   DATA     BYTE      P2
*SFR* 000000B0H   DATA     BYTE      P3
*SFR* 00000087H   DATA     BYTE      PCON
      00000054H   EDATA    ---       pLcdWrapRegs
*SFR* 000000E6H   DATA     BYTE      POR_STA
*SFR* 000000B8H.6 DATA     BIT       PPC
*SFR* 000000B8H.4 DATA     BIT       PS
*SFR* 000000D0H   DATA     BYTE      PSW
L251 LINKER/LOCATER V4.65.0.0                                                         04/14/2017  16:04:05  PAGE 7


*SFR* 000000D1H   DATA     BYTE      PSW1
*SFR* 000000B8H.1 DATA     BIT       PT0
*SFR* 000000B8H.3 DATA     BIT       PT1
*SFR* 000000B8H.5 DATA     BIT       PT2
*SFR* 000000B8H   DATA     BIT       PX0
*SFR* 000000B8H.2 DATA     BIT       PX1
      0000003FH   EDATA    ---       pXSI0Regs
      00000043H   EDATA    ---       pXSI1Regs
*SFR* 00000098H.2 DATA     BIT       RB8
*SFR* 000000CBH   DATA     BYTE      RCAP2H
*SFR* 000000CAH   DATA     BYTE      RCAP2L
*SFR* 000000C8H.5 DATA     BIT       RCLK
*SFR* 000000B0H.7 DATA     BIT       RD
*SFR* 00000098H.4 DATA     BIT       REN
*SFR* 00000098H   DATA     BIT       RI
*SFR* 000000D0H.3 DATA     BIT       RS0
*SFR* 000000D0H.4 DATA     BIT       RS1
*SFR* 000000E7H   DATA     BYTE      RST_STA
*SFR* 0000009EH.1 DATA     BIT       RTC_AUTO_MODE
*SFR* 0000009EH.4 DATA     BIT       RTC_CLR
*SFR* 000000E5H   DATA     BIT       RTC_CNT_INT
*SFR* 000000CDH   DATA     BIT       RTC_CNT_WKEN
*SFR* 0000009EH.2 DATA     BIT       RTC_INT_EN_CPU
*SFR* 0000009EH.7 DATA     BIT       RTC_START
*SFR* 0000009EH.5 DATA     BIT       RTC_START_STA
*SFR* 0000009EH   DATA     BIT       RTC_WP
*SFR* 000000CBH   DATA     BIT       RTCCKEN
*SFR* 0000009EH   DATA     BYTE      RTCCON
*SFR* 000000B6H   DATA     BYTE      RTCCON1
*SFR* 0000009DH   DATA     BYTE      RTCIVH
*SFR* 0000009CH   DATA     BYTE      RTCIVL
*SFR* 000000B0H   DATA     BIT       RXD
*SFR* 000000A9H   DATA     BYTE      SADDR
*SFR* 000000B9H   DATA     BYTE      SADEN
*SFR* 00000099H   DATA     BYTE      SBUF
*SFR* 00000098H   DATA     BYTE      SCON
*SFR* 000000E9H   DATA     BYTE      SFTRST
*SFR* 00000098H.7 DATA     BIT       SM0
*SFR* 00000098H.6 DATA     BIT       SM1
*SFR* 00000098H.5 DATA     BIT       SM2
*SFR* 00000081H   DATA     BYTE      SP
*SFR* 000000BEH   DATA     BYTE      SPH
*SFR* 000000A2H   DATA     BYTE      SPI0CON
*SFR* 000000A3H   DATA     BYTE      SPI0CON2
*SFR* 000000A5H   DATA     BYTE      SPI0CON3
*SFR* 000000A7H   DATA     BYTE      SPI0CON5
*SFR* 000000B3H   DATA     BYTE      SPI1CON
*SFR* 000000B4H   DATA     BYTE      SPI1CON2
*SFR* 000000B1H   DATA     BYTE      SPI1CON3
*SFR* 000000B2H   DATA     BYTE      SPI1CON4
*SFR* 000000F5H   DATA     BYTE      SSCG_CON0
*SFR* 000000C9H.6 DATA     BIT       STANDBY
*SFR* 000000C8H.7 DATA     BIT       SYSCKEN
*SFR* 00000098H   DATA     BYTE      SYSCON
*SFR* 000000B0H.4 DATA     BIT       T0
*SFR* 000000B0H.5 DATA     BIT       T1
*SFR* 00000090H   DATA     BIT       T2
*SFR* 000000C8H   DATA     BYTE      T2CON
*SFR* 00000090H.1 DATA     BIT       T2EX
*SFR* 000000C9H   DATA     BYTE      T2MOD
*SFR* 00000098H.3 DATA     BIT       TB8
*SFR* 000000C8H.4 DATA     BIT       TCLK
*SFR* 00000088H   DATA     BYTE      TCON
*SFR* 0000009BH   DATA     BYTE      TDIV
      00FEEB40H   ECODE    ---       Test_AfeRegWrite?
L251 LINKER/LOCATER V4.65.0.0                                                         04/14/2017  16:04:05  PAGE 8


      00FEEC7DH   ECODE    ---       Test_RTC?
      00FEEAEBH   ECODE    ---       Test_WriteRamReg?
*SFR* 000000E1H   DATA     BYTE      TESTCON0
*SFR* 000000E2H   DATA     BYTE      TESTCON1
*SFR* 000000E3H   DATA     BYTE      TESTCON2
*SFR* 000000E4H   DATA     BYTE      TESTCON3
*SFR* 00000088H.5 DATA     BIT       TF0
*SFR* 00000088H.7 DATA     BIT       TF1
*SFR* 000000C8H.7 DATA     BIT       TF2
*SFR* 0000008CH   DATA     BYTE      TH0
*SFR* 0000008DH   DATA     BYTE      TH1
*SFR* 000000CDH   DATA     BYTE      TH2
*SFR* 00000098H.1 DATA     BIT       TI
      00FEEC5FH   ECODE    ---       Timer0_IRQHandler?
*SFR* 0000008AH   DATA     BYTE      TL0
*SFR* 0000008BH   DATA     BYTE      TL1
*SFR* 000000CCH   DATA     BYTE      TL2
*SFR* 00000089H   DATA     BYTE      TMOD
*SFR* 00000088H.4 DATA     BIT       TR0
*SFR* 00000088H.6 DATA     BIT       TR1
*SFR* 000000C8H.2 DATA     BIT       TR2
*SFR* 000000B0H.1 DATA     BIT       TXD
*SFR* 000000A9H   DATA     BYTE      UARTCON
*SFR* 00000099H   DATA     BYTE      WDTCON
*SFR* 0000009AH   DATA     BYTE      WDTREL
*SFR* 000000A6H   DATA     BYTE      WDTRST
*SFR* 000000B0H.6 DATA     BIT       WR
*SFR* 000000EFH   DATA     BYTE      XDP_STA
*SFR* 000000EAH.3 DATA     BIT       XSI_SEL
*SFR* 000000C8H.5 DATA     BIT       XSICKEN



SYMBOL TABLE OF MODULE:  .\obj\mcu (main)

      VALUE       REP       CLASS    TYPE      SYMBOL NAME
      ====================================================
      ---         MODULE    ---      ---       main
      00FEED21H   PUBLIC    ECODE    ---       main?
      00FEED02H   PUBLIC    ECODE    ---       init_mcu?
      00FEE900H   PUBLIC    ECODE    ---       g_aucVerfication
      000000B6H   SFRSYM    DATA     BYTE      RTCCON1
      000000BFH   SFRSYM    DATA     BYTE      CGUCON8
      000000CFH   SFRSYM    DATA     BYTE      CGUCON7
      000000CEH   SFRSYM    DATA     BYTE      CGUCON6
      000000CDH   SFRSYM    DATA     BYTE      CGUCON5
      000000CCH   SFRSYM    DATA     BYTE      CGUCON4
      000000CBH   SFRSYM    DATA     BYTE      CGUCON3
      000000CAH   SFRSYM    DATA     BYTE      CGUCON2
      000000C8H   SFRSYM    DATA     BYTE      CGUCON1
      000000C9H   SFRSYM    DATA     BYTE      CGUCON0
      000000D9H   SFRSYM    DATA     BYTE      MEMBIST_ERRMAP2
      000000D8H   SFRSYM    DATA     BYTE      MEMBIST_ERRMAP1
      000000B0H   SFRSYM    DATA     BYTE      ANACON9
      000000A0H   SFRSYM    DATA     BYTE      ANACON8
      000000D5H   SFRSYM    DATA     BYTE      MEMBIST_FINISH2
      000000C7H   SFRSYM    DATA     BYTE      ANACON7
      000000D4H   SFRSYM    DATA     BYTE      MEMBIST_FINISH1
      000000E9H   SFRSYM    DATA     BYTE      SFTRST
      000000EEH   SFRSYM    DATA     BYTE      P1SEL
      000000C3H   SFRSYM    DATA     BYTE      ANACON3
      000000ECH   SFRSYM    DATA     BYTE      P0SEL
      000000C2H   SFRSYM    DATA     BYTE      ANACON2
      000000C1H   SFRSYM    DATA     BYTE      ANACON1
      000000EDH   SFRSYM    DATA     BYTE      P1MOD
L251 LINKER/LOCATER V4.65.0.0                                                         04/14/2017  16:04:05  PAGE 9


      00000098H   SFRSYM    DATA     BYTE      SYSCON
      000000ADH   SFRSYM    DATA     BYTE      P1DIR
      000000EBH   SFRSYM    DATA     BYTE      P0MOD
      000000ACH   SFRSYM    DATA     BYTE      P0DIR
      00000094H   SFRSYM    DATA     BYTE      P1BUF
      00000080H   SFRSYM    DATA     BYTE      P0BUF
      00000090H.1 SFRSYM    DATA     BIT       I2CTI
      00000090H   SFRSYM    DATA     BIT       I2CRI
      000000E4H   SFRSYM    DATA     BYTE      TESTCON3
      000000E3H   SFRSYM    DATA     BYTE      TESTCON2
      000000E5H   SFRSYM    DATA     BYTE      IWKSTA
      0000009AH   SFRSYM    DATA     BYTE      WDTREL
      000000E2H   SFRSYM    DATA     BYTE      TESTCON1
      000000E1H   SFRSYM    DATA     BYTE      TESTCON0
      00000099H   SFRSYM    DATA     BYTE      WDTCON
      000000C0H   SFRSYM    DATA     BYTE      AIF
      000000E8H   SFRSYM    DATA     BYTE      AIE
      000000BDH   SFRSYM    DATA     BYTE      FT_EN_REG
      0000009EH   SFRSYM    DATA     BYTE      RTCCON
      000000FEH   SFRSYM    DATA     BYTE      LED_EN
      000000B9H   SFRSYM    DATA     BYTE      CNTCON
      000000D7H   SFRSYM    DATA     BYTE      MEMBIST_FAIL2
      000000D6H   SFRSYM    DATA     BYTE      MEMBIST_FAIL1
      000000D3H   SFRSYM    DATA     BYTE      MEMBIST_EN2
      000000D2H   SFRSYM    DATA     BYTE      MEMBIST_EN1
      0000009BH   SFRSYM    DATA     BYTE      TDIV
      00000093H   SFRSYM    DATA     BIT       I2CSTP
      000000EFH   SFRSYM    DATA     BYTE      XDP_STA
      00000088H   SFRSYM    DATA     BYTE      TCON
      00000089H   SFRSYM    DATA     BYTE      TMOD
      000000A7H   SFRSYM    DATA     BYTE      SPI0CON5
      000000B2H   SFRSYM    DATA     BYTE      SPI1CON4
      000000B1H   SFRSYM    DATA     BYTE      SPI1CON3
      000000A5H   SFRSYM    DATA     BYTE      SPI0CON3
      000000B4H   SFRSYM    DATA     BYTE      SPI1CON2
      000000EAH   SFRSYM    DATA     BYTE      ANACON
      00000087H   SFRSYM    DATA     BYTE      PCON
      000000A3H   SFRSYM    DATA     BYTE      SPI0CON2
      000000DAH   SFRSYM    DATA     BYTE      DSV_CON
      000000F8H   SFRSYM    DATA     BYTE      AIPL
      00000095H   SFRSYM    DATA     BYTE      I2CSEL
      000000F5H   SFRSYM    DATA     BYTE      SSCG_CON0
      000000F7H   SFRSYM    DATA     BYTE      AIPH
      000000FDH   SFRSYM    DATA     BYTE      I2C_STATE
      00000090H   SFRSYM    DATA     BYTE      I2CCON
      000000A9H   SFRSYM    DATA     BYTE      UARTCON
      00000091H   SFRSYM    DATA     BYTE      I2CBUF
      000000B8H   SFRSYM    DATA     BYTE      IPL0
      000000B7H   SFRSYM    DATA     BYTE      IPH0
      00000080H.2 SFRSYM    DATA     BIT       P0_2
      000000DFH   SFRSYM    DATA     BYTE      IEN1
      000000A8H   SFRSYM    DATA     BYTE      IEN0
      00000093H   SFRSYM    DATA     BYTE      I2CSTOP
      000000A8H.7 SFRSYM    DATA     BIT       EA
      000000B3H   SFRSYM    DATA     BYTE      SPI1CON
      000000A2H   SFRSYM    DATA     BYTE      SPI0CON

      00FEED02H   BLOCK     ECODE    ---       LVL=0
      R7          REGSYM    ---      BYTE      i
      00FEED02H   LINE      ECODE    ---       #59
      00FEED02H   LINE      ECODE    ---       #60
      00FEED02H   LINE      ECODE    ---       #62
      00FEED04H   LINE      ECODE    ---       #63
      00FEED06H   LINE      ECODE    ---       #64
      00FEED09H   LINE      ECODE    ---       #65
L251 LINKER/LOCATER V4.65.0.0                                                         04/14/2017  16:04:05  PAGE 10


      00FEED0CH   LINE      ECODE    ---       #80
      00FEED11H   LINE      ECODE    ---       #81
      00FEED15H   LINE      ECODE    ---       #83
      00FEED17H   LINE      ECODE    ---       #87
      00FEED1AH   LINE      ECODE    ---       #90
      00FEED1EH   LINE      ECODE    ---       #105
      00FEED20H   LINE      ECODE    ---       #106
      ---         BLOCKEND  ---      ---       LVL=0

      00FEED21H   BLOCK     ECODE    ---       LVL=0
      00FEED21H   LINE      ECODE    ---       #115
      00FEED21H   LINE      ECODE    ---       #116
      00FEED21H   LINE      ECODE    ---       #117
      00FEED21H   LINE      ECODE    ---       #131
      00FEED25H   LINE      ECODE    ---       #155
      00FEED29H   LINE      ECODE    ---       #174
      00FEED29H   LINE      ECODE    ---       #177
      00FEED31H   LINE      ECODE    ---       #178
      ---         BLOCKEND  ---      ---       LVL=0

      ---         MODULE    ---      ---       ?C_START?
      00FF0000H   PUBLIC    CODE     ---       ?C?STARTUP?
      00FF0000H   PUBLIC    CODE     ---       ?C_STARTUP?
      000000D0H.6 SFRSYM    DATA     BIT       AC
      000000E0H   SFRSYM    DATA     BYTE      ACC
      000000F0H   SFRSYM    DATA     BYTE      B
      000000FAH   SFRSYM    DATA     BYTE      CCAP0H
      000000EAH   SFRSYM    DATA     BYTE      CCAP0L
      000000FBH   SFRSYM    DATA     BYTE      CCAP1H
      000000EBH   SFRSYM    DATA     BYTE      CCAP1L
      000000FCH   SFRSYM    DATA     BYTE      CCAP2H
      000000ECH   SFRSYM    DATA     BYTE      CCAP2L
      000000FDH   SFRSYM    DATA     BYTE      CCAP3H
      000000EDH   SFRSYM    DATA     BYTE      CCAP3L
      000000FEH   SFRSYM    DATA     BYTE      CCAP4H
      000000EEH   SFRSYM    DATA     BYTE      CCAP4L
      000000DAH   SFRSYM    DATA     BYTE      CCAPM0
      000000DBH   SFRSYM    DATA     BYTE      CCAPM1
      000000DCH   SFRSYM    DATA     BYTE      CCAPM2
      000000DDH   SFRSYM    DATA     BYTE      CCAPM3
      000000DEH   SFRSYM    DATA     BYTE      CCAPM4
      000000D8H   SFRSYM    DATA     BIT       CCF0
      000000D8H.1 SFRSYM    DATA     BIT       CCF1
      000000D8H.2 SFRSYM    DATA     BIT       CCF2
      000000D8H.3 SFRSYM    DATA     BIT       CCF3
      000000D8H.4 SFRSYM    DATA     BIT       CCF4
      000000D8H   SFRSYM    DATA     BYTE      CCON
      00000090H.3 SFRSYM    DATA     BIT       CEX0
      00000090H.4 SFRSYM    DATA     BIT       CEX1
      00000090H.5 SFRSYM    DATA     BIT       CEX2
      00000090H.6 SFRSYM    DATA     BIT       CEX3
      00000090H.7 SFRSYM    DATA     BIT       CEX4
      000000D8H.7 SFRSYM    DATA     BIT       CF
      000000F9H   SFRSYM    DATA     BYTE      CH
      000000E9H   SFRSYM    DATA     BYTE      CL
      000000D9H   SFRSYM    DATA     BYTE      CMOD
      000000C8H   SFRSYM    DATA     BIT       CP_RL2
      000000D8H.6 SFRSYM    DATA     BIT       CR
      000000D0H.7 SFRSYM    DATA     BIT       CY
      000000C8H.1 SFRSYM    DATA     BIT       C_T2
      00000083H   SFRSYM    DATA     BYTE      DPH
      00000082H   SFRSYM    DATA     BYTE      DPL
      00000084H   SFRSYM    DATA     BYTE      DPXL
      000000A8H.7 SFRSYM    DATA     BIT       EA
      000000A8H.6 SFRSYM    DATA     BIT       EC
L251 LINKER/LOCATER V4.65.0.0                                                         04/14/2017  16:04:05  PAGE 11


      00000090H.2 SFRSYM    DATA     BIT       ECI
      000000A8H.4 SFRSYM    DATA     BIT       ES
      000000A8H.1 SFRSYM    DATA     BIT       ET0
      000000A8H.3 SFRSYM    DATA     BIT       ET1
      000000A8H.5 SFRSYM    DATA     BIT       ET2
      000000A8H   SFRSYM    DATA     BIT       EX0
      000000A8H.2 SFRSYM    DATA     BIT       EX1
      000000C8H.3 SFRSYM    DATA     BIT       EXEN2
      000000C8H.6 SFRSYM    DATA     BIT       EXF2
      000000D0H.5 SFRSYM    DATA     BIT       F0
      00000098H.7 SFRSYM    DATA     BIT       FE
      000000A8H   SFRSYM    DATA     BYTE      IE0
      00000088H.1 SFRSYM    DATA     BIT       IE0_
      000000B1H   SFRSYM    DATA     BYTE      IE1
      00000088H.3 SFRSYM    DATA     BIT       IE1_
      000000B0H.2 SFRSYM    DATA     BIT       INT0
      000000B0H.3 SFRSYM    DATA     BIT       INT1
      000000B7H   SFRSYM    DATA     BYTE      IPH0
      000000B8H   SFRSYM    DATA     BYTE      IPL0
      00000088H   SFRSYM    DATA     BIT       IT0
      00000088H.2 SFRSYM    DATA     BIT       IT1
      000000D0H.2 SFRSYM    DATA     BIT       OV
      000000D0H   SFRSYM    DATA     BIT       P
      00000080H   SFRSYM    DATA     BYTE      P0
      00000090H   SFRSYM    DATA     BYTE      P1
      000000A0H   SFRSYM    DATA     BYTE      P2
      000000B0H   SFRSYM    DATA     BYTE      P3
      00000087H   SFRSYM    DATA     BYTE      PCON
      000000B8H.6 SFRSYM    DATA     BIT       PPC
      000000B8H.4 SFRSYM    DATA     BIT       PS
      000000D0H   SFRSYM    DATA     BYTE      PSW
      000000D1H   SFRSYM    DATA     BYTE      PSW1
      000000B8H.1 SFRSYM    DATA     BIT       PT0
      000000B8H.3 SFRSYM    DATA     BIT       PT1
      000000B8H.5 SFRSYM    DATA     BIT       PT2
      000000B8H   SFRSYM    DATA     BIT       PX0
      000000B8H.2 SFRSYM    DATA     BIT       PX1
      00000098H.2 SFRSYM    DATA     BIT       RB8
      000000CBH   SFRSYM    DATA     BYTE      RCAP2H
      000000CAH   SFRSYM    DATA     BYTE      RCAP2L
      000000C8H.5 SFRSYM    DATA     BIT       RCLK
      000000B0H.7 SFRSYM    DATA     BIT       RD
      00000098H.4 SFRSYM    DATA     BIT       REN
      00000098H   SFRSYM    DATA     BIT       RI
      000000D0H.3 SFRSYM    DATA     BIT       RS0
      000000D0H.4 SFRSYM    DATA     BIT       RS1
      000000B0H   SFRSYM    DATA     BIT       RXD
      000000A9H   SFRSYM    DATA     BYTE      SADDR
      000000B9H   SFRSYM    DATA     BYTE      SADEN
      00000099H   SFRSYM    DATA     BYTE      SBUF
      00000098H   SFRSYM    DATA     BYTE      SCON
      00000098H.7 SFRSYM    DATA     BIT       SM0
      00000098H.6 SFRSYM    DATA     BIT       SM1
      00000098H.5 SFRSYM    DATA     BIT       SM2
      00000081H   SFRSYM    DATA     BYTE      SP
      000000BEH   SFRSYM    DATA     BYTE      SPH
      000000B0H.4 SFRSYM    DATA     BIT       T0
      000000B0H.5 SFRSYM    DATA     BIT       T1
      00000090H   SFRSYM    DATA     BIT       T2
      000000C8H   SFRSYM    DATA     BYTE      T2CON
      00000090H.1 SFRSYM    DATA     BIT       T2EX
      000000C9H   SFRSYM    DATA     BYTE      T2MOD
      00000098H.3 SFRSYM    DATA     BIT       TB8
      000000C8H.4 SFRSYM    DATA     BIT       TCLK
      00000088H   SFRSYM    DATA     BYTE      TCON
L251 LINKER/LOCATER V4.65.0.0                                                         04/14/2017  16:04:05  PAGE 12


      00000088H.5 SFRSYM    DATA     BIT       TF0
      00000088H.7 SFRSYM    DATA     BIT       TF1
      000000C8H.7 SFRSYM    DATA     BIT       TF2
      0000008CH   SFRSYM    DATA     BYTE      TH0
      0000008DH   SFRSYM    DATA     BYTE      TH1
      000000CDH   SFRSYM    DATA     BYTE      TH2
      00000098H.1 SFRSYM    DATA     BIT       TI
      0000008AH   SFRSYM    DATA     BYTE      TL0
      0000008BH   SFRSYM    DATA     BYTE      TL1
      000000CCH   SFRSYM    DATA     BYTE      TL2
      00000089H   SFRSYM    DATA     BYTE      TMOD
      00000088H.4 SFRSYM    DATA     BIT       TR0
      00000088H.6 SFRSYM    DATA     BIT       TR1
      000000C8H.2 SFRSYM    DATA     BIT       TR2
      000000B0H.1 SFRSYM    DATA     BIT       TXD
      000000A6H   SFRSYM    DATA     BYTE      WDTRST
      000000B0H.6 SFRSYM    DATA     BIT       WR
      0000A000H   SYMBOL    NUMBER   ---       EDATALEN
      00FF001FH   SYMBOL    CODE     ---       EDATALOOP
      00000001H   SYMBOL    NUMBER   ---       EDF
      00000001H   SYMBOL    NUMBER   ---       EMAP
      00000100H   SYMBOL    NUMBER   ---       HDATALEN
      00FF0031H   SYMBOL    CODE     ---       HDATALOOP
      00010000H   SYMBOL    NUMBER   ---       HDATASTART
      00000000H   SYMBOL    NUMBER   ---       IBPSTACK
      00000100H   SYMBOL    NUMBER   ---       IBPSTACKTOP
      00000001H   SYMBOL    NUMBER   ---       INTR
      00000001H   SYMBOL    NUMBER   ---       PAGM
      00000003H   SYMBOL    NUMBER   ---       RDRG
      00000001H   SYMBOL    NUMBER   ---       SRCM
      00000100H   SYMBOL    NUMBER   ---       STACKSIZE
      00FF0017H   SYMBOL    CODE     ---       STARTUP1
      00000003H   SYMBOL    NUMBER   ---       WSA
      00000003H   SYMBOL    NUMBER   ---       WSB
      00000001H   SYMBOL    NUMBER   ---       XALE
      00000000H   SYMBOL    NUMBER   ---       XBPSTACK
      00010000H   SYMBOL    NUMBER   ---       XBPSTACKTOP
      00000000H   SYMBOL    NUMBER   ---       XDATALEN
      00010000H   SYMBOL    NUMBER   ---       XDATASTART

      00FF0000H   BLOCK     CODE     NEAR LAB  LVL=0
      00FF0000H   LINE      CODE     ---       #183
      ---         BLOCKEND  ---      ---       LVL=0

      00FF0017H   BLOCK     CODE     NEAR LAB  LVL=0
      00FF0017H   LINE      CODE     ---       #188
      00FF001AH   LINE      CODE     ---       #191
      00FF001EH   LINE      CODE     ---       #192
      00FF001FH   LINE      CODE     ---       #193
      00FF0022H   LINE      CODE     ---       #195
      00FF0024H   LINE      CODE     ---       #209
      00FF0028H   LINE      CODE     ---       #213
      00FF002CH   LINE      CODE     ---       #214
      00FF0030H   LINE      CODE     ---       #215
      00FF0031H   LINE      CODE     ---       #216
      00FF0034H   LINE      CODE     ---       #217
      00FF0036H   LINE      CODE     ---       #218
      00FF0038H   LINE      CODE     ---       #219
      00FF003AH   LINE      CODE     ---       #235
      ---         BLOCKEND  ---      ---       LVL=0

      00FF006BH   BLOCK     CODE     NEAR LAB  LVL=0
      00FF006BH   LINE      CODE     ---       #238
      ---         BLOCKEND  ---      ---       LVL=0

L251 LINKER/LOCATER V4.65.0.0                                                         04/14/2017  16:04:05  PAGE 13


      ---         MODULE    ---      ---       Test_Afe
      000000B6H   SFRSYM    DATA     BYTE      RTCCON1
      000000BFH   SFRSYM    DATA     BYTE      CGUCON8
      000000CFH   SFRSYM    DATA     BYTE      CGUCON7
      000000CEH   SFRSYM    DATA     BYTE      CGUCON6
      000000CDH   SFRSYM    DATA     BYTE      CGUCON5
      000000CCH   SFRSYM    DATA     BYTE      CGUCON4
      000000CBH   SFRSYM    DATA     BYTE      CGUCON3
      000000CAH   SFRSYM    DATA     BYTE      CGUCON2
      000000C8H   SFRSYM    DATA     BYTE      CGUCON1
      000000C9H   SFRSYM    DATA     BYTE      CGUCON0
      000000D9H   SFRSYM    DATA     BYTE      MEMBIST_ERRMAP2
      000000D8H   SFRSYM    DATA     BYTE      MEMBIST_ERRMAP1
      000000B0H   SFRSYM    DATA     BYTE      ANACON9
      000000A0H   SFRSYM    DATA     BYTE      ANACON8
      000000D5H   SFRSYM    DATA     BYTE      MEMBIST_FINISH2
      000000C7H   SFRSYM    DATA     BYTE      ANACON7
      000000D4H   SFRSYM    DATA     BYTE      MEMBIST_FINISH1
      000000E9H   SFRSYM    DATA     BYTE      SFTRST
      000000EEH   SFRSYM    DATA     BYTE      P1SEL
      000000C3H   SFRSYM    DATA     BYTE      ANACON3
      000000ECH   SFRSYM    DATA     BYTE      P0SEL
      000000C2H   SFRSYM    DATA     BYTE      ANACON2
      000000C1H   SFRSYM    DATA     BYTE      ANACON1
      000000EDH   SFRSYM    DATA     BYTE      P1MOD
      00000098H   SFRSYM    DATA     BYTE      SYSCON
      000000ADH   SFRSYM    DATA     BYTE      P1DIR
      000000EBH   SFRSYM    DATA     BYTE      P0MOD
      000000ACH   SFRSYM    DATA     BYTE      P0DIR
      00000094H   SFRSYM    DATA     BYTE      P1BUF
      00000080H   SFRSYM    DATA     BYTE      P0BUF
      000000E4H   SFRSYM    DATA     BYTE      TESTCON3
      000000E3H   SFRSYM    DATA     BYTE      TESTCON2
      000000E5H   SFRSYM    DATA     BYTE      IWKSTA
      0000009AH   SFRSYM    DATA     BYTE      WDTREL
      000000E2H   SFRSYM    DATA     BYTE      TESTCON1
      000000E1H   SFRSYM    DATA     BYTE      TESTCON0
      00000099H   SFRSYM    DATA     BYTE      WDTCON
      000000C0H   SFRSYM    DATA     BYTE      AIF
      000000E8H   SFRSYM    DATA     BYTE      AIE
      000000BDH   SFRSYM    DATA     BYTE      FT_EN_REG
      0000009EH   SFRSYM    DATA     BYTE      RTCCON
      000000FEH   SFRSYM    DATA     BYTE      LED_EN
      000000B9H   SFRSYM    DATA     BYTE      CNTCON
      000000D7H   SFRSYM    DATA     BYTE      MEMBIST_FAIL2
      000000D6H   SFRSYM    DATA     BYTE      MEMBIST_FAIL1
      000000D3H   SFRSYM    DATA     BYTE      MEMBIST_EN2
      000000D2H   SFRSYM    DATA     BYTE      MEMBIST_EN1
      0000009BH   SFRSYM    DATA     BYTE      TDIV
      000000EFH   SFRSYM    DATA     BYTE      XDP_STA
      00000088H   SFRSYM    DATA     BYTE      TCON
      00000089H   SFRSYM    DATA     BYTE      TMOD
      000000A7H   SFRSYM    DATA     BYTE      SPI0CON5
      000000B2H   SFRSYM    DATA     BYTE      SPI1CON4
      000000B1H   SFRSYM    DATA     BYTE      SPI1CON3
      000000A5H   SFRSYM    DATA     BYTE      SPI0CON3
      000000B4H   SFRSYM    DATA     BYTE      SPI1CON2
      000000EAH   SFRSYM    DATA     BYTE      ANACON
      00000087H   SFRSYM    DATA     BYTE      PCON
      000000A3H   SFRSYM    DATA     BYTE      SPI0CON2
      000000DAH   SFRSYM    DATA     BYTE      DSV_CON
      000000F8H   SFRSYM    DATA     BYTE      AIPL
      00000095H   SFRSYM    DATA     BYTE      I2CSEL
      000000F5H   SFRSYM    DATA     BYTE      SSCG_CON0
      000000F7H   SFRSYM    DATA     BYTE      AIPH
L251 LINKER/LOCATER V4.65.0.0                                                         04/14/2017  16:04:05  PAGE 14


      000000FDH   SFRSYM    DATA     BYTE      I2C_STATE
      00000090H   SFRSYM    DATA     BYTE      I2CCON
      000000A9H   SFRSYM    DATA     BYTE      UARTCON
      000000B8H   SFRSYM    DATA     BYTE      IPL0
      000000B7H   SFRSYM    DATA     BYTE      IPH0
      000000DFH   SFRSYM    DATA     BYTE      IEN1
      000000A8H   SFRSYM    DATA     BYTE      IEN0
      00000093H   SFRSYM    DATA     BYTE      I2CSTOP
      000000B3H   SFRSYM    DATA     BYTE      SPI1CON
      000000A2H   SFRSYM    DATA     BYTE      SPI0CON

      ---         MODULE    ---      ---       Test_Aram
      000000B6H   SFRSYM    DATA     BYTE      RTCCON1
      000000BFH   SFRSYM    DATA     BYTE      CGUCON8
      000000CFH   SFRSYM    DATA     BYTE      CGUCON7
      000000CEH   SFRSYM    DATA     BYTE      CGUCON6
      000000CDH   SFRSYM    DATA     BYTE      CGUCON5
      000000CCH   SFRSYM    DATA     BYTE      CGUCON4
      000000CBH   SFRSYM    DATA     BYTE      CGUCON3
      000000CAH   SFRSYM    DATA     BYTE      CGUCON2
      000000C8H   SFRSYM    DATA     BYTE      CGUCON1
      000000C9H   SFRSYM    DATA     BYTE      CGUCON0
      000000D9H   SFRSYM    DATA     BYTE      MEMBIST_ERRMAP2
      000000D8H   SFRSYM    DATA     BYTE      MEMBIST_ERRMAP1
      000000B0H   SFRSYM    DATA     BYTE      ANACON9
      000000A0H   SFRSYM    DATA     BYTE      ANACON8
      000000D5H   SFRSYM    DATA     BYTE      MEMBIST_FINISH2
      000000C7H   SFRSYM    DATA     BYTE      ANACON7
      000000D4H   SFRSYM    DATA     BYTE      MEMBIST_FINISH1
      000000E9H   SFRSYM    DATA     BYTE      SFTRST
      000000EEH   SFRSYM    DATA     BYTE      P1SEL
      000000C3H   SFRSYM    DATA     BYTE      ANACON3
      000000ECH   SFRSYM    DATA     BYTE      P0SEL
      000000C2H   SFRSYM    DATA     BYTE      ANACON2
      000000C1H   SFRSYM    DATA     BYTE      ANACON1
      000000EDH   SFRSYM    DATA     BYTE      P1MOD
      00000098H   SFRSYM    DATA     BYTE      SYSCON
      000000ADH   SFRSYM    DATA     BYTE      P1DIR
      000000EBH   SFRSYM    DATA     BYTE      P0MOD
      000000ACH   SFRSYM    DATA     BYTE      P0DIR
      00000094H   SFRSYM    DATA     BYTE      P1BUF
      00000080H   SFRSYM    DATA     BYTE      P0BUF
      000000E4H   SFRSYM    DATA     BYTE      TESTCON3
      000000E3H   SFRSYM    DATA     BYTE      TESTCON2
      000000E5H   SFRSYM    DATA     BYTE      IWKSTA
      0000009AH   SFRSYM    DATA     BYTE      WDTREL
      000000E2H   SFRSYM    DATA     BYTE      TESTCON1
      000000E1H   SFRSYM    DATA     BYTE      TESTCON0
      00000099H   SFRSYM    DATA     BYTE      WDTCON
      000000C0H   SFRSYM    DATA     BYTE      AIF
      000000E8H   SFRSYM    DATA     BYTE      AIE
      000000BDH   SFRSYM    DATA     BYTE      FT_EN_REG
      0000009EH   SFRSYM    DATA     BYTE      RTCCON
      000000FEH   SFRSYM    DATA     BYTE      LED_EN
      000000B9H   SFRSYM    DATA     BYTE      CNTCON
      000000D7H   SFRSYM    DATA     BYTE      MEMBIST_FAIL2
      000000D6H   SFRSYM    DATA     BYTE      MEMBIST_FAIL1
      000000D3H   SFRSYM    DATA     BYTE      MEMBIST_EN2
      000000D2H   SFRSYM    DATA     BYTE      MEMBIST_EN1
      0000009BH   SFRSYM    DATA     BYTE      TDIV
      000000EFH   SFRSYM    DATA     BYTE      XDP_STA
      00000088H   SFRSYM    DATA     BYTE      TCON
      00000089H   SFRSYM    DATA     BYTE      TMOD
      000000A7H   SFRSYM    DATA     BYTE      SPI0CON5
      000000B2H   SFRSYM    DATA     BYTE      SPI1CON4
L251 LINKER/LOCATER V4.65.0.0                                                         04/14/2017  16:04:05  PAGE 15


      000000B1H   SFRSYM    DATA     BYTE      SPI1CON3
      000000A5H   SFRSYM    DATA     BYTE      SPI0CON3
      000000B4H   SFRSYM    DATA     BYTE      SPI1CON2
      000000EAH   SFRSYM    DATA     BYTE      ANACON
      00000087H   SFRSYM    DATA     BYTE      PCON
      000000A3H   SFRSYM    DATA     BYTE      SPI0CON2
      000000DAH   SFRSYM    DATA     BYTE      DSV_CON
      000000F8H   SFRSYM    DATA     BYTE      AIPL
      00000095H   SFRSYM    DATA     BYTE      I2CSEL
      000000F5H   SFRSYM    DATA     BYTE      SSCG_CON0
      000000F7H   SFRSYM    DATA     BYTE      AIPH
      000000FDH   SFRSYM    DATA     BYTE      I2C_STATE
      00000090H   SFRSYM    DATA     BYTE      I2CCON
      000000A9H   SFRSYM    DATA     BYTE      UARTCON
      000000B8H   SFRSYM    DATA     BYTE      IPL0
      000000B7H   SFRSYM    DATA     BYTE      IPH0
      000000DFH   SFRSYM    DATA     BYTE      IEN1
      000000A8H   SFRSYM    DATA     BYTE      IEN0
      00000093H   SFRSYM    DATA     BYTE      I2CSTOP
      000000B3H   SFRSYM    DATA     BYTE      SPI1CON
      000000A2H   SFRSYM    DATA     BYTE      SPI0CON

      ---         MODULE    ---      ---       Test_CAL
      000000B6H   SFRSYM    DATA     BYTE      RTCCON1
      000000BFH   SFRSYM    DATA     BYTE      CGUCON8
      000000CFH   SFRSYM    DATA     BYTE      CGUCON7
      000000CEH   SFRSYM    DATA     BYTE      CGUCON6
      000000CDH   SFRSYM    DATA     BYTE      CGUCON5
      000000CCH   SFRSYM    DATA     BYTE      CGUCON4
      000000CBH   SFRSYM    DATA     BYTE      CGUCON3
      000000CAH   SFRSYM    DATA     BYTE      CGUCON2
      000000C8H   SFRSYM    DATA     BYTE      CGUCON1
      000000C9H   SFRSYM    DATA     BYTE      CGUCON0
      000000D9H   SFRSYM    DATA     BYTE      MEMBIST_ERRMAP2
      000000D8H   SFRSYM    DATA     BYTE      MEMBIST_ERRMAP1
      000000B0H   SFRSYM    DATA     BYTE      ANACON9
      000000A0H   SFRSYM    DATA     BYTE      ANACON8
      000000D5H   SFRSYM    DATA     BYTE      MEMBIST_FINISH2
      000000C7H   SFRSYM    DATA     BYTE      ANACON7
      000000D4H   SFRSYM    DATA     BYTE      MEMBIST_FINISH1
      000000E9H   SFRSYM    DATA     BYTE      SFTRST
      000000EEH   SFRSYM    DATA     BYTE      P1SEL
      000000C3H   SFRSYM    DATA     BYTE      ANACON3
      000000ECH   SFRSYM    DATA     BYTE      P0SEL
      000000C2H   SFRSYM    DATA     BYTE      ANACON2
      000000C1H   SFRSYM    DATA     BYTE      ANACON1
      000000EDH   SFRSYM    DATA     BYTE      P1MOD
      00000098H   SFRSYM    DATA     BYTE      SYSCON
      000000ADH   SFRSYM    DATA     BYTE      P1DIR
      000000EBH   SFRSYM    DATA     BYTE      P0MOD
      000000ACH   SFRSYM    DATA     BYTE      P0DIR
      00000094H   SFRSYM    DATA     BYTE      P1BUF
      00000080H   SFRSYM    DATA     BYTE      P0BUF
      000000E4H   SFRSYM    DATA     BYTE      TESTCON3
      000000E3H   SFRSYM    DATA     BYTE      TESTCON2
      000000E5H   SFRSYM    DATA     BYTE      IWKSTA
      0000009AH   SFRSYM    DATA     BYTE      WDTREL
      000000E2H   SFRSYM    DATA     BYTE      TESTCON1
      000000E1H   SFRSYM    DATA     BYTE      TESTCON0
      00000099H   SFRSYM    DATA     BYTE      WDTCON
      000000C0H   SFRSYM    DATA     BYTE      AIF
      000000E8H   SFRSYM    DATA     BYTE      AIE
      000000BDH   SFRSYM    DATA     BYTE      FT_EN_REG
      0000009EH   SFRSYM    DATA     BYTE      RTCCON
      000000FEH   SFRSYM    DATA     BYTE      LED_EN
L251 LINKER/LOCATER V4.65.0.0                                                         04/14/2017  16:04:05  PAGE 16


      000000B9H   SFRSYM    DATA     BYTE      CNTCON
      000000D7H   SFRSYM    DATA     BYTE      MEMBIST_FAIL2
      000000D6H   SFRSYM    DATA     BYTE      MEMBIST_FAIL1
      000000D3H   SFRSYM    DATA     BYTE      MEMBIST_EN2
      000000D2H   SFRSYM    DATA     BYTE      MEMBIST_EN1
      0000009BH   SFRSYM    DATA     BYTE      TDIV
      000000EFH   SFRSYM    DATA     BYTE      XDP_STA
      00000088H   SFRSYM    DATA     BYTE      TCON
      00000089H   SFRSYM    DATA     BYTE      TMOD
      000000A7H   SFRSYM    DATA     BYTE      SPI0CON5
      000000B2H   SFRSYM    DATA     BYTE      SPI1CON4
      000000B1H   SFRSYM    DATA     BYTE      SPI1CON3
      000000A5H   SFRSYM    DATA     BYTE      SPI0CON3
      000000B4H   SFRSYM    DATA     BYTE      SPI1CON2
      000000EAH   SFRSYM    DATA     BYTE      ANACON
      00000087H   SFRSYM    DATA     BYTE      PCON
      000000A3H   SFRSYM    DATA     BYTE      SPI0CON2
      000000DAH   SFRSYM    DATA     BYTE      DSV_CON
      000000F8H   SFRSYM    DATA     BYTE      AIPL
      00000095H   SFRSYM    DATA     BYTE      I2CSEL
      000000F5H   SFRSYM    DATA     BYTE      SSCG_CON0
      000000F7H   SFRSYM    DATA     BYTE      AIPH
      000000FDH   SFRSYM    DATA     BYTE      I2C_STATE
      00000090H   SFRSYM    DATA     BYTE      I2CCON
      000000A9H   SFRSYM    DATA     BYTE      UARTCON
      000000B8H   SFRSYM    DATA     BYTE      IPL0
      000000B7H   SFRSYM    DATA     BYTE      IPH0
      000000DFH   SFRSYM    DATA     BYTE      IEN1
      000000A8H   SFRSYM    DATA     BYTE      IEN0
      00000093H   SFRSYM    DATA     BYTE      I2CSTOP
      000000B3H   SFRSYM    DATA     BYTE      SPI1CON
      000000A2H   SFRSYM    DATA     BYTE      SPI0CON

      ---         MODULE    ---      ---       Test_counter
      000000B6H   SFRSYM    DATA     BYTE      RTCCON1
      000000BFH   SFRSYM    DATA     BYTE      CGUCON8
      000000CFH   SFRSYM    DATA     BYTE      CGUCON7
      000000CEH   SFRSYM    DATA     BYTE      CGUCON6
      000000CDH   SFRSYM    DATA     BYTE      CGUCON5
      000000CCH   SFRSYM    DATA     BYTE      CGUCON4
      000000CBH   SFRSYM    DATA     BYTE      CGUCON3
      000000CAH   SFRSYM    DATA     BYTE      CGUCON2
      000000C8H   SFRSYM    DATA     BYTE      CGUCON1
      000000C9H   SFRSYM    DATA     BYTE      CGUCON0
      000000D9H   SFRSYM    DATA     BYTE      MEMBIST_ERRMAP2
      000000D8H   SFRSYM    DATA     BYTE      MEMBIST_ERRMAP1
      000000B0H   SFRSYM    DATA     BYTE      ANACON9
      000000A0H   SFRSYM    DATA     BYTE      ANACON8
      000000D5H   SFRSYM    DATA     BYTE      MEMBIST_FINISH2
      000000C7H   SFRSYM    DATA     BYTE      ANACON7
      000000D4H   SFRSYM    DATA     BYTE      MEMBIST_FINISH1
      000000E9H   SFRSYM    DATA     BYTE      SFTRST
      000000EEH   SFRSYM    DATA     BYTE      P1SEL
      000000C3H   SFRSYM    DATA     BYTE      ANACON3
      000000ECH   SFRSYM    DATA     BYTE      P0SEL
      000000C2H   SFRSYM    DATA     BYTE      ANACON2
      000000C1H   SFRSYM    DATA     BYTE      ANACON1
      000000EDH   SFRSYM    DATA     BYTE      P1MOD
      00000098H   SFRSYM    DATA     BYTE      SYSCON
      000000ADH   SFRSYM    DATA     BYTE      P1DIR
      000000EBH   SFRSYM    DATA     BYTE      P0MOD
      000000ACH   SFRSYM    DATA     BYTE      P0DIR
      00000094H   SFRSYM    DATA     BYTE      P1BUF
      00000080H   SFRSYM    DATA     BYTE      P0BUF
      000000E4H   SFRSYM    DATA     BYTE      TESTCON3
L251 LINKER/LOCATER V4.65.0.0                                                         04/14/2017  16:04:05  PAGE 17


      000000E3H   SFRSYM    DATA     BYTE      TESTCON2
      000000E5H   SFRSYM    DATA     BYTE      IWKSTA
      0000009AH   SFRSYM    DATA     BYTE      WDTREL
      000000E2H   SFRSYM    DATA     BYTE      TESTCON1
      000000E1H   SFRSYM    DATA     BYTE      TESTCON0
      00000099H   SFRSYM    DATA     BYTE      WDTCON
      000000C0H   SFRSYM    DATA     BYTE      AIF
      000000E8H   SFRSYM    DATA     BYTE      AIE
      000000BDH   SFRSYM    DATA     BYTE      FT_EN_REG
      0000009EH   SFRSYM    DATA     BYTE      RTCCON
      000000FEH   SFRSYM    DATA     BYTE      LED_EN
      000000B9H   SFRSYM    DATA     BYTE      CNTCON
      000000D7H   SFRSYM    DATA     BYTE      MEMBIST_FAIL2
      000000D6H   SFRSYM    DATA     BYTE      MEMBIST_FAIL1
      000000D3H   SFRSYM    DATA     BYTE      MEMBIST_EN2
      000000D2H   SFRSYM    DATA     BYTE      MEMBIST_EN1
      0000009BH   SFRSYM    DATA     BYTE      TDIV
      000000EFH   SFRSYM    DATA     BYTE      XDP_STA
      00000088H   SFRSYM    DATA     BYTE      TCON
      00000089H   SFRSYM    DATA     BYTE      TMOD
      000000A7H   SFRSYM    DATA     BYTE      SPI0CON5
      000000B2H   SFRSYM    DATA     BYTE      SPI1CON4
      000000B1H   SFRSYM    DATA     BYTE      SPI1CON3
      000000A5H   SFRSYM    DATA     BYTE      SPI0CON3
      000000B4H   SFRSYM    DATA     BYTE      SPI1CON2
      000000EAH   SFRSYM    DATA     BYTE      ANACON
      00000087H   SFRSYM    DATA     BYTE      PCON
      000000A3H   SFRSYM    DATA     BYTE      SPI0CON2
      000000DAH   SFRSYM    DATA     BYTE      DSV_CON
      000000F8H   SFRSYM    DATA     BYTE      AIPL
      00000095H   SFRSYM    DATA     BYTE      I2CSEL
      000000F5H   SFRSYM    DATA     BYTE      SSCG_CON0
      000000F7H   SFRSYM    DATA     BYTE      AIPH
      000000FDH   SFRSYM    DATA     BYTE      I2C_STATE
      00000090H   SFRSYM    DATA     BYTE      I2CCON
      000000A9H   SFRSYM    DATA     BYTE      UARTCON
      000000B8H   SFRSYM    DATA     BYTE      IPL0
      000000B7H   SFRSYM    DATA     BYTE      IPH0
      000000DFH   SFRSYM    DATA     BYTE      IEN1
      000000A8H   SFRSYM    DATA     BYTE      IEN0
      00000093H   SFRSYM    DATA     BYTE      I2CSTOP
      000000B3H   SFRSYM    DATA     BYTE      SPI1CON
      000000A2H   SFRSYM    DATA     BYTE      SPI0CON

      ---         MODULE    ---      ---       Test_Dram
      000000B6H   SFRSYM    DATA     BYTE      RTCCON1
      000000BFH   SFRSYM    DATA     BYTE      CGUCON8
      000000CFH   SFRSYM    DATA     BYTE      CGUCON7
      000000CEH   SFRSYM    DATA     BYTE      CGUCON6
      000000CDH   SFRSYM    DATA     BYTE      CGUCON5
      000000CCH   SFRSYM    DATA     BYTE      CGUCON4
      000000CBH   SFRSYM    DATA     BYTE      CGUCON3
      000000CAH   SFRSYM    DATA     BYTE      CGUCON2
      000000C8H   SFRSYM    DATA     BYTE      CGUCON1
      000000C9H   SFRSYM    DATA     BYTE      CGUCON0
      000000D9H   SFRSYM    DATA     BYTE      MEMBIST_ERRMAP2
      000000D8H   SFRSYM    DATA     BYTE      MEMBIST_ERRMAP1
      000000B0H   SFRSYM    DATA     BYTE      ANACON9
      000000A0H   SFRSYM    DATA     BYTE      ANACON8
      000000D5H   SFRSYM    DATA     BYTE      MEMBIST_FINISH2
      000000C7H   SFRSYM    DATA     BYTE      ANACON7
      000000D4H   SFRSYM    DATA     BYTE      MEMBIST_FINISH1
      000000E9H   SFRSYM    DATA     BYTE      SFTRST
      000000EEH   SFRSYM    DATA     BYTE      P1SEL
      000000C3H   SFRSYM    DATA     BYTE      ANACON3
L251 LINKER/LOCATER V4.65.0.0                                                         04/14/2017  16:04:05  PAGE 18


      000000ECH   SFRSYM    DATA     BYTE      P0SEL
      000000C2H   SFRSYM    DATA     BYTE      ANACON2
      000000C1H   SFRSYM    DATA     BYTE      ANACON1
      000000EDH   SFRSYM    DATA     BYTE      P1MOD
      00000098H   SFRSYM    DATA     BYTE      SYSCON
      000000ADH   SFRSYM    DATA     BYTE      P1DIR
      000000EBH   SFRSYM    DATA     BYTE      P0MOD
      000000ACH   SFRSYM    DATA     BYTE      P0DIR
      00000094H   SFRSYM    DATA     BYTE      P1BUF
      00000080H   SFRSYM    DATA     BYTE      P0BUF
      000000E4H   SFRSYM    DATA     BYTE      TESTCON3
      000000E3H   SFRSYM    DATA     BYTE      TESTCON2
      000000E5H   SFRSYM    DATA     BYTE      IWKSTA
      0000009AH   SFRSYM    DATA     BYTE      WDTREL
      000000E2H   SFRSYM    DATA     BYTE      TESTCON1
      000000E1H   SFRSYM    DATA     BYTE      TESTCON0
      00000099H   SFRSYM    DATA     BYTE      WDTCON
      000000C0H   SFRSYM    DATA     BYTE      AIF
      000000E8H   SFRSYM    DATA     BYTE      AIE
      000000BDH   SFRSYM    DATA     BYTE      FT_EN_REG
      0000009EH   SFRSYM    DATA     BYTE      RTCCON
      000000FEH   SFRSYM    DATA     BYTE      LED_EN
      000000B9H   SFRSYM    DATA     BYTE      CNTCON
      000000D7H   SFRSYM    DATA     BYTE      MEMBIST_FAIL2
      000000D6H   SFRSYM    DATA     BYTE      MEMBIST_FAIL1
      000000D3H   SFRSYM    DATA     BYTE      MEMBIST_EN2
      000000D2H   SFRSYM    DATA     BYTE      MEMBIST_EN1
      0000009BH   SFRSYM    DATA     BYTE      TDIV
      000000EFH   SFRSYM    DATA     BYTE      XDP_STA
      00000088H   SFRSYM    DATA     BYTE      TCON
      00000089H   SFRSYM    DATA     BYTE      TMOD
      000000A7H   SFRSYM    DATA     BYTE      SPI0CON5
      000000B2H   SFRSYM    DATA     BYTE      SPI1CON4
      000000B1H   SFRSYM    DATA     BYTE      SPI1CON3
      000000A5H   SFRSYM    DATA     BYTE      SPI0CON3
      000000B4H   SFRSYM    DATA     BYTE      SPI1CON2
      000000EAH   SFRSYM    DATA     BYTE      ANACON
      00000087H   SFRSYM    DATA     BYTE      PCON
      000000A3H   SFRSYM    DATA     BYTE      SPI0CON2
      000000DAH   SFRSYM    DATA     BYTE      DSV_CON
      000000F8H   SFRSYM    DATA     BYTE      AIPL
      00000095H   SFRSYM    DATA     BYTE      I2CSEL
      000000F5H   SFRSYM    DATA     BYTE      SSCG_CON0
      000000F7H   SFRSYM    DATA     BYTE      AIPH
      000000FDH   SFRSYM    DATA     BYTE      I2C_STATE
      00000090H   SFRSYM    DATA     BYTE      I2CCON
      000000A9H   SFRSYM    DATA     BYTE      UARTCON
      000000B8H   SFRSYM    DATA     BYTE      IPL0
      000000B7H   SFRSYM    DATA     BYTE      IPH0
      000000DFH   SFRSYM    DATA     BYTE      IEN1
      000000A8H   SFRSYM    DATA     BYTE      IEN0
      00000093H   SFRSYM    DATA     BYTE      I2CSTOP
      000000B3H   SFRSYM    DATA     BYTE      SPI1CON
      000000A2H   SFRSYM    DATA     BYTE      SPI0CON

      ---         MODULE    ---      ---       Test_GPIO
      000000B6H   SFRSYM    DATA     BYTE      RTCCON1
      000000BFH   SFRSYM    DATA     BYTE      CGUCON8
      000000CFH   SFRSYM    DATA     BYTE      CGUCON7
      000000CEH   SFRSYM    DATA     BYTE      CGUCON6
      000000CDH   SFRSYM    DATA     BYTE      CGUCON5
      000000CCH   SFRSYM    DATA     BYTE      CGUCON4
      000000CBH   SFRSYM    DATA     BYTE      CGUCON3
      000000CAH   SFRSYM    DATA     BYTE      CGUCON2
      000000C8H   SFRSYM    DATA     BYTE      CGUCON1
L251 LINKER/LOCATER V4.65.0.0                                                         04/14/2017  16:04:05  PAGE 19


      000000C9H   SFRSYM    DATA     BYTE      CGUCON0
      000000D9H   SFRSYM    DATA     BYTE      MEMBIST_ERRMAP2
      000000D8H   SFRSYM    DATA     BYTE      MEMBIST_ERRMAP1
      000000B0H   SFRSYM    DATA     BYTE      ANACON9
      000000A0H   SFRSYM    DATA     BYTE      ANACON8
      000000D5H   SFRSYM    DATA     BYTE      MEMBIST_FINISH2
      000000C7H   SFRSYM    DATA     BYTE      ANACON7
      000000D4H   SFRSYM    DATA     BYTE      MEMBIST_FINISH1
      000000E9H   SFRSYM    DATA     BYTE      SFTRST
      000000EEH   SFRSYM    DATA     BYTE      P1SEL
      000000C3H   SFRSYM    DATA     BYTE      ANACON3
      000000ECH   SFRSYM    DATA     BYTE      P0SEL
      000000C2H   SFRSYM    DATA     BYTE      ANACON2
      000000C1H   SFRSYM    DATA     BYTE      ANACON1
      000000EDH   SFRSYM    DATA     BYTE      P1MOD
      00000098H   SFRSYM    DATA     BYTE      SYSCON
      000000ADH   SFRSYM    DATA     BYTE      P1DIR
      000000EBH   SFRSYM    DATA     BYTE      P0MOD
      000000ACH   SFRSYM    DATA     BYTE      P0DIR
      00000094H   SFRSYM    DATA     BYTE      P1BUF
      00000080H   SFRSYM    DATA     BYTE      P0BUF
      000000E4H   SFRSYM    DATA     BYTE      TESTCON3
      000000E3H   SFRSYM    DATA     BYTE      TESTCON2
      000000E5H   SFRSYM    DATA     BYTE      IWKSTA
      0000009AH   SFRSYM    DATA     BYTE      WDTREL
      000000E2H   SFRSYM    DATA     BYTE      TESTCON1
      000000E1H   SFRSYM    DATA     BYTE      TESTCON0
      00000099H   SFRSYM    DATA     BYTE      WDTCON
      000000C0H   SFRSYM    DATA     BYTE      AIF
      000000E8H   SFRSYM    DATA     BYTE      AIE
      000000BDH   SFRSYM    DATA     BYTE      FT_EN_REG
      0000009EH   SFRSYM    DATA     BYTE      RTCCON
      000000FEH   SFRSYM    DATA     BYTE      LED_EN
      000000B9H   SFRSYM    DATA     BYTE      CNTCON
      000000D7H   SFRSYM    DATA     BYTE      MEMBIST_FAIL2
      000000D6H   SFRSYM    DATA     BYTE      MEMBIST_FAIL1
      000000D3H   SFRSYM    DATA     BYTE      MEMBIST_EN2
      000000D2H   SFRSYM    DATA     BYTE      MEMBIST_EN1
      0000009BH   SFRSYM    DATA     BYTE      TDIV
      000000EFH   SFRSYM    DATA     BYTE      XDP_STA
      00000088H   SFRSYM    DATA     BYTE      TCON
      00000089H   SFRSYM    DATA     BYTE      TMOD
      000000A7H   SFRSYM    DATA     BYTE      SPI0CON5
      000000B2H   SFRSYM    DATA     BYTE      SPI1CON4
      000000B1H   SFRSYM    DATA     BYTE      SPI1CON3
      000000A5H   SFRSYM    DATA     BYTE      SPI0CON3
      000000B4H   SFRSYM    DATA     BYTE      SPI1CON2
      000000EAH   SFRSYM    DATA     BYTE      ANACON
      00000087H   SFRSYM    DATA     BYTE      PCON
      000000A3H   SFRSYM    DATA     BYTE      SPI0CON2
      000000DAH   SFRSYM    DATA     BYTE      DSV_CON
      000000F8H   SFRSYM    DATA     BYTE      AIPL
      00000095H   SFRSYM    DATA     BYTE      I2CSEL
      000000F5H   SFRSYM    DATA     BYTE      SSCG_CON0
      000000F7H   SFRSYM    DATA     BYTE      AIPH
      000000FDH   SFRSYM    DATA     BYTE      I2C_STATE
      00000090H   SFRSYM    DATA     BYTE      I2CCON
      000000A9H   SFRSYM    DATA     BYTE      UARTCON
      000000B8H   SFRSYM    DATA     BYTE      IPL0
      000000B7H   SFRSYM    DATA     BYTE      IPH0
      000000DFH   SFRSYM    DATA     BYTE      IEN1
      000000A8H   SFRSYM    DATA     BYTE      IEN0
      00000093H   SFRSYM    DATA     BYTE      I2CSTOP
      000000B3H   SFRSYM    DATA     BYTE      SPI1CON
      000000A2H   SFRSYM    DATA     BYTE      SPI0CON
L251 LINKER/LOCATER V4.65.0.0                                                         04/14/2017  16:04:05  PAGE 20



      ---         MODULE    ---      ---       Test_gpio_wakeup
      000000B6H   SFRSYM    DATA     BYTE      RTCCON1
      000000BFH   SFRSYM    DATA     BYTE      CGUCON8
      000000CFH   SFRSYM    DATA     BYTE      CGUCON7
      000000CEH   SFRSYM    DATA     BYTE      CGUCON6
      000000CDH   SFRSYM    DATA     BYTE      CGUCON5
      000000CCH   SFRSYM    DATA     BYTE      CGUCON4
      000000CBH   SFRSYM    DATA     BYTE      CGUCON3
      000000CAH   SFRSYM    DATA     BYTE      CGUCON2
      000000C8H   SFRSYM    DATA     BYTE      CGUCON1
      000000C9H   SFRSYM    DATA     BYTE      CGUCON0
      000000D9H   SFRSYM    DATA     BYTE      MEMBIST_ERRMAP2
      000000D8H   SFRSYM    DATA     BYTE      MEMBIST_ERRMAP1
      000000B0H   SFRSYM    DATA     BYTE      ANACON9
      000000A0H   SFRSYM    DATA     BYTE      ANACON8
      000000D5H   SFRSYM    DATA     BYTE      MEMBIST_FINISH2
      000000C7H   SFRSYM    DATA     BYTE      ANACON7
      000000D4H   SFRSYM    DATA     BYTE      MEMBIST_FINISH1
      000000E9H   SFRSYM    DATA     BYTE      SFTRST
      000000EEH   SFRSYM    DATA     BYTE      P1SEL
      000000C3H   SFRSYM    DATA     BYTE      ANACON3
      000000ECH   SFRSYM    DATA     BYTE      P0SEL
      000000C2H   SFRSYM    DATA     BYTE      ANACON2
      000000C1H   SFRSYM    DATA     BYTE      ANACON1
      000000EDH   SFRSYM    DATA     BYTE      P1MOD
      00000098H   SFRSYM    DATA     BYTE      SYSCON
      000000ADH   SFRSYM    DATA     BYTE      P1DIR
      000000EBH   SFRSYM    DATA     BYTE      P0MOD
      000000ACH   SFRSYM    DATA     BYTE      P0DIR
      00000094H   SFRSYM    DATA     BYTE      P1BUF
      00000080H   SFRSYM    DATA     BYTE      P0BUF
      000000E4H   SFRSYM    DATA     BYTE      TESTCON3
      000000E3H   SFRSYM    DATA     BYTE      TESTCON2
      000000E5H   SFRSYM    DATA     BYTE      IWKSTA
      0000009AH   SFRSYM    DATA     BYTE      WDTREL
      000000E2H   SFRSYM    DATA     BYTE      TESTCON1
      000000E1H   SFRSYM    DATA     BYTE      TESTCON0
      00000099H   SFRSYM    DATA     BYTE      WDTCON
      000000C0H   SFRSYM    DATA     BYTE      AIF
      000000E8H   SFRSYM    DATA     BYTE      AIE
      000000BDH   SFRSYM    DATA     BYTE      FT_EN_REG
      0000009EH   SFRSYM    DATA     BYTE      RTCCON
      000000FEH   SFRSYM    DATA     BYTE      LED_EN
      000000B9H   SFRSYM    DATA     BYTE      CNTCON
      000000D7H   SFRSYM    DATA     BYTE      MEMBIST_FAIL2
      000000D6H   SFRSYM    DATA     BYTE      MEMBIST_FAIL1
      000000D3H   SFRSYM    DATA     BYTE      MEMBIST_EN2
      000000D2H   SFRSYM    DATA     BYTE      MEMBIST_EN1
      0000009BH   SFRSYM    DATA     BYTE      TDIV
      000000EFH   SFRSYM    DATA     BYTE      XDP_STA
      00000088H   SFRSYM    DATA     BYTE      TCON
      00000089H   SFRSYM    DATA     BYTE      TMOD
      000000A7H   SFRSYM    DATA     BYTE      SPI0CON5
      000000B2H   SFRSYM    DATA     BYTE      SPI1CON4
      000000B1H   SFRSYM    DATA     BYTE      SPI1CON3
      000000A5H   SFRSYM    DATA     BYTE      SPI0CON3
      000000B4H   SFRSYM    DATA     BYTE      SPI1CON2
      000000EAH   SFRSYM    DATA     BYTE      ANACON
      00000087H   SFRSYM    DATA     BYTE      PCON
      000000A3H   SFRSYM    DATA     BYTE      SPI0CON2
      000000DAH   SFRSYM    DATA     BYTE      DSV_CON
      000000F8H   SFRSYM    DATA     BYTE      AIPL
      00000095H   SFRSYM    DATA     BYTE      I2CSEL
      000000F5H   SFRSYM    DATA     BYTE      SSCG_CON0
L251 LINKER/LOCATER V4.65.0.0                                                         04/14/2017  16:04:05  PAGE 21


      000000F7H   SFRSYM    DATA     BYTE      AIPH
      000000FDH   SFRSYM    DATA     BYTE      I2C_STATE
      00000090H   SFRSYM    DATA     BYTE      I2CCON
      000000A9H   SFRSYM    DATA     BYTE      UARTCON
      000000B8H   SFRSYM    DATA     BYTE      IPL0
      000000B7H   SFRSYM    DATA     BYTE      IPH0
      000000DFH   SFRSYM    DATA     BYTE      IEN1
      000000A8H   SFRSYM    DATA     BYTE      IEN0
      00000093H   SFRSYM    DATA     BYTE      I2CSTOP
      000000B3H   SFRSYM    DATA     BYTE      SPI1CON
      000000A2H   SFRSYM    DATA     BYTE      SPI0CON

      ---         MODULE    ---      ---       Test_i2c
      000000B6H   SFRSYM    DATA     BYTE      RTCCON1
      000000BFH   SFRSYM    DATA     BYTE      CGUCON8
      000000CFH   SFRSYM    DATA     BYTE      CGUCON7
      000000CEH   SFRSYM    DATA     BYTE      CGUCON6
      000000CDH   SFRSYM    DATA     BYTE      CGUCON5
      000000CCH   SFRSYM    DATA     BYTE      CGUCON4
      000000CBH   SFRSYM    DATA     BYTE      CGUCON3
      000000CAH   SFRSYM    DATA     BYTE      CGUCON2
      000000C8H   SFRSYM    DATA     BYTE      CGUCON1
      000000C9H   SFRSYM    DATA     BYTE      CGUCON0
      000000D9H   SFRSYM    DATA     BYTE      MEMBIST_ERRMAP2
      000000D8H   SFRSYM    DATA     BYTE      MEMBIST_ERRMAP1
      000000B0H   SFRSYM    DATA     BYTE      ANACON9
      000000A0H   SFRSYM    DATA     BYTE      ANACON8
      000000D5H   SFRSYM    DATA     BYTE      MEMBIST_FINISH2
      000000C7H   SFRSYM    DATA     BYTE      ANACON7
      000000D4H   SFRSYM    DATA     BYTE      MEMBIST_FINISH1
      000000E9H   SFRSYM    DATA     BYTE      SFTRST
      000000EEH   SFRSYM    DATA     BYTE      P1SEL
      000000C3H   SFRSYM    DATA     BYTE      ANACON3
      000000ECH   SFRSYM    DATA     BYTE      P0SEL
      000000C2H   SFRSYM    DATA     BYTE      ANACON2
      000000C1H   SFRSYM    DATA     BYTE      ANACON1
      000000EDH   SFRSYM    DATA     BYTE      P1MOD
      00000098H   SFRSYM    DATA     BYTE      SYSCON
      000000ADH   SFRSYM    DATA     BYTE      P1DIR
      000000EBH   SFRSYM    DATA     BYTE      P0MOD
      000000ACH   SFRSYM    DATA     BYTE      P0DIR
      00000094H   SFRSYM    DATA     BYTE      P1BUF
      00000080H   SFRSYM    DATA     BYTE      P0BUF
      000000E4H   SFRSYM    DATA     BYTE      TESTCON3
      000000E3H   SFRSYM    DATA     BYTE      TESTCON2
      000000E5H   SFRSYM    DATA     BYTE      IWKSTA
      0000009AH   SFRSYM    DATA     BYTE      WDTREL
      000000E2H   SFRSYM    DATA     BYTE      TESTCON1
      000000E1H   SFRSYM    DATA     BYTE      TESTCON0
      00000099H   SFRSYM    DATA     BYTE      WDTCON
      000000C0H   SFRSYM    DATA     BYTE      AIF
      000000E8H   SFRSYM    DATA     BYTE      AIE
      000000BDH   SFRSYM    DATA     BYTE      FT_EN_REG
      0000009EH   SFRSYM    DATA     BYTE      RTCCON
      000000FEH   SFRSYM    DATA     BYTE      LED_EN
      000000B9H   SFRSYM    DATA     BYTE      CNTCON
      000000D7H   SFRSYM    DATA     BYTE      MEMBIST_FAIL2
      000000D6H   SFRSYM    DATA     BYTE      MEMBIST_FAIL1
      000000D3H   SFRSYM    DATA     BYTE      MEMBIST_EN2
      000000D2H   SFRSYM    DATA     BYTE      MEMBIST_EN1
      0000009BH   SFRSYM    DATA     BYTE      TDIV
      000000EFH   SFRSYM    DATA     BYTE      XDP_STA
      00000088H   SFRSYM    DATA     BYTE      TCON
      00000089H   SFRSYM    DATA     BYTE      TMOD
      000000A7H   SFRSYM    DATA     BYTE      SPI0CON5
L251 LINKER/LOCATER V4.65.0.0                                                         04/14/2017  16:04:05  PAGE 22


      000000B2H   SFRSYM    DATA     BYTE      SPI1CON4
      000000B1H   SFRSYM    DATA     BYTE      SPI1CON3
      000000A5H   SFRSYM    DATA     BYTE      SPI0CON3
      000000B4H   SFRSYM    DATA     BYTE      SPI1CON2
      000000EAH   SFRSYM    DATA     BYTE      ANACON
      00000087H   SFRSYM    DATA     BYTE      PCON
      000000A3H   SFRSYM    DATA     BYTE      SPI0CON2
      000000DAH   SFRSYM    DATA     BYTE      DSV_CON
      000000F8H   SFRSYM    DATA     BYTE      AIPL
      00000095H   SFRSYM    DATA     BYTE      I2CSEL
      000000F5H   SFRSYM    DATA     BYTE      SSCG_CON0
      000000F7H   SFRSYM    DATA     BYTE      AIPH
      000000FDH   SFRSYM    DATA     BYTE      I2C_STATE
      00000090H   SFRSYM    DATA     BYTE      I2CCON
      000000A9H   SFRSYM    DATA     BYTE      UARTCON
      000000B8H   SFRSYM    DATA     BYTE      IPL0
      000000B7H   SFRSYM    DATA     BYTE      IPH0
      000000DFH   SFRSYM    DATA     BYTE      IEN1
      000000A8H   SFRSYM    DATA     BYTE      IEN0
      00000093H   SFRSYM    DATA     BYTE      I2CSTOP
      000000B3H   SFRSYM    DATA     BYTE      SPI1CON
      000000A2H   SFRSYM    DATA     BYTE      SPI0CON

      ---         MODULE    ---      ---       Test_i2c_wakeup
      000000B6H   SFRSYM    DATA     BYTE      RTCCON1
      000000BFH   SFRSYM    DATA     BYTE      CGUCON8
      000000CFH   SFRSYM    DATA     BYTE      CGUCON7
      000000CEH   SFRSYM    DATA     BYTE      CGUCON6
      000000CDH   SFRSYM    DATA     BYTE      CGUCON5
      000000CCH   SFRSYM    DATA     BYTE      CGUCON4
      000000CBH   SFRSYM    DATA     BYTE      CGUCON3
      000000CAH   SFRSYM    DATA     BYTE      CGUCON2
      000000C8H   SFRSYM    DATA     BYTE      CGUCON1
      000000C9H   SFRSYM    DATA     BYTE      CGUCON0
      000000D9H   SFRSYM    DATA     BYTE      MEMBIST_ERRMAP2
      000000D8H   SFRSYM    DATA     BYTE      MEMBIST_ERRMAP1
      000000B0H   SFRSYM    DATA     BYTE      ANACON9
      000000A0H   SFRSYM    DATA     BYTE      ANACON8
      000000D5H   SFRSYM    DATA     BYTE      MEMBIST_FINISH2
      000000C7H   SFRSYM    DATA     BYTE      ANACON7
      000000D4H   SFRSYM    DATA     BYTE      MEMBIST_FINISH1
      000000E9H   SFRSYM    DATA     BYTE      SFTRST
      000000EEH   SFRSYM    DATA     BYTE      P1SEL
      000000C3H   SFRSYM    DATA     BYTE      ANACON3
      000000ECH   SFRSYM    DATA     BYTE      P0SEL
      000000C2H   SFRSYM    DATA     BYTE      ANACON2
      000000C1H   SFRSYM    DATA     BYTE      ANACON1
      000000EDH   SFRSYM    DATA     BYTE      P1MOD
      00000098H   SFRSYM    DATA     BYTE      SYSCON
      000000ADH   SFRSYM    DATA     BYTE      P1DIR
      000000EBH   SFRSYM    DATA     BYTE      P0MOD
      000000ACH   SFRSYM    DATA     BYTE      P0DIR
      00000094H   SFRSYM    DATA     BYTE      P1BUF
      00000080H   SFRSYM    DATA     BYTE      P0BUF
      000000E4H   SFRSYM    DATA     BYTE      TESTCON3
      000000E3H   SFRSYM    DATA     BYTE      TESTCON2
      000000E5H   SFRSYM    DATA     BYTE      IWKSTA
      0000009AH   SFRSYM    DATA     BYTE      WDTREL
      000000E2H   SFRSYM    DATA     BYTE      TESTCON1
      000000E1H   SFRSYM    DATA     BYTE      TESTCON0
      00000099H   SFRSYM    DATA     BYTE      WDTCON
      000000C0H   SFRSYM    DATA     BYTE      AIF
      000000E8H   SFRSYM    DATA     BYTE      AIE
      000000BDH   SFRSYM    DATA     BYTE      FT_EN_REG
      0000009EH   SFRSYM    DATA     BYTE      RTCCON
L251 LINKER/LOCATER V4.65.0.0                                                         04/14/2017  16:04:05  PAGE 23


      000000FEH   SFRSYM    DATA     BYTE      LED_EN
      000000B9H   SFRSYM    DATA     BYTE      CNTCON
      000000D7H   SFRSYM    DATA     BYTE      MEMBIST_FAIL2
      000000D6H   SFRSYM    DATA     BYTE      MEMBIST_FAIL1
      000000D3H   SFRSYM    DATA     BYTE      MEMBIST_EN2
      000000D2H   SFRSYM    DATA     BYTE      MEMBIST_EN1
      0000009BH   SFRSYM    DATA     BYTE      TDIV
      000000EFH   SFRSYM    DATA     BYTE      XDP_STA
      00000088H   SFRSYM    DATA     BYTE      TCON
      00000089H   SFRSYM    DATA     BYTE      TMOD
      000000A7H   SFRSYM    DATA     BYTE      SPI0CON5
      000000B2H   SFRSYM    DATA     BYTE      SPI1CON4
      000000B1H   SFRSYM    DATA     BYTE      SPI1CON3
      000000A5H   SFRSYM    DATA     BYTE      SPI0CON3
      000000B4H   SFRSYM    DATA     BYTE      SPI1CON2
      000000EAH   SFRSYM    DATA     BYTE      ANACON
      00000087H   SFRSYM    DATA     BYTE      PCON
      000000A3H   SFRSYM    DATA     BYTE      SPI0CON2
      000000DAH   SFRSYM    DATA     BYTE      DSV_CON
      000000F8H   SFRSYM    DATA     BYTE      AIPL
      00000095H   SFRSYM    DATA     BYTE      I2CSEL
      000000F5H   SFRSYM    DATA     BYTE      SSCG_CON0
      000000F7H   SFRSYM    DATA     BYTE      AIPH
      000000FDH   SFRSYM    DATA     BYTE      I2C_STATE
      00000090H   SFRSYM    DATA     BYTE      I2CCON
      000000A9H   SFRSYM    DATA     BYTE      UARTCON
      000000B8H   SFRSYM    DATA     BYTE      IPL0
      000000B7H   SFRSYM    DATA     BYTE      IPH0
      000000DFH   SFRSYM    DATA     BYTE      IEN1
      000000A8H   SFRSYM    DATA     BYTE      IEN0
      00000093H   SFRSYM    DATA     BYTE      I2CSTOP
      000000B3H   SFRSYM    DATA     BYTE      SPI1CON
      000000A2H   SFRSYM    DATA     BYTE      SPI0CON

      ---         MODULE    ---      ---       Test_int_nest
      000000B6H   SFRSYM    DATA     BYTE      RTCCON1
      000000BFH   SFRSYM    DATA     BYTE      CGUCON8
      000000CFH   SFRSYM    DATA     BYTE      CGUCON7
      000000CEH   SFRSYM    DATA     BYTE      CGUCON6
      000000CDH   SFRSYM    DATA     BYTE      CGUCON5
      000000CCH   SFRSYM    DATA     BYTE      CGUCON4
      000000CBH   SFRSYM    DATA     BYTE      CGUCON3
      000000CAH   SFRSYM    DATA     BYTE      CGUCON2
      000000C8H   SFRSYM    DATA     BYTE      CGUCON1
      000000C9H   SFRSYM    DATA     BYTE      CGUCON0
      000000D9H   SFRSYM    DATA     BYTE      MEMBIST_ERRMAP2
      000000D8H   SFRSYM    DATA     BYTE      MEMBIST_ERRMAP1
      000000B0H   SFRSYM    DATA     BYTE      ANACON9
      000000A0H   SFRSYM    DATA     BYTE      ANACON8
      000000D5H   SFRSYM    DATA     BYTE      MEMBIST_FINISH2
      000000C7H   SFRSYM    DATA     BYTE      ANACON7
      000000D4H   SFRSYM    DATA     BYTE      MEMBIST_FINISH1
      000000E9H   SFRSYM    DATA     BYTE      SFTRST
      000000EEH   SFRSYM    DATA     BYTE      P1SEL
      000000C3H   SFRSYM    DATA     BYTE      ANACON3
      000000ECH   SFRSYM    DATA     BYTE      P0SEL
      000000C2H   SFRSYM    DATA     BYTE      ANACON2
      000000C1H   SFRSYM    DATA     BYTE      ANACON1
      000000EDH   SFRSYM    DATA     BYTE      P1MOD
      00000098H   SFRSYM    DATA     BYTE      SYSCON
      000000ADH   SFRSYM    DATA     BYTE      P1DIR
      000000EBH   SFRSYM    DATA     BYTE      P0MOD
      000000ACH   SFRSYM    DATA     BYTE      P0DIR
      00000094H   SFRSYM    DATA     BYTE      P1BUF
      00000080H   SFRSYM    DATA     BYTE      P0BUF
L251 LINKER/LOCATER V4.65.0.0                                                         04/14/2017  16:04:05  PAGE 24


      000000E4H   SFRSYM    DATA     BYTE      TESTCON3
      000000E3H   SFRSYM    DATA     BYTE      TESTCON2
      000000E5H   SFRSYM    DATA     BYTE      IWKSTA
      0000009AH   SFRSYM    DATA     BYTE      WDTREL
      000000E2H   SFRSYM    DATA     BYTE      TESTCON1
      000000E1H   SFRSYM    DATA     BYTE      TESTCON0
      00000099H   SFRSYM    DATA     BYTE      WDTCON
      000000C0H   SFRSYM    DATA     BYTE      AIF
      000000E8H   SFRSYM    DATA     BYTE      AIE
      000000BDH   SFRSYM    DATA     BYTE      FT_EN_REG
      0000009EH   SFRSYM    DATA     BYTE      RTCCON
      000000FEH   SFRSYM    DATA     BYTE      LED_EN
      000000B9H   SFRSYM    DATA     BYTE      CNTCON
      000000D7H   SFRSYM    DATA     BYTE      MEMBIST_FAIL2
      000000D6H   SFRSYM    DATA     BYTE      MEMBIST_FAIL1
      000000D3H   SFRSYM    DATA     BYTE      MEMBIST_EN2
      000000D2H   SFRSYM    DATA     BYTE      MEMBIST_EN1
      0000009BH   SFRSYM    DATA     BYTE      TDIV
      000000EFH   SFRSYM    DATA     BYTE      XDP_STA
      00000088H   SFRSYM    DATA     BYTE      TCON
      00000089H   SFRSYM    DATA     BYTE      TMOD
      000000A7H   SFRSYM    DATA     BYTE      SPI0CON5
      000000B2H   SFRSYM    DATA     BYTE      SPI1CON4
      000000B1H   SFRSYM    DATA     BYTE      SPI1CON3
      000000A5H   SFRSYM    DATA     BYTE      SPI0CON3
      000000B4H   SFRSYM    DATA     BYTE      SPI1CON2
      000000EAH   SFRSYM    DATA     BYTE      ANACON
      00000087H   SFRSYM    DATA     BYTE      PCON
      000000A3H   SFRSYM    DATA     BYTE      SPI0CON2
      000000DAH   SFRSYM    DATA     BYTE      DSV_CON
      000000F8H   SFRSYM    DATA     BYTE      AIPL
      00000095H   SFRSYM    DATA     BYTE      I2CSEL
      000000F5H   SFRSYM    DATA     BYTE      SSCG_CON0
      000000F7H   SFRSYM    DATA     BYTE      AIPH
      000000FDH   SFRSYM    DATA     BYTE      I2C_STATE
      00000090H   SFRSYM    DATA     BYTE      I2CCON
      000000A9H   SFRSYM    DATA     BYTE      UARTCON
      000000B8H   SFRSYM    DATA     BYTE      IPL0
      000000B7H   SFRSYM    DATA     BYTE      IPH0
      000000DFH   SFRSYM    DATA     BYTE      IEN1
      000000A8H   SFRSYM    DATA     BYTE      IEN0
      00000093H   SFRSYM    DATA     BYTE      I2CSTOP
      000000B3H   SFRSYM    DATA     BYTE      SPI1CON
      000000A2H   SFRSYM    DATA     BYTE      SPI0CON

      ---         MODULE    ---      ---       Test_LED
      000000B6H   SFRSYM    DATA     BYTE      RTCCON1
      000000BFH   SFRSYM    DATA     BYTE      CGUCON8
      000000CFH   SFRSYM    DATA     BYTE      CGUCON7
      000000CEH   SFRSYM    DATA     BYTE      CGUCON6
      000000CDH   SFRSYM    DATA     BYTE      CGUCON5
      000000CCH   SFRSYM    DATA     BYTE      CGUCON4
      000000CBH   SFRSYM    DATA     BYTE      CGUCON3
      000000CAH   SFRSYM    DATA     BYTE      CGUCON2
      000000C8H   SFRSYM    DATA     BYTE      CGUCON1
      000000C9H   SFRSYM    DATA     BYTE      CGUCON0
      000000D9H   SFRSYM    DATA     BYTE      MEMBIST_ERRMAP2
      000000D8H   SFRSYM    DATA     BYTE      MEMBIST_ERRMAP1
      000000B0H   SFRSYM    DATA     BYTE      ANACON9
      000000A0H   SFRSYM    DATA     BYTE      ANACON8
      000000D5H   SFRSYM    DATA     BYTE      MEMBIST_FINISH2
      000000C7H   SFRSYM    DATA     BYTE      ANACON7
      000000D4H   SFRSYM    DATA     BYTE      MEMBIST_FINISH1
      000000E9H   SFRSYM    DATA     BYTE      SFTRST
      000000EEH   SFRSYM    DATA     BYTE      P1SEL
L251 LINKER/LOCATER V4.65.0.0                                                         04/14/2017  16:04:05  PAGE 25


      000000C3H   SFRSYM    DATA     BYTE      ANACON3
      000000ECH   SFRSYM    DATA     BYTE      P0SEL
      000000C2H   SFRSYM    DATA     BYTE      ANACON2
      000000C1H   SFRSYM    DATA     BYTE      ANACON1
      000000EDH   SFRSYM    DATA     BYTE      P1MOD
      00000098H   SFRSYM    DATA     BYTE      SYSCON
      000000ADH   SFRSYM    DATA     BYTE      P1DIR
      000000EBH   SFRSYM    DATA     BYTE      P0MOD
      000000ACH   SFRSYM    DATA     BYTE      P0DIR
      00000094H   SFRSYM    DATA     BYTE      P1BUF
      00000080H   SFRSYM    DATA     BYTE      P0BUF
      000000E4H   SFRSYM    DATA     BYTE      TESTCON3
      000000E3H   SFRSYM    DATA     BYTE      TESTCON2
      000000E5H   SFRSYM    DATA     BYTE      IWKSTA
      0000009AH   SFRSYM    DATA     BYTE      WDTREL
      000000E2H   SFRSYM    DATA     BYTE      TESTCON1
      000000E1H   SFRSYM    DATA     BYTE      TESTCON0
      00000099H   SFRSYM    DATA     BYTE      WDTCON
      000000C0H   SFRSYM    DATA     BYTE      AIF
      000000E8H   SFRSYM    DATA     BYTE      AIE
      000000BDH   SFRSYM    DATA     BYTE      FT_EN_REG
      0000009EH   SFRSYM    DATA     BYTE      RTCCON
      000000FEH   SFRSYM    DATA     BYTE      LED_EN
      000000B9H   SFRSYM    DATA     BYTE      CNTCON
      000000D7H   SFRSYM    DATA     BYTE      MEMBIST_FAIL2
      000000D6H   SFRSYM    DATA     BYTE      MEMBIST_FAIL1
      000000D3H   SFRSYM    DATA     BYTE      MEMBIST_EN2
      000000D2H   SFRSYM    DATA     BYTE      MEMBIST_EN1
      0000009BH   SFRSYM    DATA     BYTE      TDIV
      000000EFH   SFRSYM    DATA     BYTE      XDP_STA
      00000088H   SFRSYM    DATA     BYTE      TCON
      00000089H   SFRSYM    DATA     BYTE      TMOD
      000000A7H   SFRSYM    DATA     BYTE      SPI0CON5
      000000B2H   SFRSYM    DATA     BYTE      SPI1CON4
      000000B1H   SFRSYM    DATA     BYTE      SPI1CON3
      000000A5H   SFRSYM    DATA     BYTE      SPI0CON3
      000000B4H   SFRSYM    DATA     BYTE      SPI1CON2
      000000EAH   SFRSYM    DATA     BYTE      ANACON
      00000087H   SFRSYM    DATA     BYTE      PCON
      000000A3H   SFRSYM    DATA     BYTE      SPI0CON2
      000000DAH   SFRSYM    DATA     BYTE      DSV_CON
      000000F8H   SFRSYM    DATA     BYTE      AIPL
      00000095H   SFRSYM    DATA     BYTE      I2CSEL
      000000F5H   SFRSYM    DATA     BYTE      SSCG_CON0
      000000F7H   SFRSYM    DATA     BYTE      AIPH
      000000FDH   SFRSYM    DATA     BYTE      I2C_STATE
      00000090H   SFRSYM    DATA     BYTE      I2CCON
      000000A9H   SFRSYM    DATA     BYTE      UARTCON
      000000B8H   SFRSYM    DATA     BYTE      IPL0
      000000B7H   SFRSYM    DATA     BYTE      IPH0
      000000DFH   SFRSYM    DATA     BYTE      IEN1
      000000A8H   SFRSYM    DATA     BYTE      IEN0
      00000093H   SFRSYM    DATA     BYTE      I2CSTOP
      000000B3H   SFRSYM    DATA     BYTE      SPI1CON
      000000A2H   SFRSYM    DATA     BYTE      SPI0CON

      ---         MODULE    ---      ---       Test_Prom
      000000B6H   SFRSYM    DATA     BYTE      RTCCON1
      000000BFH   SFRSYM    DATA     BYTE      CGUCON8
      000000CFH   SFRSYM    DATA     BYTE      CGUCON7
      000000CEH   SFRSYM    DATA     BYTE      CGUCON6
      000000CDH   SFRSYM    DATA     BYTE      CGUCON5
      000000CCH   SFRSYM    DATA     BYTE      CGUCON4
      000000CBH   SFRSYM    DATA     BYTE      CGUCON3
      000000CAH   SFRSYM    DATA     BYTE      CGUCON2
L251 LINKER/LOCATER V4.65.0.0                                                         04/14/2017  16:04:05  PAGE 26


      000000C8H   SFRSYM    DATA     BYTE      CGUCON1
      000000C9H   SFRSYM    DATA     BYTE      CGUCON0
      000000D9H   SFRSYM    DATA     BYTE      MEMBIST_ERRMAP2
      000000D8H   SFRSYM    DATA     BYTE      MEMBIST_ERRMAP1
      000000B0H   SFRSYM    DATA     BYTE      ANACON9
      000000A0H   SFRSYM    DATA     BYTE      ANACON8
      000000D5H   SFRSYM    DATA     BYTE      MEMBIST_FINISH2
      000000C7H   SFRSYM    DATA     BYTE      ANACON7
      000000D4H   SFRSYM    DATA     BYTE      MEMBIST_FINISH1
      000000E9H   SFRSYM    DATA     BYTE      SFTRST
      000000EEH   SFRSYM    DATA     BYTE      P1SEL
      000000C3H   SFRSYM    DATA     BYTE      ANACON3
      000000ECH   SFRSYM    DATA     BYTE      P0SEL
      000000C2H   SFRSYM    DATA     BYTE      ANACON2
      000000C1H   SFRSYM    DATA     BYTE      ANACON1
      000000EDH   SFRSYM    DATA     BYTE      P1MOD
      00000098H   SFRSYM    DATA     BYTE      SYSCON
      000000ADH   SFRSYM    DATA     BYTE      P1DIR
      000000EBH   SFRSYM    DATA     BYTE      P0MOD
      000000ACH   SFRSYM    DATA     BYTE      P0DIR
      00000094H   SFRSYM    DATA     BYTE      P1BUF
      00000080H   SFRSYM    DATA     BYTE      P0BUF
      000000E4H   SFRSYM    DATA     BYTE      TESTCON3
      000000E3H   SFRSYM    DATA     BYTE      TESTCON2
      000000E5H   SFRSYM    DATA     BYTE      IWKSTA
      0000009AH   SFRSYM    DATA     BYTE      WDTREL
      000000E2H   SFRSYM    DATA     BYTE      TESTCON1
      000000E1H   SFRSYM    DATA     BYTE      TESTCON0
      00000099H   SFRSYM    DATA     BYTE      WDTCON
      000000C0H   SFRSYM    DATA     BYTE      AIF
      000000E8H   SFRSYM    DATA     BYTE      AIE
      000000BDH   SFRSYM    DATA     BYTE      FT_EN_REG
      0000009EH   SFRSYM    DATA     BYTE      RTCCON
      000000FEH   SFRSYM    DATA     BYTE      LED_EN
      000000B9H   SFRSYM    DATA     BYTE      CNTCON
      000000D7H   SFRSYM    DATA     BYTE      MEMBIST_FAIL2
      000000D6H   SFRSYM    DATA     BYTE      MEMBIST_FAIL1
      000000D3H   SFRSYM    DATA     BYTE      MEMBIST_EN2
      000000D2H   SFRSYM    DATA     BYTE      MEMBIST_EN1
      0000009BH   SFRSYM    DATA     BYTE      TDIV
      000000EFH   SFRSYM    DATA     BYTE      XDP_STA
      00000088H   SFRSYM    DATA     BYTE      TCON
      00000089H   SFRSYM    DATA     BYTE      TMOD
      000000A7H   SFRSYM    DATA     BYTE      SPI0CON5
      000000B2H   SFRSYM    DATA     BYTE      SPI1CON4
      000000B1H   SFRSYM    DATA     BYTE      SPI1CON3
      000000A5H   SFRSYM    DATA     BYTE      SPI0CON3
      000000B4H   SFRSYM    DATA     BYTE      SPI1CON2
      000000EAH   SFRSYM    DATA     BYTE      ANACON
      00000087H   SFRSYM    DATA     BYTE      PCON
      000000A3H   SFRSYM    DATA     BYTE      SPI0CON2
      000000DAH   SFRSYM    DATA     BYTE      DSV_CON
      000000F8H   SFRSYM    DATA     BYTE      AIPL
      00000095H   SFRSYM    DATA     BYTE      I2CSEL
      000000F5H   SFRSYM    DATA     BYTE      SSCG_CON0
      000000F7H   SFRSYM    DATA     BYTE      AIPH
      000000FDH   SFRSYM    DATA     BYTE      I2C_STATE
      00000090H   SFRSYM    DATA     BYTE      I2CCON
      000000A9H   SFRSYM    DATA     BYTE      UARTCON
      000000B8H   SFRSYM    DATA     BYTE      IPL0
      000000B7H   SFRSYM    DATA     BYTE      IPH0
      000000DFH   SFRSYM    DATA     BYTE      IEN1
      000000A8H   SFRSYM    DATA     BYTE      IEN0
      00000093H   SFRSYM    DATA     BYTE      I2CSTOP
      000000B3H   SFRSYM    DATA     BYTE      SPI1CON
L251 LINKER/LOCATER V4.65.0.0                                                         04/14/2017  16:04:05  PAGE 27


      000000A2H   SFRSYM    DATA     BYTE      SPI0CON

      ---         MODULE    ---      ---       Test_Reg
      00FEEB40H   PUBLIC    ECODE    ---       Test_AfeRegWrite?
      00FEEAEBH   PUBLIC    ECODE    ---       Test_WriteRamReg?
      0000002DH   PUBLIC    EDATA    BYTE      ?Test_AfeRegWrite??BYTE
      000000B6H   SFRSYM    DATA     BYTE      RTCCON1
      000000BFH   SFRSYM    DATA     BYTE      CGUCON8
      000000CFH   SFRSYM    DATA     BYTE      CGUCON7
      000000CEH   SFRSYM    DATA     BYTE      CGUCON6
      000000CDH   SFRSYM    DATA     BYTE      CGUCON5
      000000CCH   SFRSYM    DATA     BYTE      CGUCON4
      000000CBH   SFRSYM    DATA     BYTE      CGUCON3
      000000CAH   SFRSYM    DATA     BYTE      CGUCON2
      000000C8H   SFRSYM    DATA     BYTE      CGUCON1
      000000C9H   SFRSYM    DATA     BYTE      CGUCON0
      000000D9H   SFRSYM    DATA     BYTE      MEMBIST_ERRMAP2
      000000D8H   SFRSYM    DATA     BYTE      MEMBIST_ERRMAP1
      000000B0H   SFRSYM    DATA     BYTE      ANACON9
      000000A0H   SFRSYM    DATA     BYTE      ANACON8
      000000D5H   SFRSYM    DATA     BYTE      MEMBIST_FINISH2
      000000C7H   SFRSYM    DATA     BYTE      ANACON7
      000000D4H   SFRSYM    DATA     BYTE      MEMBIST_FINISH1
      000000E9H   SFRSYM    DATA     BYTE      SFTRST
      000000EEH   SFRSYM    DATA     BYTE      P1SEL
      000000C3H   SFRSYM    DATA     BYTE      ANACON3
      000000ECH   SFRSYM    DATA     BYTE      P0SEL
      000000C2H   SFRSYM    DATA     BYTE      ANACON2
      000000C1H   SFRSYM    DATA     BYTE      ANACON1
      000000EDH   SFRSYM    DATA     BYTE      P1MOD
      00000098H   SFRSYM    DATA     BYTE      SYSCON
      000000ADH   SFRSYM    DATA     BYTE      P1DIR
      000000EBH   SFRSYM    DATA     BYTE      P0MOD
      000000ACH   SFRSYM    DATA     BYTE      P0DIR
      00000094H   SFRSYM    DATA     BYTE      P1BUF
      00000080H   SFRSYM    DATA     BYTE      P0BUF
      000000E4H   SFRSYM    DATA     BYTE      TESTCON3
      000000E3H   SFRSYM    DATA     BYTE      TESTCON2
      000000E5H   SFRSYM    DATA     BYTE      IWKSTA
      0000009AH   SFRSYM    DATA     BYTE      WDTREL
      000000E2H   SFRSYM    DATA     BYTE      TESTCON1
      000000E1H   SFRSYM    DATA     BYTE      TESTCON0
      00000099H   SFRSYM    DATA     BYTE      WDTCON
      000000C0H   SFRSYM    DATA     BYTE      AIF
      000000E8H   SFRSYM    DATA     BYTE      AIE
      000000BDH   SFRSYM    DATA     BYTE      FT_EN_REG
      0000009EH   SFRSYM    DATA     BYTE      RTCCON
      000000FEH   SFRSYM    DATA     BYTE      LED_EN
      000000B9H   SFRSYM    DATA     BYTE      CNTCON
      000000D7H   SFRSYM    DATA     BYTE      MEMBIST_FAIL2
      000000D6H   SFRSYM    DATA     BYTE      MEMBIST_FAIL1
      000000D3H   SFRSYM    DATA     BYTE      MEMBIST_EN2
      000000D2H   SFRSYM    DATA     BYTE      MEMBIST_EN1
      0000009BH   SFRSYM    DATA     BYTE      TDIV
      000000EFH   SFRSYM    DATA     BYTE      XDP_STA
      00000088H   SFRSYM    DATA     BYTE      TCON
      00000089H   SFRSYM    DATA     BYTE      TMOD
      000000A7H   SFRSYM    DATA     BYTE      SPI0CON5
      000000B2H   SFRSYM    DATA     BYTE      SPI1CON4
      000000B1H   SFRSYM    DATA     BYTE      SPI1CON3
      000000A5H   SFRSYM    DATA     BYTE      SPI0CON3
      000000B4H   SFRSYM    DATA     BYTE      SPI1CON2
      000000EAH   SFRSYM    DATA     BYTE      ANACON
      00000087H   SFRSYM    DATA     BYTE      PCON
      000000A3H   SFRSYM    DATA     BYTE      SPI0CON2
L251 LINKER/LOCATER V4.65.0.0                                                         04/14/2017  16:04:05  PAGE 28


      000000DAH   SFRSYM    DATA     BYTE      DSV_CON
      000000F8H   SFRSYM    DATA     BYTE      AIPL
      00000095H   SFRSYM    DATA     BYTE      I2CSEL
      000000F5H   SFRSYM    DATA     BYTE      SSCG_CON0
      000000F7H   SFRSYM    DATA     BYTE      AIPH
      000000FDH   SFRSYM    DATA     BYTE      I2C_STATE
      00000090H   SFRSYM    DATA     BYTE      I2CCON
      000000A9H   SFRSYM    DATA     BYTE      UARTCON
      000000B8H   SFRSYM    DATA     BYTE      IPL0
      000000B7H   SFRSYM    DATA     BYTE      IPH0
      000000DFH   SFRSYM    DATA     BYTE      IEN1
      000000A8H   SFRSYM    DATA     BYTE      IEN0
      00000093H   SFRSYM    DATA     BYTE      I2CSTOP
      000000B3H   SFRSYM    DATA     BYTE      SPI1CON
      000000A2H   SFRSYM    DATA     BYTE      SPI0CON

      00FEEAEBH   BLOCK     ECODE    ---       LVL=0
      WR6         REGSYM    ---      WORD      addr
      WR8         REGSYM    ---      WORD      mask0
      WR0         REGSYM    ---      WORD      mask1
      00FEEAEFH   BLOCK     ECODE    NEAR LAB  LVL=1
      WR22        REGSYM    ---      WORD      tmp
      WR24        REGSYM    ---      WORD      cnt_back
      WR26        REGSYM    ---      WORD      cnt
      WR30        REGSYM    ---      WORD      Addr_Base
      WR28        REGSYM    ---      WORD      Addr_Offset
      WR2         REGSYM    ---      WORD      BackUp
      00000020H.2 SYMBOL    BIT      BIT       flag
      ---         BLOCKEND  ---      ---       LVL=1
      00FEEAEBH   LINE      ECODE    ---       #190
      00FEEAEFH   LINE      ECODE    ---       #191
      00FEEAEFH   LINE      ECODE    ---       #200
      00FEEAF1H   LINE      ECODE    ---       #201
      00FEEAF7H   LINE      ECODE    ---       #202
      00FEEAFDH   LINE      ECODE    ---       #203
      00FEEB08H   LINE      ECODE    ---       #226
      00FEEB0AH   LINE      ECODE    ---       #228
      00FEEB19H   LINE      ECODE    ---       #229
      00FEEB1BH   LINE      ECODE    ---       #230
      00FEEB1DH   LINE      ECODE    ---       #231
      00FEEB28H   LINE      ECODE    ---       #232
      00FEEB2BH   LINE      ECODE    ---       #233
      00FEEB2FH   LINE      ECODE    ---       #235
      00FEEB32H   LINE      ECODE    ---       #242
      00FEEB34H   LINE      ECODE    ---       #244
      00FEEB3CH   LINE      ECODE    ---       #247
      00FEEB3CH   LINE      ECODE    ---       #249
      00FEEB3CH   LINE      ECODE    ---       #252
      00FEEB3CH   LINE      ECODE    ---       #256
      00FEEB3CH   LINE      ECODE    ---       #257
      00FEEB3CH   LINE      ECODE    ---       #258
      00FEEB3FH   LINE      ECODE    ---       #259
      ---         BLOCKEND  ---      ---       LVL=0

      00FEEB40H   BLOCK     ECODE    ---       LVL=0
      REG=3       REGSYM    ---      ---       pXSIRegs
      00000031H   SYMBOL    EDATA    WORD      addr
      00000033H   SYMBOL    EDATA    WORD      mask0
      00000035H   SYMBOL    EDATA    WORD      mask1
      00FEEB4CH   BLOCK     ECODE    NEAR LAB  LVL=1
      00000037H   SYMBOL    EDATA    WORD      tmp
      00000039H   SYMBOL    EDATA    WORD      cnt_back
      0000003BH   SYMBOL    EDATA    WORD      cnt
      0000003DH   SYMBOL    EDATA    WORD      BackUp
      00000020H.3 SYMBOL    BIT      BIT       flag
L251 LINKER/LOCATER V4.65.0.0                                                         04/14/2017  16:04:05  PAGE 29


      ---         BLOCKEND  ---      ---       LVL=1
      00FEEB40H   LINE      ECODE    ---       #268
      00FEEB4CH   LINE      ECODE    ---       #269
      00FEEB4CH   LINE      ECODE    ---       #276
      00FEEB4EH   LINE      ECODE    ---       #277
      00FEEB5DH   LINE      ECODE    ---       #300
      00FEEB63H   LINE      ECODE    ---       #302
      00FEEB76H   LINE      ECODE    ---       #303
      00FEEB82H   LINE      ECODE    ---       #304
      00FEEB8EH   LINE      ECODE    ---       #306
      00FEEB9DH   LINE      ECODE    ---       #307
      00FEEBACH   LINE      ECODE    ---       #308
      00FEEBB6H   LINE      ECODE    ---       #310
      00FEEBC5H   LINE      ECODE    ---       #312
      00FEEBCDH   LINE      ECODE    ---       #313
      00FEEBCFH   LINE      ECODE    ---       #314
      00FEEBDFH   LINE      ECODE    ---       #317
      00FEEBDFH   LINE      ECODE    ---       #319
      00FEEBDFH   LINE      ECODE    ---       #322
      00FEEBDFH   LINE      ECODE    ---       #326
      00FEEBDFH   LINE      ECODE    ---       #327
      00FEEBDFH   LINE      ECODE    ---       #328
      00FEEBEEH   LINE      ECODE    ---       #329
      ---         BLOCKEND  ---      ---       LVL=0

      ---         MODULE    ---      ---       Test_romboot
      000000B6H   SFRSYM    DATA     BYTE      RTCCON1
      000000BFH   SFRSYM    DATA     BYTE      CGUCON8
      000000CFH   SFRSYM    DATA     BYTE      CGUCON7
      000000CEH   SFRSYM    DATA     BYTE      CGUCON6
      000000CDH   SFRSYM    DATA     BYTE      CGUCON5
      000000CCH   SFRSYM    DATA     BYTE      CGUCON4
      000000CBH   SFRSYM    DATA     BYTE      CGUCON3
      000000CAH   SFRSYM    DATA     BYTE      CGUCON2
      000000C8H   SFRSYM    DATA     BYTE      CGUCON1
      000000C9H   SFRSYM    DATA     BYTE      CGUCON0
      000000D9H   SFRSYM    DATA     BYTE      MEMBIST_ERRMAP2
      000000D8H   SFRSYM    DATA     BYTE      MEMBIST_ERRMAP1
      000000B0H   SFRSYM    DATA     BYTE      ANACON9
      000000A0H   SFRSYM    DATA     BYTE      ANACON8
      000000D5H   SFRSYM    DATA     BYTE      MEMBIST_FINISH2
      000000C7H   SFRSYM    DATA     BYTE      ANACON7
      000000D4H   SFRSYM    DATA     BYTE      MEMBIST_FINISH1
      000000E9H   SFRSYM    DATA     BYTE      SFTRST
      000000EEH   SFRSYM    DATA     BYTE      P1SEL
      000000C3H   SFRSYM    DATA     BYTE      ANACON3
      000000ECH   SFRSYM    DATA     BYTE      P0SEL
      000000C2H   SFRSYM    DATA     BYTE      ANACON2
      000000C1H   SFRSYM    DATA     BYTE      ANACON1
      000000EDH   SFRSYM    DATA     BYTE      P1MOD
      00000098H   SFRSYM    DATA     BYTE      SYSCON
      000000ADH   SFRSYM    DATA     BYTE      P1DIR
      000000EBH   SFRSYM    DATA     BYTE      P0MOD
      000000ACH   SFRSYM    DATA     BYTE      P0DIR
      00000094H   SFRSYM    DATA     BYTE      P1BUF
      00000080H   SFRSYM    DATA     BYTE      P0BUF
      000000E4H   SFRSYM    DATA     BYTE      TESTCON3
      000000E3H   SFRSYM    DATA     BYTE      TESTCON2
      000000E5H   SFRSYM    DATA     BYTE      IWKSTA
      0000009AH   SFRSYM    DATA     BYTE      WDTREL
      000000E2H   SFRSYM    DATA     BYTE      TESTCON1
      000000E1H   SFRSYM    DATA     BYTE      TESTCON0
      00000099H   SFRSYM    DATA     BYTE      WDTCON
      000000C0H   SFRSYM    DATA     BYTE      AIF
      000000E8H   SFRSYM    DATA     BYTE      AIE
L251 LINKER/LOCATER V4.65.0.0                                                         04/14/2017  16:04:05  PAGE 30


      000000BDH   SFRSYM    DATA     BYTE      FT_EN_REG
      0000009EH   SFRSYM    DATA     BYTE      RTCCON
      000000FEH   SFRSYM    DATA     BYTE      LED_EN
      000000B9H   SFRSYM    DATA     BYTE      CNTCON
      000000D7H   SFRSYM    DATA     BYTE      MEMBIST_FAIL2
      000000D6H   SFRSYM    DATA     BYTE      MEMBIST_FAIL1
      000000D3H   SFRSYM    DATA     BYTE      MEMBIST_EN2
      000000D2H   SFRSYM    DATA     BYTE      MEMBIST_EN1
      0000009BH   SFRSYM    DATA     BYTE      TDIV
      000000EFH   SFRSYM    DATA     BYTE      XDP_STA
      00000088H   SFRSYM    DATA     BYTE      TCON
      00000089H   SFRSYM    DATA     BYTE      TMOD
      000000A7H   SFRSYM    DATA     BYTE      SPI0CON5
      000000B2H   SFRSYM    DATA     BYTE      SPI1CON4
      000000B1H   SFRSYM    DATA     BYTE      SPI1CON3
      000000A5H   SFRSYM    DATA     BYTE      SPI0CON3
      000000B4H   SFRSYM    DATA     BYTE      SPI1CON2
      000000EAH   SFRSYM    DATA     BYTE      ANACON
      00000087H   SFRSYM    DATA     BYTE      PCON
      000000A3H   SFRSYM    DATA     BYTE      SPI0CON2
      000000DAH   SFRSYM    DATA     BYTE      DSV_CON
      000000F8H   SFRSYM    DATA     BYTE      AIPL
      00000095H   SFRSYM    DATA     BYTE      I2CSEL
      000000F5H   SFRSYM    DATA     BYTE      SSCG_CON0
      000000F7H   SFRSYM    DATA     BYTE      AIPH
      000000FDH   SFRSYM    DATA     BYTE      I2C_STATE
      00000090H   SFRSYM    DATA     BYTE      I2CCON
      000000A9H   SFRSYM    DATA     BYTE      UARTCON
      000000B8H   SFRSYM    DATA     BYTE      IPL0
      000000B7H   SFRSYM    DATA     BYTE      IPH0
      000000DFH   SFRSYM    DATA     BYTE      IEN1
      000000A8H   SFRSYM    DATA     BYTE      IEN0
      00000093H   SFRSYM    DATA     BYTE      I2CSTOP
      000000B3H   SFRSYM    DATA     BYTE      SPI1CON
      000000A2H   SFRSYM    DATA     BYTE      SPI0CON

      ---         MODULE    ---      ---       Test_SFR
      000000B6H   SFRSYM    DATA     BYTE      RTCCON1
      000000BFH   SFRSYM    DATA     BYTE      CGUCON8
      000000CFH   SFRSYM    DATA     BYTE      CGUCON7
      000000CEH   SFRSYM    DATA     BYTE      CGUCON6
      000000CDH   SFRSYM    DATA     BYTE      CGUCON5
      000000CCH   SFRSYM    DATA     BYTE      CGUCON4
      000000CBH   SFRSYM    DATA     BYTE      CGUCON3
      000000CAH   SFRSYM    DATA     BYTE      CGUCON2
      000000C8H   SFRSYM    DATA     BYTE      CGUCON1
      000000C9H   SFRSYM    DATA     BYTE      CGUCON0
      000000D9H   SFRSYM    DATA     BYTE      MEMBIST_ERRMAP2
      000000D8H   SFRSYM    DATA     BYTE      MEMBIST_ERRMAP1
      000000B0H   SFRSYM    DATA     BYTE      ANACON9
      000000A0H   SFRSYM    DATA     BYTE      ANACON8
      000000D5H   SFRSYM    DATA     BYTE      MEMBIST_FINISH2
      000000C7H   SFRSYM    DATA     BYTE      ANACON7
      000000D4H   SFRSYM    DATA     BYTE      MEMBIST_FINISH1
      000000E9H   SFRSYM    DATA     BYTE      SFTRST
      000000EEH   SFRSYM    DATA     BYTE      P1SEL
      000000C3H   SFRSYM    DATA     BYTE      ANACON3
      000000ECH   SFRSYM    DATA     BYTE      P0SEL
      000000C2H   SFRSYM    DATA     BYTE      ANACON2
      000000C1H   SFRSYM    DATA     BYTE      ANACON1
      000000EDH   SFRSYM    DATA     BYTE      P1MOD
      00000098H   SFRSYM    DATA     BYTE      SYSCON
      000000ADH   SFRSYM    DATA     BYTE      P1DIR
      000000EBH   SFRSYM    DATA     BYTE      P0MOD
      000000ACH   SFRSYM    DATA     BYTE      P0DIR
L251 LINKER/LOCATER V4.65.0.0                                                         04/14/2017  16:04:05  PAGE 31


      00000094H   SFRSYM    DATA     BYTE      P1BUF
      00000080H   SFRSYM    DATA     BYTE      P0BUF
      000000E4H   SFRSYM    DATA     BYTE      TESTCON3
      000000E3H   SFRSYM    DATA     BYTE      TESTCON2
      000000E5H   SFRSYM    DATA     BYTE      IWKSTA
      0000009AH   SFRSYM    DATA     BYTE      WDTREL
      000000E2H   SFRSYM    DATA     BYTE      TESTCON1
      000000E1H   SFRSYM    DATA     BYTE      TESTCON0
      00000099H   SFRSYM    DATA     BYTE      WDTCON
      000000C0H   SFRSYM    DATA     BYTE      AIF
      000000E8H   SFRSYM    DATA     BYTE      AIE
      000000BDH   SFRSYM    DATA     BYTE      FT_EN_REG
      0000009EH   SFRSYM    DATA     BYTE      RTCCON
      000000FEH   SFRSYM    DATA     BYTE      LED_EN
      000000B9H   SFRSYM    DATA     BYTE      CNTCON
      000000D7H   SFRSYM    DATA     BYTE      MEMBIST_FAIL2
      000000D6H   SFRSYM    DATA     BYTE      MEMBIST_FAIL1
      000000D3H   SFRSYM    DATA     BYTE      MEMBIST_EN2
      000000D2H   SFRSYM    DATA     BYTE      MEMBIST_EN1
      0000009BH   SFRSYM    DATA     BYTE      TDIV
      000000EFH   SFRSYM    DATA     BYTE      XDP_STA
      00000088H   SFRSYM    DATA     BYTE      TCON
      00000089H   SFRSYM    DATA     BYTE      TMOD
      000000A7H   SFRSYM    DATA     BYTE      SPI0CON5
      000000B2H   SFRSYM    DATA     BYTE      SPI1CON4
      000000B1H   SFRSYM    DATA     BYTE      SPI1CON3
      000000A5H   SFRSYM    DATA     BYTE      SPI0CON3
      000000B4H   SFRSYM    DATA     BYTE      SPI1CON2
      000000EAH   SFRSYM    DATA     BYTE      ANACON
      00000087H   SFRSYM    DATA     BYTE      PCON
      000000A3H   SFRSYM    DATA     BYTE      SPI0CON2
      000000DAH   SFRSYM    DATA     BYTE      DSV_CON
      000000F8H   SFRSYM    DATA     BYTE      AIPL
      00000095H   SFRSYM    DATA     BYTE      I2CSEL
      000000F5H   SFRSYM    DATA     BYTE      SSCG_CON0
      000000F7H   SFRSYM    DATA     BYTE      AIPH
      000000FDH   SFRSYM    DATA     BYTE      I2C_STATE
      00000090H   SFRSYM    DATA     BYTE      I2CCON
      000000A9H   SFRSYM    DATA     BYTE      UARTCON
      000000B8H   SFRSYM    DATA     BYTE      IPL0
      000000B7H   SFRSYM    DATA     BYTE      IPH0
      000000DFH   SFRSYM    DATA     BYTE      IEN1
      000000A8H   SFRSYM    DATA     BYTE      IEN0
      00000093H   SFRSYM    DATA     BYTE      I2CSTOP
      000000B3H   SFRSYM    DATA     BYTE      SPI1CON
      000000A2H   SFRSYM    DATA     BYTE      SPI0CON

      ---         MODULE    ---      ---       Test_spi
      000000B6H   SFRSYM    DATA     BYTE      RTCCON1
      000000BFH   SFRSYM    DATA     BYTE      CGUCON8
      000000CFH   SFRSYM    DATA     BYTE      CGUCON7
      000000CEH   SFRSYM    DATA     BYTE      CGUCON6
      000000CDH   SFRSYM    DATA     BYTE      CGUCON5
      000000CCH   SFRSYM    DATA     BYTE      CGUCON4
      000000CBH   SFRSYM    DATA     BYTE      CGUCON3
      000000CAH   SFRSYM    DATA     BYTE      CGUCON2
      000000C8H   SFRSYM    DATA     BYTE      CGUCON1
      000000C9H   SFRSYM    DATA     BYTE      CGUCON0
      000000D9H   SFRSYM    DATA     BYTE      MEMBIST_ERRMAP2
      000000D8H   SFRSYM    DATA     BYTE      MEMBIST_ERRMAP1
      000000B0H   SFRSYM    DATA     BYTE      ANACON9
      000000A0H   SFRSYM    DATA     BYTE      ANACON8
      000000D5H   SFRSYM    DATA     BYTE      MEMBIST_FINISH2
      000000C7H   SFRSYM    DATA     BYTE      ANACON7
      000000D4H   SFRSYM    DATA     BYTE      MEMBIST_FINISH1
L251 LINKER/LOCATER V4.65.0.0                                                         04/14/2017  16:04:05  PAGE 32


      000000E9H   SFRSYM    DATA     BYTE      SFTRST
      000000EEH   SFRSYM    DATA     BYTE      P1SEL
      000000C3H   SFRSYM    DATA     BYTE      ANACON3
      000000ECH   SFRSYM    DATA     BYTE      P0SEL
      000000C2H   SFRSYM    DATA     BYTE      ANACON2
      000000C1H   SFRSYM    DATA     BYTE      ANACON1
      000000EDH   SFRSYM    DATA     BYTE      P1MOD
      00000098H   SFRSYM    DATA     BYTE      SYSCON
      000000ADH   SFRSYM    DATA     BYTE      P1DIR
      000000EBH   SFRSYM    DATA     BYTE      P0MOD
      000000ACH   SFRSYM    DATA     BYTE      P0DIR
      00000094H   SFRSYM    DATA     BYTE      P1BUF
      00000080H   SFRSYM    DATA     BYTE      P0BUF
      000000E4H   SFRSYM    DATA     BYTE      TESTCON3
      000000E3H   SFRSYM    DATA     BYTE      TESTCON2
      000000E5H   SFRSYM    DATA     BYTE      IWKSTA
      0000009AH   SFRSYM    DATA     BYTE      WDTREL
      000000E2H   SFRSYM    DATA     BYTE      TESTCON1
      000000E1H   SFRSYM    DATA     BYTE      TESTCON0
      00000099H   SFRSYM    DATA     BYTE      WDTCON
      000000C0H   SFRSYM    DATA     BYTE      AIF
      000000E8H   SFRSYM    DATA     BYTE      AIE
      000000BDH   SFRSYM    DATA     BYTE      FT_EN_REG
      0000009EH   SFRSYM    DATA     BYTE      RTCCON
      000000FEH   SFRSYM    DATA     BYTE      LED_EN
      000000B9H   SFRSYM    DATA     BYTE      CNTCON
      000000D7H   SFRSYM    DATA     BYTE      MEMBIST_FAIL2
      000000D6H   SFRSYM    DATA     BYTE      MEMBIST_FAIL1
      000000D3H   SFRSYM    DATA     BYTE      MEMBIST_EN2
      000000D2H   SFRSYM    DATA     BYTE      MEMBIST_EN1
      0000009BH   SFRSYM    DATA     BYTE      TDIV
      000000EFH   SFRSYM    DATA     BYTE      XDP_STA
      00000088H   SFRSYM    DATA     BYTE      TCON
      00000089H   SFRSYM    DATA     BYTE      TMOD
      000000A7H   SFRSYM    DATA     BYTE      SPI0CON5
      000000B2H   SFRSYM    DATA     BYTE      SPI1CON4
      000000B1H   SFRSYM    DATA     BYTE      SPI1CON3
      000000A5H   SFRSYM    DATA     BYTE      SPI0CON3
      000000B4H   SFRSYM    DATA     BYTE      SPI1CON2
      000000EAH   SFRSYM    DATA     BYTE      ANACON
      00000087H   SFRSYM    DATA     BYTE      PCON
      000000A3H   SFRSYM    DATA     BYTE      SPI0CON2
      000000DAH   SFRSYM    DATA     BYTE      DSV_CON
      000000F8H   SFRSYM    DATA     BYTE      AIPL
      00000095H   SFRSYM    DATA     BYTE      I2CSEL
      000000F5H   SFRSYM    DATA     BYTE      SSCG_CON0
      000000F7H   SFRSYM    DATA     BYTE      AIPH
      000000FDH   SFRSYM    DATA     BYTE      I2C_STATE
      00000090H   SFRSYM    DATA     BYTE      I2CCON
      000000A9H   SFRSYM    DATA     BYTE      UARTCON
      000000B8H   SFRSYM    DATA     BYTE      IPL0
      000000B7H   SFRSYM    DATA     BYTE      IPH0
      000000DFH   SFRSYM    DATA     BYTE      IEN1
      000000A8H   SFRSYM    DATA     BYTE      IEN0
      00000093H   SFRSYM    DATA     BYTE      I2CSTOP
      000000B3H   SFRSYM    DATA     BYTE      SPI1CON
      000000A2H   SFRSYM    DATA     BYTE      SPI0CON

      ---         MODULE    ---      ---       Test_timer
      000000B6H   SFRSYM    DATA     BYTE      RTCCON1
      000000BFH   SFRSYM    DATA     BYTE      CGUCON8
      000000CFH   SFRSYM    DATA     BYTE      CGUCON7
      000000CEH   SFRSYM    DATA     BYTE      CGUCON6
      000000CDH   SFRSYM    DATA     BYTE      CGUCON5
      000000CCH   SFRSYM    DATA     BYTE      CGUCON4
L251 LINKER/LOCATER V4.65.0.0                                                         04/14/2017  16:04:05  PAGE 33


      000000CBH   SFRSYM    DATA     BYTE      CGUCON3
      000000CAH   SFRSYM    DATA     BYTE      CGUCON2
      000000C8H   SFRSYM    DATA     BYTE      CGUCON1
      000000C9H   SFRSYM    DATA     BYTE      CGUCON0
      000000D9H   SFRSYM    DATA     BYTE      MEMBIST_ERRMAP2
      000000D8H   SFRSYM    DATA     BYTE      MEMBIST_ERRMAP1
      000000B0H   SFRSYM    DATA     BYTE      ANACON9
      000000A0H   SFRSYM    DATA     BYTE      ANACON8
      000000D5H   SFRSYM    DATA     BYTE      MEMBIST_FINISH2
      000000C7H   SFRSYM    DATA     BYTE      ANACON7
      000000D4H   SFRSYM    DATA     BYTE      MEMBIST_FINISH1
      000000E9H   SFRSYM    DATA     BYTE      SFTRST
      000000EEH   SFRSYM    DATA     BYTE      P1SEL
      000000C3H   SFRSYM    DATA     BYTE      ANACON3
      000000ECH   SFRSYM    DATA     BYTE      P0SEL
      000000C2H   SFRSYM    DATA     BYTE      ANACON2
      000000C1H   SFRSYM    DATA     BYTE      ANACON1
      000000EDH   SFRSYM    DATA     BYTE      P1MOD
      00000098H   SFRSYM    DATA     BYTE      SYSCON
      000000ADH   SFRSYM    DATA     BYTE      P1DIR
      000000EBH   SFRSYM    DATA     BYTE      P0MOD
      000000ACH   SFRSYM    DATA     BYTE      P0DIR
      00000094H   SFRSYM    DATA     BYTE      P1BUF
      00000080H   SFRSYM    DATA     BYTE      P0BUF
      000000E4H   SFRSYM    DATA     BYTE      TESTCON3
      000000E3H   SFRSYM    DATA     BYTE      TESTCON2
      000000E5H   SFRSYM    DATA     BYTE      IWKSTA
      0000009AH   SFRSYM    DATA     BYTE      WDTREL
      000000E2H   SFRSYM    DATA     BYTE      TESTCON1
      000000E1H   SFRSYM    DATA     BYTE      TESTCON0
      00000099H   SFRSYM    DATA     BYTE      WDTCON
      000000C0H   SFRSYM    DATA     BYTE      AIF
      000000E8H   SFRSYM    DATA     BYTE      AIE
      000000BDH   SFRSYM    DATA     BYTE      FT_EN_REG
      0000009EH   SFRSYM    DATA     BYTE      RTCCON
      000000FEH   SFRSYM    DATA     BYTE      LED_EN
      000000B9H   SFRSYM    DATA     BYTE      CNTCON
      000000D7H   SFRSYM    DATA     BYTE      MEMBIST_FAIL2
      000000D6H   SFRSYM    DATA     BYTE      MEMBIST_FAIL1
      000000D3H   SFRSYM    DATA     BYTE      MEMBIST_EN2
      000000D2H   SFRSYM    DATA     BYTE      MEMBIST_EN1
      0000009BH   SFRSYM    DATA     BYTE      TDIV
      000000EFH   SFRSYM    DATA     BYTE      XDP_STA
      00000088H   SFRSYM    DATA     BYTE      TCON
      00000089H   SFRSYM    DATA     BYTE      TMOD
      000000A7H   SFRSYM    DATA     BYTE      SPI0CON5
      000000B2H   SFRSYM    DATA     BYTE      SPI1CON4
      000000B1H   SFRSYM    DATA     BYTE      SPI1CON3
      000000A5H   SFRSYM    DATA     BYTE      SPI0CON3
      000000B4H   SFRSYM    DATA     BYTE      SPI1CON2
      000000EAH   SFRSYM    DATA     BYTE      ANACON
      00000087H   SFRSYM    DATA     BYTE      PCON
      000000A3H   SFRSYM    DATA     BYTE      SPI0CON2
      000000DAH   SFRSYM    DATA     BYTE      DSV_CON
      000000F8H   SFRSYM    DATA     BYTE      AIPL
      00000095H   SFRSYM    DATA     BYTE      I2CSEL
      000000F5H   SFRSYM    DATA     BYTE      SSCG_CON0
      000000F7H   SFRSYM    DATA     BYTE      AIPH
      000000FDH   SFRSYM    DATA     BYTE      I2C_STATE
      00000090H   SFRSYM    DATA     BYTE      I2CCON
      000000A9H   SFRSYM    DATA     BYTE      UARTCON
      000000B8H   SFRSYM    DATA     BYTE      IPL0
      000000B7H   SFRSYM    DATA     BYTE      IPH0
      000000DFH   SFRSYM    DATA     BYTE      IEN1
      000000A8H   SFRSYM    DATA     BYTE      IEN0
L251 LINKER/LOCATER V4.65.0.0                                                         04/14/2017  16:04:05  PAGE 34


      00000093H   SFRSYM    DATA     BYTE      I2CSTOP
      000000B3H   SFRSYM    DATA     BYTE      SPI1CON
      000000A2H   SFRSYM    DATA     BYTE      SPI0CON

      ---         MODULE    ---      ---       Test_wdt
      000000B6H   SFRSYM    DATA     BYTE      RTCCON1
      000000BFH   SFRSYM    DATA     BYTE      CGUCON8
      000000CFH   SFRSYM    DATA     BYTE      CGUCON7
      000000CEH   SFRSYM    DATA     BYTE      CGUCON6
      000000CDH   SFRSYM    DATA     BYTE      CGUCON5
      000000CCH   SFRSYM    DATA     BYTE      CGUCON4
      000000CBH   SFRSYM    DATA     BYTE      CGUCON3
      000000CAH   SFRSYM    DATA     BYTE      CGUCON2
      000000C8H   SFRSYM    DATA     BYTE      CGUCON1
      000000C9H   SFRSYM    DATA     BYTE      CGUCON0
      000000D9H   SFRSYM    DATA     BYTE      MEMBIST_ERRMAP2
      000000D8H   SFRSYM    DATA     BYTE      MEMBIST_ERRMAP1
      000000B0H   SFRSYM    DATA     BYTE      ANACON9
      000000A0H   SFRSYM    DATA     BYTE      ANACON8
      000000D5H   SFRSYM    DATA     BYTE      MEMBIST_FINISH2
      000000C7H   SFRSYM    DATA     BYTE      ANACON7
      000000D4H   SFRSYM    DATA     BYTE      MEMBIST_FINISH1
      000000E9H   SFRSYM    DATA     BYTE      SFTRST
      000000EEH   SFRSYM    DATA     BYTE      P1SEL
      000000C3H   SFRSYM    DATA     BYTE      ANACON3
      000000ECH   SFRSYM    DATA     BYTE      P0SEL
      000000C2H   SFRSYM    DATA     BYTE      ANACON2
      000000C1H   SFRSYM    DATA     BYTE      ANACON1
      000000EDH   SFRSYM    DATA     BYTE      P1MOD
      00000098H   SFRSYM    DATA     BYTE      SYSCON
      000000ADH   SFRSYM    DATA     BYTE      P1DIR
      000000EBH   SFRSYM    DATA     BYTE      P0MOD
      000000ACH   SFRSYM    DATA     BYTE      P0DIR
      00000094H   SFRSYM    DATA     BYTE      P1BUF
      00000080H   SFRSYM    DATA     BYTE      P0BUF
      000000E4H   SFRSYM    DATA     BYTE      TESTCON3
      000000E3H   SFRSYM    DATA     BYTE      TESTCON2
      000000E5H   SFRSYM    DATA     BYTE      IWKSTA
      0000009AH   SFRSYM    DATA     BYTE      WDTREL
      000000E2H   SFRSYM    DATA     BYTE      TESTCON1
      000000E1H   SFRSYM    DATA     BYTE      TESTCON0
      00000099H   SFRSYM    DATA     BYTE      WDTCON
      000000C0H   SFRSYM    DATA     BYTE      AIF
      000000E8H   SFRSYM    DATA     BYTE      AIE
      000000BDH   SFRSYM    DATA     BYTE      FT_EN_REG
      0000009EH   SFRSYM    DATA     BYTE      RTCCON
      000000FEH   SFRSYM    DATA     BYTE      LED_EN
      000000B9H   SFRSYM    DATA     BYTE      CNTCON
      000000D7H   SFRSYM    DATA     BYTE      MEMBIST_FAIL2
      000000D6H   SFRSYM    DATA     BYTE      MEMBIST_FAIL1
      000000D3H   SFRSYM    DATA     BYTE      MEMBIST_EN2
      000000D2H   SFRSYM    DATA     BYTE      MEMBIST_EN1
      0000009BH   SFRSYM    DATA     BYTE      TDIV
      000000EFH   SFRSYM    DATA     BYTE      XDP_STA
      00000088H   SFRSYM    DATA     BYTE      TCON
      00000089H   SFRSYM    DATA     BYTE      TMOD
      000000A7H   SFRSYM    DATA     BYTE      SPI0CON5
      000000B2H   SFRSYM    DATA     BYTE      SPI1CON4
      000000B1H   SFRSYM    DATA     BYTE      SPI1CON3
      000000A5H   SFRSYM    DATA     BYTE      SPI0CON3
      000000B4H   SFRSYM    DATA     BYTE      SPI1CON2
      000000EAH   SFRSYM    DATA     BYTE      ANACON
      00000087H   SFRSYM    DATA     BYTE      PCON
      000000A3H   SFRSYM    DATA     BYTE      SPI0CON2
      000000DAH   SFRSYM    DATA     BYTE      DSV_CON
L251 LINKER/LOCATER V4.65.0.0                                                         04/14/2017  16:04:05  PAGE 35


      000000F8H   SFRSYM    DATA     BYTE      AIPL
      00000095H   SFRSYM    DATA     BYTE      I2CSEL
      000000F5H   SFRSYM    DATA     BYTE      SSCG_CON0
      000000F7H   SFRSYM    DATA     BYTE      AIPH
      000000FDH   SFRSYM    DATA     BYTE      I2C_STATE
      00000090H   SFRSYM    DATA     BYTE      I2CCON
      000000A9H   SFRSYM    DATA     BYTE      UARTCON
      000000B8H   SFRSYM    DATA     BYTE      IPL0
      000000B7H   SFRSYM    DATA     BYTE      IPH0
      000000DFH   SFRSYM    DATA     BYTE      IEN1
      000000A8H   SFRSYM    DATA     BYTE      IEN0
      00000093H   SFRSYM    DATA     BYTE      I2CSTOP
      000000B3H   SFRSYM    DATA     BYTE      SPI1CON
      000000A2H   SFRSYM    DATA     BYTE      SPI0CON

      ---         MODULE    ---      ---       Test_Xbus
      000000B6H   SFRSYM    DATA     BYTE      RTCCON1
      000000BFH   SFRSYM    DATA     BYTE      CGUCON8
      000000CFH   SFRSYM    DATA     BYTE      CGUCON7
      000000CEH   SFRSYM    DATA     BYTE      CGUCON6
      000000CDH   SFRSYM    DATA     BYTE      CGUCON5
      000000CCH   SFRSYM    DATA     BYTE      CGUCON4
      000000CBH   SFRSYM    DATA     BYTE      CGUCON3
      000000CAH   SFRSYM    DATA     BYTE      CGUCON2
      000000C8H   SFRSYM    DATA     BYTE      CGUCON1
      000000C9H   SFRSYM    DATA     BYTE      CGUCON0
      000000D9H   SFRSYM    DATA     BYTE      MEMBIST_ERRMAP2
      000000D8H   SFRSYM    DATA     BYTE      MEMBIST_ERRMAP1
      000000B0H   SFRSYM    DATA     BYTE      ANACON9
      000000A0H   SFRSYM    DATA     BYTE      ANACON8
      000000D5H   SFRSYM    DATA     BYTE      MEMBIST_FINISH2
      000000C7H   SFRSYM    DATA     BYTE      ANACON7
      000000D4H   SFRSYM    DATA     BYTE      MEMBIST_FINISH1
      000000E9H   SFRSYM    DATA     BYTE      SFTRST
      000000EEH   SFRSYM    DATA     BYTE      P1SEL
      000000C3H   SFRSYM    DATA     BYTE      ANACON3
      000000ECH   SFRSYM    DATA     BYTE      P0SEL
      000000C2H   SFRSYM    DATA     BYTE      ANACON2
      000000C1H   SFRSYM    DATA     BYTE      ANACON1
      000000EDH   SFRSYM    DATA     BYTE      P1MOD
      00000098H   SFRSYM    DATA     BYTE      SYSCON
      000000ADH   SFRSYM    DATA     BYTE      P1DIR
      000000EBH   SFRSYM    DATA     BYTE      P0MOD
      000000ACH   SFRSYM    DATA     BYTE      P0DIR
      00000094H   SFRSYM    DATA     BYTE      P1BUF
      00000080H   SFRSYM    DATA     BYTE      P0BUF
      000000E4H   SFRSYM    DATA     BYTE      TESTCON3
      000000E3H   SFRSYM    DATA     BYTE      TESTCON2
      000000E5H   SFRSYM    DATA     BYTE      IWKSTA
      0000009AH   SFRSYM    DATA     BYTE      WDTREL
      000000E2H   SFRSYM    DATA     BYTE      TESTCON1
      000000E1H   SFRSYM    DATA     BYTE      TESTCON0
      00000099H   SFRSYM    DATA     BYTE      WDTCON
      000000C0H   SFRSYM    DATA     BYTE      AIF
      000000E8H   SFRSYM    DATA     BYTE      AIE
      000000BDH   SFRSYM    DATA     BYTE      FT_EN_REG
      0000009EH   SFRSYM    DATA     BYTE      RTCCON
      000000FEH   SFRSYM    DATA     BYTE      LED_EN
      000000B9H   SFRSYM    DATA     BYTE      CNTCON
      000000D7H   SFRSYM    DATA     BYTE      MEMBIST_FAIL2
      000000D6H   SFRSYM    DATA     BYTE      MEMBIST_FAIL1
      000000D3H   SFRSYM    DATA     BYTE      MEMBIST_EN2
      000000D2H   SFRSYM    DATA     BYTE      MEMBIST_EN1
      0000009BH   SFRSYM    DATA     BYTE      TDIV
      000000EFH   SFRSYM    DATA     BYTE      XDP_STA
L251 LINKER/LOCATER V4.65.0.0                                                         04/14/2017  16:04:05  PAGE 36


      00000088H   SFRSYM    DATA     BYTE      TCON
      00000089H   SFRSYM    DATA     BYTE      TMOD
      000000A7H   SFRSYM    DATA     BYTE      SPI0CON5
      000000B2H   SFRSYM    DATA     BYTE      SPI1CON4
      000000B1H   SFRSYM    DATA     BYTE      SPI1CON3
      000000A5H   SFRSYM    DATA     BYTE      SPI0CON3
      000000B4H   SFRSYM    DATA     BYTE      SPI1CON2
      000000EAH   SFRSYM    DATA     BYTE      ANACON
      00000087H   SFRSYM    DATA     BYTE      PCON
      000000A3H   SFRSYM    DATA     BYTE      SPI0CON2
      000000DAH   SFRSYM    DATA     BYTE      DSV_CON
      000000F8H   SFRSYM    DATA     BYTE      AIPL
      00000095H   SFRSYM    DATA     BYTE      I2CSEL
      000000F5H   SFRSYM    DATA     BYTE      SSCG_CON0
      000000F7H   SFRSYM    DATA     BYTE      AIPH
      000000FDH   SFRSYM    DATA     BYTE      I2C_STATE
      00000090H   SFRSYM    DATA     BYTE      I2CCON
      000000A9H   SFRSYM    DATA     BYTE      UARTCON
      000000B8H   SFRSYM    DATA     BYTE      IPL0
      000000B7H   SFRSYM    DATA     BYTE      IPH0
      000000DFH   SFRSYM    DATA     BYTE      IEN1
      000000A8H   SFRSYM    DATA     BYTE      IEN0
      00000093H   SFRSYM    DATA     BYTE      I2CSTOP
      000000B3H   SFRSYM    DATA     BYTE      SPI1CON
      000000A2H   SFRSYM    DATA     BYTE      SPI0CON

      ---         MODULE    ---      ---       Test_RomEcc
      000000B6H   SFRSYM    DATA     BYTE      RTCCON1
      000000BFH   SFRSYM    DATA     BYTE      CGUCON8
      000000CFH   SFRSYM    DATA     BYTE      CGUCON7
      000000CEH   SFRSYM    DATA     BYTE      CGUCON6
      000000CDH   SFRSYM    DATA     BYTE      CGUCON5
      000000CCH   SFRSYM    DATA     BYTE      CGUCON4
      000000CBH   SFRSYM    DATA     BYTE      CGUCON3
      000000CAH   SFRSYM    DATA     BYTE      CGUCON2
      000000C8H   SFRSYM    DATA     BYTE      CGUCON1
      000000C9H   SFRSYM    DATA     BYTE      CGUCON0
      000000D9H   SFRSYM    DATA     BYTE      MEMBIST_ERRMAP2
      000000D8H   SFRSYM    DATA     BYTE      MEMBIST_ERRMAP1
      000000B0H   SFRSYM    DATA     BYTE      ANACON9
      000000A0H   SFRSYM    DATA     BYTE      ANACON8
      000000D5H   SFRSYM    DATA     BYTE      MEMBIST_FINISH2
      000000C7H   SFRSYM    DATA     BYTE      ANACON7
      000000D4H   SFRSYM    DATA     BYTE      MEMBIST_FINISH1
      000000E9H   SFRSYM    DATA     BYTE      SFTRST
      000000EEH   SFRSYM    DATA     BYTE      P1SEL
      000000C3H   SFRSYM    DATA     BYTE      ANACON3
      000000ECH   SFRSYM    DATA     BYTE      P0SEL
      000000C2H   SFRSYM    DATA     BYTE      ANACON2
      000000C1H   SFRSYM    DATA     BYTE      ANACON1
      000000EDH   SFRSYM    DATA     BYTE      P1MOD
      00000098H   SFRSYM    DATA     BYTE      SYSCON
      000000ADH   SFRSYM    DATA     BYTE      P1DIR
      000000EBH   SFRSYM    DATA     BYTE      P0MOD
      000000ACH   SFRSYM    DATA     BYTE      P0DIR
      00000094H   SFRSYM    DATA     BYTE      P1BUF
      00000080H   SFRSYM    DATA     BYTE      P0BUF
      000000E4H   SFRSYM    DATA     BYTE      TESTCON3
      000000E3H   SFRSYM    DATA     BYTE      TESTCON2
      000000E5H   SFRSYM    DATA     BYTE      IWKSTA
      0000009AH   SFRSYM    DATA     BYTE      WDTREL
      000000E2H   SFRSYM    DATA     BYTE      TESTCON1
      000000E1H   SFRSYM    DATA     BYTE      TESTCON0
      00000099H   SFRSYM    DATA     BYTE      WDTCON
      000000C0H   SFRSYM    DATA     BYTE      AIF
L251 LINKER/LOCATER V4.65.0.0                                                         04/14/2017  16:04:05  PAGE 37


      000000E8H   SFRSYM    DATA     BYTE      AIE
      000000BDH   SFRSYM    DATA     BYTE      FT_EN_REG
      0000009EH   SFRSYM    DATA     BYTE      RTCCON
      000000FEH   SFRSYM    DATA     BYTE      LED_EN
      000000B9H   SFRSYM    DATA     BYTE      CNTCON
      000000D7H   SFRSYM    DATA     BYTE      MEMBIST_FAIL2
      000000D6H   SFRSYM    DATA     BYTE      MEMBIST_FAIL1
      000000D3H   SFRSYM    DATA     BYTE      MEMBIST_EN2
      000000D2H   SFRSYM    DATA     BYTE      MEMBIST_EN1
      0000009BH   SFRSYM    DATA     BYTE      TDIV
      000000EFH   SFRSYM    DATA     BYTE      XDP_STA
      00000088H   SFRSYM    DATA     BYTE      TCON
      00000089H   SFRSYM    DATA     BYTE      TMOD
      000000A7H   SFRSYM    DATA     BYTE      SPI0CON5
      000000B2H   SFRSYM    DATA     BYTE      SPI1CON4
      000000B1H   SFRSYM    DATA     BYTE      SPI1CON3
      000000A5H   SFRSYM    DATA     BYTE      SPI0CON3
      000000B4H   SFRSYM    DATA     BYTE      SPI1CON2
      000000EAH   SFRSYM    DATA     BYTE      ANACON
      00000087H   SFRSYM    DATA     BYTE      PCON
      000000A3H   SFRSYM    DATA     BYTE      SPI0CON2
      000000DAH   SFRSYM    DATA     BYTE      DSV_CON
      000000F8H   SFRSYM    DATA     BYTE      AIPL
      00000095H   SFRSYM    DATA     BYTE      I2CSEL
      000000F5H   SFRSYM    DATA     BYTE      SSCG_CON0
      000000F7H   SFRSYM    DATA     BYTE      AIPH
      000000FDH   SFRSYM    DATA     BYTE      I2C_STATE
      00000090H   SFRSYM    DATA     BYTE      I2CCON
      000000A9H   SFRSYM    DATA     BYTE      UARTCON
      000000B8H   SFRSYM    DATA     BYTE      IPL0
      000000B7H   SFRSYM    DATA     BYTE      IPH0
      000000DFH   SFRSYM    DATA     BYTE      IEN1
      000000A8H   SFRSYM    DATA     BYTE      IEN0
      00000093H   SFRSYM    DATA     BYTE      I2CSTOP
      000000B3H   SFRSYM    DATA     BYTE      SPI1CON
      000000A2H   SFRSYM    DATA     BYTE      SPI0CON

      ---         MODULE    ---      ---       Test_Uart
      000000B6H   SFRSYM    DATA     BYTE      RTCCON1
      000000BFH   SFRSYM    DATA     BYTE      CGUCON8
      000000CFH   SFRSYM    DATA     BYTE      CGUCON7
      000000CEH   SFRSYM    DATA     BYTE      CGUCON6
      000000CDH   SFRSYM    DATA     BYTE      CGUCON5
      000000CCH   SFRSYM    DATA     BYTE      CGUCON4
      000000CBH   SFRSYM    DATA     BYTE      CGUCON3
      000000CAH   SFRSYM    DATA     BYTE      CGUCON2
      000000C8H   SFRSYM    DATA     BYTE      CGUCON1
      000000C9H   SFRSYM    DATA     BYTE      CGUCON0
      000000D9H   SFRSYM    DATA     BYTE      MEMBIST_ERRMAP2
      000000D8H   SFRSYM    DATA     BYTE      MEMBIST_ERRMAP1
      000000B0H   SFRSYM    DATA     BYTE      ANACON9
      000000A0H   SFRSYM    DATA     BYTE      ANACON8
      000000D5H   SFRSYM    DATA     BYTE      MEMBIST_FINISH2
      000000C7H   SFRSYM    DATA     BYTE      ANACON7
      000000D4H   SFRSYM    DATA     BYTE      MEMBIST_FINISH1
      000000E9H   SFRSYM    DATA     BYTE      SFTRST
      000000EEH   SFRSYM    DATA     BYTE      P1SEL
      000000C3H   SFRSYM    DATA     BYTE      ANACON3
      000000ECH   SFRSYM    DATA     BYTE      P0SEL
      000000C2H   SFRSYM    DATA     BYTE      ANACON2
      000000C1H   SFRSYM    DATA     BYTE      ANACON1
      000000EDH   SFRSYM    DATA     BYTE      P1MOD
      00000098H   SFRSYM    DATA     BYTE      SYSCON
      000000ADH   SFRSYM    DATA     BYTE      P1DIR
      000000EBH   SFRSYM    DATA     BYTE      P0MOD
L251 LINKER/LOCATER V4.65.0.0                                                         04/14/2017  16:04:05  PAGE 38


      000000ACH   SFRSYM    DATA     BYTE      P0DIR
      00000094H   SFRSYM    DATA     BYTE      P1BUF
      00000080H   SFRSYM    DATA     BYTE      P0BUF
      000000E4H   SFRSYM    DATA     BYTE      TESTCON3
      000000E3H   SFRSYM    DATA     BYTE      TESTCON2
      000000E5H   SFRSYM    DATA     BYTE      IWKSTA
      0000009AH   SFRSYM    DATA     BYTE      WDTREL
      000000E2H   SFRSYM    DATA     BYTE      TESTCON1
      000000E1H   SFRSYM    DATA     BYTE      TESTCON0
      00000099H   SFRSYM    DATA     BYTE      WDTCON
      000000C0H   SFRSYM    DATA     BYTE      AIF
      000000E8H   SFRSYM    DATA     BYTE      AIE
      000000BDH   SFRSYM    DATA     BYTE      FT_EN_REG
      0000009EH   SFRSYM    DATA     BYTE      RTCCON
      000000FEH   SFRSYM    DATA     BYTE      LED_EN
      000000B9H   SFRSYM    DATA     BYTE      CNTCON
      000000D7H   SFRSYM    DATA     BYTE      MEMBIST_FAIL2
      000000D6H   SFRSYM    DATA     BYTE      MEMBIST_FAIL1
      000000D3H   SFRSYM    DATA     BYTE      MEMBIST_EN2
      000000D2H   SFRSYM    DATA     BYTE      MEMBIST_EN1
      0000009BH   SFRSYM    DATA     BYTE      TDIV
      000000EFH   SFRSYM    DATA     BYTE      XDP_STA
      00000088H   SFRSYM    DATA     BYTE      TCON
      00000089H   SFRSYM    DATA     BYTE      TMOD
      000000A7H   SFRSYM    DATA     BYTE      SPI0CON5
      000000B2H   SFRSYM    DATA     BYTE      SPI1CON4
      000000B1H   SFRSYM    DATA     BYTE      SPI1CON3
      000000A5H   SFRSYM    DATA     BYTE      SPI0CON3
      000000B4H   SFRSYM    DATA     BYTE      SPI1CON2
      000000EAH   SFRSYM    DATA     BYTE      ANACON
      00000087H   SFRSYM    DATA     BYTE      PCON
      000000A3H   SFRSYM    DATA     BYTE      SPI0CON2
      000000DAH   SFRSYM    DATA     BYTE      DSV_CON
      000000F8H   SFRSYM    DATA     BYTE      AIPL
      00000095H   SFRSYM    DATA     BYTE      I2CSEL
      000000F5H   SFRSYM    DATA     BYTE      SSCG_CON0
      000000F7H   SFRSYM    DATA     BYTE      AIPH
      000000FDH   SFRSYM    DATA     BYTE      I2C_STATE
      00000090H   SFRSYM    DATA     BYTE      I2CCON
      000000A9H   SFRSYM    DATA     BYTE      UARTCON
      000000B8H   SFRSYM    DATA     BYTE      IPL0
      000000B7H   SFRSYM    DATA     BYTE      IPH0
      000000DFH   SFRSYM    DATA     BYTE      IEN1
      000000A8H   SFRSYM    DATA     BYTE      IEN0
      00000093H   SFRSYM    DATA     BYTE      I2CSTOP
      000000B3H   SFRSYM    DATA     BYTE      SPI1CON
      000000A2H   SFRSYM    DATA     BYTE      SPI0CON

      ---         MODULE    ---      ---       Test_SFT_RST
      000000B6H   SFRSYM    DATA     BYTE      RTCCON1
      000000BFH   SFRSYM    DATA     BYTE      CGUCON8
      000000CFH   SFRSYM    DATA     BYTE      CGUCON7
      000000CEH   SFRSYM    DATA     BYTE      CGUCON6
      000000CDH   SFRSYM    DATA     BYTE      CGUCON5
      000000CCH   SFRSYM    DATA     BYTE      CGUCON4
      000000CBH   SFRSYM    DATA     BYTE      CGUCON3
      000000CAH   SFRSYM    DATA     BYTE      CGUCON2
      000000C8H   SFRSYM    DATA     BYTE      CGUCON1
      000000C9H   SFRSYM    DATA     BYTE      CGUCON0
      000000D9H   SFRSYM    DATA     BYTE      MEMBIST_ERRMAP2
      000000D8H   SFRSYM    DATA     BYTE      MEMBIST_ERRMAP1
      000000B0H   SFRSYM    DATA     BYTE      ANACON9
      000000A0H   SFRSYM    DATA     BYTE      ANACON8
      000000D5H   SFRSYM    DATA     BYTE      MEMBIST_FINISH2
      000000C7H   SFRSYM    DATA     BYTE      ANACON7
L251 LINKER/LOCATER V4.65.0.0                                                         04/14/2017  16:04:05  PAGE 39


      000000D4H   SFRSYM    DATA     BYTE      MEMBIST_FINISH1
      000000E9H   SFRSYM    DATA     BYTE      SFTRST
      000000EEH   SFRSYM    DATA     BYTE      P1SEL
      000000C3H   SFRSYM    DATA     BYTE      ANACON3
      000000ECH   SFRSYM    DATA     BYTE      P0SEL
      000000C2H   SFRSYM    DATA     BYTE      ANACON2
      000000C1H   SFRSYM    DATA     BYTE      ANACON1
      000000EDH   SFRSYM    DATA     BYTE      P1MOD
      00000098H   SFRSYM    DATA     BYTE      SYSCON
      000000ADH   SFRSYM    DATA     BYTE      P1DIR
      000000EBH   SFRSYM    DATA     BYTE      P0MOD
      000000ACH   SFRSYM    DATA     BYTE      P0DIR
      00000094H   SFRSYM    DATA     BYTE      P1BUF
      00000080H   SFRSYM    DATA     BYTE      P0BUF
      000000E4H   SFRSYM    DATA     BYTE      TESTCON3
      000000E3H   SFRSYM    DATA     BYTE      TESTCON2
      000000E5H   SFRSYM    DATA     BYTE      IWKSTA
      0000009AH   SFRSYM    DATA     BYTE      WDTREL
      000000E2H   SFRSYM    DATA     BYTE      TESTCON1
      000000E1H   SFRSYM    DATA     BYTE      TESTCON0
      00000099H   SFRSYM    DATA     BYTE      WDTCON
      000000C0H   SFRSYM    DATA     BYTE      AIF
      000000E8H   SFRSYM    DATA     BYTE      AIE
      000000BDH   SFRSYM    DATA     BYTE      FT_EN_REG
      0000009EH   SFRSYM    DATA     BYTE      RTCCON
      000000FEH   SFRSYM    DATA     BYTE      LED_EN
      000000B9H   SFRSYM    DATA     BYTE      CNTCON
      000000D7H   SFRSYM    DATA     BYTE      MEMBIST_FAIL2
      000000D6H   SFRSYM    DATA     BYTE      MEMBIST_FAIL1
      000000D3H   SFRSYM    DATA     BYTE      MEMBIST_EN2
      000000D2H   SFRSYM    DATA     BYTE      MEMBIST_EN1
      0000009BH   SFRSYM    DATA     BYTE      TDIV
      000000EFH   SFRSYM    DATA     BYTE      XDP_STA
      00000088H   SFRSYM    DATA     BYTE      TCON
      00000089H   SFRSYM    DATA     BYTE      TMOD
      000000A7H   SFRSYM    DATA     BYTE      SPI0CON5
      000000B2H   SFRSYM    DATA     BYTE      SPI1CON4
      000000B1H   SFRSYM    DATA     BYTE      SPI1CON3
      000000A5H   SFRSYM    DATA     BYTE      SPI0CON3
      000000B4H   SFRSYM    DATA     BYTE      SPI1CON2
      000000EAH   SFRSYM    DATA     BYTE      ANACON
      00000087H   SFRSYM    DATA     BYTE      PCON
      000000A3H   SFRSYM    DATA     BYTE      SPI0CON2
      000000DAH   SFRSYM    DATA     BYTE      DSV_CON
      000000F8H   SFRSYM    DATA     BYTE      AIPL
      00000095H   SFRSYM    DATA     BYTE      I2CSEL
      000000F5H   SFRSYM    DATA     BYTE      SSCG_CON0
      000000F7H   SFRSYM    DATA     BYTE      AIPH
      000000FDH   SFRSYM    DATA     BYTE      I2C_STATE
      00000090H   SFRSYM    DATA     BYTE      I2CCON
      000000A9H   SFRSYM    DATA     BYTE      UARTCON
      000000B8H   SFRSYM    DATA     BYTE      IPL0
      000000B7H   SFRSYM    DATA     BYTE      IPH0
      000000DFH   SFRSYM    DATA     BYTE      IEN1
      000000A8H   SFRSYM    DATA     BYTE      IEN0
      00000093H   SFRSYM    DATA     BYTE      I2CSTOP
      000000B3H   SFRSYM    DATA     BYTE      SPI1CON
      000000A2H   SFRSYM    DATA     BYTE      SPI0CON

      ---         MODULE    ---      ---       Test_spi0
      000000B6H   SFRSYM    DATA     BYTE      RTCCON1
      000000BFH   SFRSYM    DATA     BYTE      CGUCON8
      000000CFH   SFRSYM    DATA     BYTE      CGUCON7
      000000CEH   SFRSYM    DATA     BYTE      CGUCON6
      000000CDH   SFRSYM    DATA     BYTE      CGUCON5
L251 LINKER/LOCATER V4.65.0.0                                                         04/14/2017  16:04:05  PAGE 40


      000000CCH   SFRSYM    DATA     BYTE      CGUCON4
      000000CBH   SFRSYM    DATA     BYTE      CGUCON3
      000000CAH   SFRSYM    DATA     BYTE      CGUCON2
      000000C8H   SFRSYM    DATA     BYTE      CGUCON1
      000000C9H   SFRSYM    DATA     BYTE      CGUCON0
      000000D9H   SFRSYM    DATA     BYTE      MEMBIST_ERRMAP2
      000000D8H   SFRSYM    DATA     BYTE      MEMBIST_ERRMAP1
      000000B0H   SFRSYM    DATA     BYTE      ANACON9
      000000A0H   SFRSYM    DATA     BYTE      ANACON8
      000000D5H   SFRSYM    DATA     BYTE      MEMBIST_FINISH2
      000000C7H   SFRSYM    DATA     BYTE      ANACON7
      000000D4H   SFRSYM    DATA     BYTE      MEMBIST_FINISH1
      000000E9H   SFRSYM    DATA     BYTE      SFTRST
      000000EEH   SFRSYM    DATA     BYTE      P1SEL
      000000C3H   SFRSYM    DATA     BYTE      ANACON3
      000000ECH   SFRSYM    DATA     BYTE      P0SEL
      000000C2H   SFRSYM    DATA     BYTE      ANACON2
      000000C1H   SFRSYM    DATA     BYTE      ANACON1
      000000EDH   SFRSYM    DATA     BYTE      P1MOD
      00000098H   SFRSYM    DATA     BYTE      SYSCON
      000000ADH   SFRSYM    DATA     BYTE      P1DIR
      000000EBH   SFRSYM    DATA     BYTE      P0MOD
      000000ACH   SFRSYM    DATA     BYTE      P0DIR
      00000094H   SFRSYM    DATA     BYTE      P1BUF
      00000080H   SFRSYM    DATA     BYTE      P0BUF
      000000E4H   SFRSYM    DATA     BYTE      TESTCON3
      000000E3H   SFRSYM    DATA     BYTE      TESTCON2
      000000E5H   SFRSYM    DATA     BYTE      IWKSTA
      0000009AH   SFRSYM    DATA     BYTE      WDTREL
      000000E2H   SFRSYM    DATA     BYTE      TESTCON1
      000000E1H   SFRSYM    DATA     BYTE      TESTCON0
      00000099H   SFRSYM    DATA     BYTE      WDTCON
      000000C0H   SFRSYM    DATA     BYTE      AIF
      000000E8H   SFRSYM    DATA     BYTE      AIE
      000000BDH   SFRSYM    DATA     BYTE      FT_EN_REG
      0000009EH   SFRSYM    DATA     BYTE      RTCCON
      000000FEH   SFRSYM    DATA     BYTE      LED_EN
      000000B9H   SFRSYM    DATA     BYTE      CNTCON
      000000D7H   SFRSYM    DATA     BYTE      MEMBIST_FAIL2
      000000D6H   SFRSYM    DATA     BYTE      MEMBIST_FAIL1
      000000D3H   SFRSYM    DATA     BYTE      MEMBIST_EN2
      000000D2H   SFRSYM    DATA     BYTE      MEMBIST_EN1
      0000009BH   SFRSYM    DATA     BYTE      TDIV
      000000EFH   SFRSYM    DATA     BYTE      XDP_STA
      00000088H   SFRSYM    DATA     BYTE      TCON
      00000089H   SFRSYM    DATA     BYTE      TMOD
      000000A7H   SFRSYM    DATA     BYTE      SPI0CON5
      000000B2H   SFRSYM    DATA     BYTE      SPI1CON4
      000000B1H   SFRSYM    DATA     BYTE      SPI1CON3
      000000A5H   SFRSYM    DATA     BYTE      SPI0CON3
      000000B4H   SFRSYM    DATA     BYTE      SPI1CON2
      000000EAH   SFRSYM    DATA     BYTE      ANACON
      00000087H   SFRSYM    DATA     BYTE      PCON
      000000A3H   SFRSYM    DATA     BYTE      SPI0CON2
      000000DAH   SFRSYM    DATA     BYTE      DSV_CON
      000000F8H   SFRSYM    DATA     BYTE      AIPL
      00000095H   SFRSYM    DATA     BYTE      I2CSEL
      000000F5H   SFRSYM    DATA     BYTE      SSCG_CON0
      000000F7H   SFRSYM    DATA     BYTE      AIPH
      000000FDH   SFRSYM    DATA     BYTE      I2C_STATE
      00000090H   SFRSYM    DATA     BYTE      I2CCON
      000000A9H   SFRSYM    DATA     BYTE      UARTCON
      000000B8H   SFRSYM    DATA     BYTE      IPL0
      000000B7H   SFRSYM    DATA     BYTE      IPH0
      000000DFH   SFRSYM    DATA     BYTE      IEN1
L251 LINKER/LOCATER V4.65.0.0                                                         04/14/2017  16:04:05  PAGE 41


      000000A8H   SFRSYM    DATA     BYTE      IEN0
      00000093H   SFRSYM    DATA     BYTE      I2CSTOP
      000000B3H   SFRSYM    DATA     BYTE      SPI1CON
      000000A2H   SFRSYM    DATA     BYTE      SPI0CON

      ---         MODULE    ---      ---       Test_spi0_dma
      000000B6H   SFRSYM    DATA     BYTE      RTCCON1
      000000BFH   SFRSYM    DATA     BYTE      CGUCON8
      000000CFH   SFRSYM    DATA     BYTE      CGUCON7
      000000CEH   SFRSYM    DATA     BYTE      CGUCON6
      000000CDH   SFRSYM    DATA     BYTE      CGUCON5
      000000CCH   SFRSYM    DATA     BYTE      CGUCON4
      000000CBH   SFRSYM    DATA     BYTE      CGUCON3
      000000CAH   SFRSYM    DATA     BYTE      CGUCON2
      000000C8H   SFRSYM    DATA     BYTE      CGUCON1
      000000C9H   SFRSYM    DATA     BYTE      CGUCON0
      000000D9H   SFRSYM    DATA     BYTE      MEMBIST_ERRMAP2
      000000D8H   SFRSYM    DATA     BYTE      MEMBIST_ERRMAP1
      000000B0H   SFRSYM    DATA     BYTE      ANACON9
      000000A0H   SFRSYM    DATA     BYTE      ANACON8
      000000D5H   SFRSYM    DATA     BYTE      MEMBIST_FINISH2
      000000C7H   SFRSYM    DATA     BYTE      ANACON7
      000000D4H   SFRSYM    DATA     BYTE      MEMBIST_FINISH1
      000000E9H   SFRSYM    DATA     BYTE      SFTRST
      000000EEH   SFRSYM    DATA     BYTE      P1SEL
      000000C3H   SFRSYM    DATA     BYTE      ANACON3
      000000ECH   SFRSYM    DATA     BYTE      P0SEL
      000000C2H   SFRSYM    DATA     BYTE      ANACON2
      000000C1H   SFRSYM    DATA     BYTE      ANACON1
      000000EDH   SFRSYM    DATA     BYTE      P1MOD
      00000098H   SFRSYM    DATA     BYTE      SYSCON
      000000ADH   SFRSYM    DATA     BYTE      P1DIR
      000000EBH   SFRSYM    DATA     BYTE      P0MOD
      000000ACH   SFRSYM    DATA     BYTE      P0DIR
      00000094H   SFRSYM    DATA     BYTE      P1BUF
      00000080H   SFRSYM    DATA     BYTE      P0BUF
      000000E4H   SFRSYM    DATA     BYTE      TESTCON3
      000000E3H   SFRSYM    DATA     BYTE      TESTCON2
      000000E5H   SFRSYM    DATA     BYTE      IWKSTA
      0000009AH   SFRSYM    DATA     BYTE      WDTREL
      000000E2H   SFRSYM    DATA     BYTE      TESTCON1
      000000E1H   SFRSYM    DATA     BYTE      TESTCON0
      00000099H   SFRSYM    DATA     BYTE      WDTCON
      000000C0H   SFRSYM    DATA     BYTE      AIF
      000000E8H   SFRSYM    DATA     BYTE      AIE
      000000BDH   SFRSYM    DATA     BYTE      FT_EN_REG
      0000009EH   SFRSYM    DATA     BYTE      RTCCON
      000000FEH   SFRSYM    DATA     BYTE      LED_EN
      000000B9H   SFRSYM    DATA     BYTE      CNTCON
      000000D7H   SFRSYM    DATA     BYTE      MEMBIST_FAIL2
      000000D6H   SFRSYM    DATA     BYTE      MEMBIST_FAIL1
      000000D3H   SFRSYM    DATA     BYTE      MEMBIST_EN2
      000000D2H   SFRSYM    DATA     BYTE      MEMBIST_EN1
      0000009BH   SFRSYM    DATA     BYTE      TDIV
      000000EFH   SFRSYM    DATA     BYTE      XDP_STA
      00000088H   SFRSYM    DATA     BYTE      TCON
      00000089H   SFRSYM    DATA     BYTE      TMOD
      000000A7H   SFRSYM    DATA     BYTE      SPI0CON5
      000000B2H   SFRSYM    DATA     BYTE      SPI1CON4
      000000B1H   SFRSYM    DATA     BYTE      SPI1CON3
      000000A5H   SFRSYM    DATA     BYTE      SPI0CON3
      000000B4H   SFRSYM    DATA     BYTE      SPI1CON2
      000000EAH   SFRSYM    DATA     BYTE      ANACON
      00000087H   SFRSYM    DATA     BYTE      PCON
      000000A3H   SFRSYM    DATA     BYTE      SPI0CON2
L251 LINKER/LOCATER V4.65.0.0                                                         04/14/2017  16:04:05  PAGE 42


      000000DAH   SFRSYM    DATA     BYTE      DSV_CON
      000000F8H   SFRSYM    DATA     BYTE      AIPL
      00000095H   SFRSYM    DATA     BYTE      I2CSEL
      000000F5H   SFRSYM    DATA     BYTE      SSCG_CON0
      000000F7H   SFRSYM    DATA     BYTE      AIPH
      000000FDH   SFRSYM    DATA     BYTE      I2C_STATE
      00000090H   SFRSYM    DATA     BYTE      I2CCON
      000000A9H   SFRSYM    DATA     BYTE      UARTCON
      000000B8H   SFRSYM    DATA     BYTE      IPL0
      000000B7H   SFRSYM    DATA     BYTE      IPH0
      000000DFH   SFRSYM    DATA     BYTE      IEN1
      000000A8H   SFRSYM    DATA     BYTE      IEN0
      00000093H   SFRSYM    DATA     BYTE      I2CSTOP
      000000B3H   SFRSYM    DATA     BYTE      SPI1CON
      000000A2H   SFRSYM    DATA     BYTE      SPI0CON

      ---         MODULE    ---      ---       Test_RTC
      00FEEC2AH   PUBLIC    ECODE    ---       DrvSysTimer0_Init?
      00FEEBF1H   PUBLIC    ECODE    ---       DrvRTCInit?
      00FEEC5FH   PUBLIC    ECODE    ---       Timer0_IRQHandler?
      00FEEC46H   PUBLIC    ECODE    ---       Exint0_IRQHandler?
      00FEEC6EH   PUBLIC    ECODE    ---       Exint1_IRQHandler?
      00FEEC7DH   PUBLIC    ECODE    ---       Test_RTC?
      00FEEC1AH   PUBLIC    ECODE    ---       ExternInt0Init?
      00FEEC3AH   PUBLIC    ECODE    ---       ExternInt1Init?
      00000058H   PUBLIC    EDATA    BYTE      g_nWKsrc
      00000059H   PUBLIC    EDATA    WORD      m_usCnt
      00000020H.0 PUBLIC    BIT      BIT       g_bRtcFlag
      00000020H.1 PUBLIC    BIT      BIT       g_bWKsrcOut
      000000B6H   SFRSYM    DATA     BYTE      RTCCON1
      000000E5H   SFRSYM    DATA     BIT       RTC_CNT_INT
      000000BFH   SFRSYM    DATA     BYTE      CGUCON8
      000000CFH   SFRSYM    DATA     BYTE      CGUCON7
      000000CEH   SFRSYM    DATA     BYTE      CGUCON6
      000000CDH   SFRSYM    DATA     BYTE      CGUCON5
      000000CCH   SFRSYM    DATA     BYTE      CGUCON4
      000000CBH   SFRSYM    DATA     BYTE      CGUCON3
      000000CAH   SFRSYM    DATA     BYTE      CGUCON2
      0000009EH.2 SFRSYM    DATA     BIT       RTC_INT_EN_CPU
      000000C8H   SFRSYM    DATA     BYTE      CGUCON1
      000000C9H   SFRSYM    DATA     BYTE      CGUCON0
      0000009EH   SFRSYM    DATA     BIT       RTC_WP
      000000D9H   SFRSYM    DATA     BYTE      MEMBIST_ERRMAP2
      000000D8H   SFRSYM    DATA     BYTE      MEMBIST_ERRMAP1
      000000B8H.2 SFRSYM    DATA     BIT       IPLX1
      000000B8H   SFRSYM    DATA     BIT       IPLX0
      000000B0H   SFRSYM    DATA     BYTE      ANACON9
      000000B7H.2 SFRSYM    DATA     BIT       IPHX1
      000000A0H   SFRSYM    DATA     BYTE      ANACON8
      000000D5H   SFRSYM    DATA     BYTE      MEMBIST_FINISH2
      000000B7H   SFRSYM    DATA     BIT       IPHX0
      000000C7H   SFRSYM    DATA     BYTE      ANACON7
      000000D4H   SFRSYM    DATA     BYTE      MEMBIST_FINISH1
      000000E9H   SFRSYM    DATA     BYTE      SFTRST
      000000EEH   SFRSYM    DATA     BYTE      P1SEL
      000000C3H   SFRSYM    DATA     BYTE      ANACON3
      000000ECH   SFRSYM    DATA     BYTE      P0SEL
      000000C2H   SFRSYM    DATA     BYTE      ANACON2
      000000C1H   SFRSYM    DATA     BYTE      ANACON1
      000000EDH   SFRSYM    DATA     BYTE      P1MOD
      000000CEH   SFRSYM    DATA     BIT       CLK_WP
      00000098H   SFRSYM    DATA     BYTE      SYSCON
      000000ADH   SFRSYM    DATA     BYTE      P1DIR
      000000EBH   SFRSYM    DATA     BYTE      P0MOD
      000000ACH   SFRSYM    DATA     BYTE      P0DIR
L251 LINKER/LOCATER V4.65.0.0                                                         04/14/2017  16:04:05  PAGE 43


      00000094H   SFRSYM    DATA     BYTE      P1BUF
      00000080H   SFRSYM    DATA     BYTE      P0BUF
      0000009EH.7 SFRSYM    DATA     BIT       RTC_START
      0000009CH   SFRSYM    DATA     BYTE      RTCIVL
      000000E4H   SFRSYM    DATA     BYTE      TESTCON3
      00000088H.4 SFRSYM    DATA     BIT       TR0
      000000E3H   SFRSYM    DATA     BYTE      TESTCON2
      000000E5H   SFRSYM    DATA     BYTE      IWKSTA
      0000009AH   SFRSYM    DATA     BYTE      WDTREL
      000000E2H   SFRSYM    DATA     BYTE      TESTCON1
      000000E1H   SFRSYM    DATA     BYTE      TESTCON0
      0000009DH   SFRSYM    DATA     BYTE      RTCIVH
      00000099H   SFRSYM    DATA     BYTE      WDTCON
      0000008AH   SFRSYM    DATA     BYTE      TL0
      000000C0H   SFRSYM    DATA     BYTE      AIF
      000000E8H   SFRSYM    DATA     BYTE      AIE
      00000088H.2 SFRSYM    DATA     BIT       IT1
      000000A8H.2 SFRSYM    DATA     BIT       EX1
      000000BDH   SFRSYM    DATA     BYTE      FT_EN_REG
      00000088H   SFRSYM    DATA     BIT       IT0
      000000A8H   SFRSYM    DATA     BIT       EX0
      0000008CH   SFRSYM    DATA     BYTE      TH0
      0000009EH   SFRSYM    DATA     BYTE      RTCCON
      000000FEH   SFRSYM    DATA     BYTE      LED_EN
      000000A8H.1 SFRSYM    DATA     BIT       ET0
      000000B9H   SFRSYM    DATA     BYTE      CNTCON
      000000CDH   SFRSYM    DATA     BIT       RTC_CNT_WKEN
      000000D7H   SFRSYM    DATA     BYTE      MEMBIST_FAIL2
      000000D6H   SFRSYM    DATA     BYTE      MEMBIST_FAIL1
      000000D3H   SFRSYM    DATA     BYTE      MEMBIST_EN2
      000000D2H   SFRSYM    DATA     BYTE      MEMBIST_EN1
      0000009BH   SFRSYM    DATA     BYTE      TDIV
      000000B6H   SFRSYM    DATA     BIT       LCD_START_EN
      000000EFH   SFRSYM    DATA     BYTE      XDP_STA
      00000088H   SFRSYM    DATA     BYTE      TCON
      00000089H   SFRSYM    DATA     BYTE      TMOD
      000000A7H   SFRSYM    DATA     BYTE      SPI0CON5
      000000B2H   SFRSYM    DATA     BYTE      SPI1CON4
      000000B1H   SFRSYM    DATA     BYTE      SPI1CON3
      000000A5H   SFRSYM    DATA     BYTE      SPI0CON3
      000000B4H   SFRSYM    DATA     BYTE      SPI1CON2
      000000EAH   SFRSYM    DATA     BYTE      ANACON
      00000087H   SFRSYM    DATA     BYTE      PCON
      000000A3H   SFRSYM    DATA     BYTE      SPI0CON2
      000000DAH   SFRSYM    DATA     BYTE      DSV_CON
      0000009EH.4 SFRSYM    DATA     BIT       RTC_CLR
      000000F8H   SFRSYM    DATA     BYTE      AIPL
      00000095H   SFRSYM    DATA     BYTE      I2CSEL
      0000009EH.5 SFRSYM    DATA     BIT       RTC_START_STA
      000000C9H.5 SFRSYM    DATA     BIT       EN_32K
      000000F5H   SFRSYM    DATA     BYTE      SSCG_CON0
      000000F7H   SFRSYM    DATA     BYTE      AIPH
      000000FDH   SFRSYM    DATA     BYTE      I2C_STATE
      00000090H   SFRSYM    DATA     BYTE      I2CCON
      000000A9H   SFRSYM    DATA     BYTE      UARTCON
      000000CAH   SFRSYM    DATA     BIT       CKEN_32KRTC
      000000B8H   SFRSYM    DATA     BYTE      IPL0
      000000B7H   SFRSYM    DATA     BYTE      IPH0
      00000080H.2 SFRSYM    DATA     BIT       P0_2
      000000DFH   SFRSYM    DATA     BYTE      IEN1
      000000A8H   SFRSYM    DATA     BYTE      IEN0
      000000CBH   SFRSYM    DATA     BIT       RTCCKEN
      0000009EH.1 SFRSYM    DATA     BIT       RTC_AUTO_MODE
      00000093H   SFRSYM    DATA     BYTE      I2CSTOP
      000000A8H.7 SFRSYM    DATA     BIT       EA
L251 LINKER/LOCATER V4.65.0.0                                                         04/14/2017  16:04:05  PAGE 44


      000000B3H   SFRSYM    DATA     BYTE      SPI1CON
      000000A2H   SFRSYM    DATA     BYTE      SPI0CON

      00FEEBF1H   BLOCK     ECODE    ---       LVL=0
      00FEEBF1H   LINE      ECODE    ---       #98
      00FEEBF1H   LINE      ECODE    ---       #101
      00FEEBF4H   LINE      ECODE    ---       #102
      00FEEBF7H   LINE      ECODE    ---       #103
      00FEEBFAH   LINE      ECODE    ---       #106
      00FEEBFDH   LINE      ECODE    ---       #109
      00FEEC00H   LINE      ECODE    ---       #110
      00FEEC03H   LINE      ECODE    ---       #114
      00FEEC06H   LINE      ECODE    ---       #115
      00FEEC09H   LINE      ECODE    ---       #119
      00FEEC0CH   LINE      ECODE    ---       #120
      00FEEC0FH   LINE      ECODE    ---       #158
      00FEEC12H   LINE      ECODE    ---       #176
      ---         BLOCKEND  ---      ---       LVL=0

      00FEEC1AH   BLOCK     ECODE    ---       LVL=0
      00FEEC1AH   LINE      ECODE    ---       #187
      00FEEC1AH   LINE      ECODE    ---       #189
      00FEEC1CH   LINE      ECODE    ---       #191
      00FEEC1FH   LINE      ECODE    ---       #192
      00FEEC22H   LINE      ECODE    ---       #194
      00FEEC24H   LINE      ECODE    ---       #195
      00FEEC27H   LINE      ECODE    ---       #197
      00FEEC29H   LINE      ECODE    ---       #198
      ---         BLOCKEND  ---      ---       LVL=0

      00FEEC2AH   BLOCK     ECODE    ---       LVL=0
      00FEEC2AH   LINE      ECODE    ---       #207
      00FEEC2AH   LINE      ECODE    ---       #209
      00FEEC2CH   LINE      ECODE    ---       #210
      00FEEC35H   LINE      ECODE    ---       #212
      00FEEC37H   LINE      ECODE    ---       #213
      00FEEC39H   LINE      ECODE    ---       #214
      ---         BLOCKEND  ---      ---       LVL=0

      00FEEC3AH   BLOCK     ECODE    ---       LVL=0
      00FEEC3AH   LINE      ECODE    ---       #223
      00FEEC3AH   LINE      ECODE    ---       #225
      00FEEC3CH   LINE      ECODE    ---       #226
      00FEEC3FH   LINE      ECODE    ---       #227
      00FEEC41H   LINE      ECODE    ---       #228
      00FEEC43H   LINE      ECODE    ---       #229
      00FEEC45H   LINE      ECODE    ---       #230
      ---         BLOCKEND  ---      ---       LVL=0

      00FEEC46H   BLOCK     ECODE    ---       LVL=0
      00FEEC46H   LINE      ECODE    ---       #239
      00FEEC48H   LINE      ECODE    ---       #241
      00FEEC4BH   LINE      ECODE    ---       #243
      00FEEC51H   LINE      ECODE    ---       #244
      00FEEC53H   LINE      ECODE    ---       #245
      00FEEC53H   LINE      ECODE    ---       #246
      00FEEC55H   LINE      ECODE    ---       #247
      00FEEC59H   LINE      ECODE    ---       #249
      00FEEC5CH   LINE      ECODE    ---       #251
      ---         BLOCKEND  ---      ---       LVL=0

      00FEEC5FH   BLOCK     ECODE    ---       LVL=0
      00FEEC5FH   LINE      ECODE    ---       #261
      00FEEC61H   LINE      ECODE    ---       #263
      00FEEC6BH   LINE      ECODE    ---       #264
L251 LINKER/LOCATER V4.65.0.0                                                         04/14/2017  16:04:05  PAGE 45


      ---         BLOCKEND  ---      ---       LVL=0

      00FEEC6EH   BLOCK     ECODE    ---       LVL=0
      00FEEC6EH   LINE      ECODE    ---       #273
      00FEEC6EH   LINE      ECODE    ---       #275
      00FEEC70H   LINE      ECODE    ---       #278
      00FEEC74H   LINE      ECODE    ---       #279
      00FEEC77H   LINE      ECODE    ---       #280
      00FEEC7AH   LINE      ECODE    ---       #285
      00FEEC7CH   LINE      ECODE    ---       #290
      ---         BLOCKEND  ---      ---       LVL=0

      00FEEC7DH   BLOCK     ECODE    ---       LVL=0
      00FEEC7DH   LINE      ECODE    ---       #299
      00FEEC7DH   LINE      ECODE    ---       #301
      00FEEC81H   LINE      ECODE    ---       #302
      00FEEC85H   LINE      ECODE    ---       #303
      00FEEC89H   LINE      ECODE    ---       #310
      00FEEC8CH   LINE      ECODE    ---       #311
      00FEEC8FH   LINE      ECODE    ---       #314
      00FEEC92H   LINE      ECODE    ---       #315
      00FEEC95H   LINE      ECODE    ---       #317
      00FEEC97H   LINE      ECODE    ---       #319
      00FEEC97H   LINE      ECODE    ---       #321
      00FEEC99H   LINE      ECODE    ---       #322
      00FEEC9BH   LINE      ECODE    ---       #323
      00FEECA1H   LINE      ECODE    ---       #363
      00FEECA4H   LINE      ECODE    ---       #365
      00FEECACH   LINE      ECODE    ---       #367
      00FEECB2H   LINE      ECODE    ---       #370
      ---         BLOCKEND  ---      ---       LVL=0

      ---         MODULE    ---      ---       Drv_Cal
      000000B6H   SFRSYM    DATA     BYTE      RTCCON1
      000000BFH   SFRSYM    DATA     BYTE      CGUCON8
      000000CFH   SFRSYM    DATA     BYTE      CGUCON7
      000000CEH   SFRSYM    DATA     BYTE      CGUCON6
      000000CDH   SFRSYM    DATA     BYTE      CGUCON5
      000000CCH   SFRSYM    DATA     BYTE      CGUCON4
      000000CBH   SFRSYM    DATA     BYTE      CGUCON3
      000000CAH   SFRSYM    DATA     BYTE      CGUCON2
      000000C8H   SFRSYM    DATA     BYTE      CGUCON1
      000000C9H   SFRSYM    DATA     BYTE      CGUCON0
      000000D9H   SFRSYM    DATA     BYTE      MEMBIST_ERRMAP2
      000000D8H   SFRSYM    DATA     BYTE      MEMBIST_ERRMAP1
      000000B0H   SFRSYM    DATA     BYTE      ANACON9
      000000A0H   SFRSYM    DATA     BYTE      ANACON8
      000000D5H   SFRSYM    DATA     BYTE      MEMBIST_FINISH2
      000000C7H   SFRSYM    DATA     BYTE      ANACON7
      000000D4H   SFRSYM    DATA     BYTE      MEMBIST_FINISH1
      000000E9H   SFRSYM    DATA     BYTE      SFTRST
      000000EEH   SFRSYM    DATA     BYTE      P1SEL
      000000C3H   SFRSYM    DATA     BYTE      ANACON3
      000000ECH   SFRSYM    DATA     BYTE      P0SEL
      000000C2H   SFRSYM    DATA     BYTE      ANACON2
      000000C1H   SFRSYM    DATA     BYTE      ANACON1
      000000EDH   SFRSYM    DATA     BYTE      P1MOD
      00000098H   SFRSYM    DATA     BYTE      SYSCON
      000000ADH   SFRSYM    DATA     BYTE      P1DIR
      000000EBH   SFRSYM    DATA     BYTE      P0MOD
      000000ACH   SFRSYM    DATA     BYTE      P0DIR
      00000094H   SFRSYM    DATA     BYTE      P1BUF
      00000080H   SFRSYM    DATA     BYTE      P0BUF
      000000E4H   SFRSYM    DATA     BYTE      TESTCON3
      000000E3H   SFRSYM    DATA     BYTE      TESTCON2
L251 LINKER/LOCATER V4.65.0.0                                                         04/14/2017  16:04:05  PAGE 46


      000000E5H   SFRSYM    DATA     BYTE      IWKSTA
      0000009AH   SFRSYM    DATA     BYTE      WDTREL
      000000E2H   SFRSYM    DATA     BYTE      TESTCON1
      000000E1H   SFRSYM    DATA     BYTE      TESTCON0
      00000099H   SFRSYM    DATA     BYTE      WDTCON
      000000C0H   SFRSYM    DATA     BYTE      AIF
      000000E8H   SFRSYM    DATA     BYTE      AIE
      000000BDH   SFRSYM    DATA     BYTE      FT_EN_REG
      0000009EH   SFRSYM    DATA     BYTE      RTCCON
      000000FEH   SFRSYM    DATA     BYTE      LED_EN
      000000B9H   SFRSYM    DATA     BYTE      CNTCON
      000000D7H   SFRSYM    DATA     BYTE      MEMBIST_FAIL2
      000000D6H   SFRSYM    DATA     BYTE      MEMBIST_FAIL1
      000000D3H   SFRSYM    DATA     BYTE      MEMBIST_EN2
      000000D2H   SFRSYM    DATA     BYTE      MEMBIST_EN1
      0000009BH   SFRSYM    DATA     BYTE      TDIV
      000000EFH   SFRSYM    DATA     BYTE      XDP_STA
      00000088H   SFRSYM    DATA     BYTE      TCON
      00000089H   SFRSYM    DATA     BYTE      TMOD
      000000A7H   SFRSYM    DATA     BYTE      SPI0CON5
      000000B2H   SFRSYM    DATA     BYTE      SPI1CON4
      000000B1H   SFRSYM    DATA     BYTE      SPI1CON3
      000000A5H   SFRSYM    DATA     BYTE      SPI0CON3
      000000B4H   SFRSYM    DATA     BYTE      SPI1CON2
      000000EAH   SFRSYM    DATA     BYTE      ANACON
      00000087H   SFRSYM    DATA     BYTE      PCON
      000000A3H   SFRSYM    DATA     BYTE      SPI0CON2
      000000DAH   SFRSYM    DATA     BYTE      DSV_CON
      000000F8H   SFRSYM    DATA     BYTE      AIPL
      00000095H   SFRSYM    DATA     BYTE      I2CSEL
      000000F5H   SFRSYM    DATA     BYTE      SSCG_CON0
      000000F7H   SFRSYM    DATA     BYTE      AIPH
      000000FDH   SFRSYM    DATA     BYTE      I2C_STATE
      00000090H   SFRSYM    DATA     BYTE      I2CCON
      000000A9H   SFRSYM    DATA     BYTE      UARTCON
      000000B8H   SFRSYM    DATA     BYTE      IPL0
      000000B7H   SFRSYM    DATA     BYTE      IPH0
      000000DFH   SFRSYM    DATA     BYTE      IEN1
      000000A8H   SFRSYM    DATA     BYTE      IEN0
      00000093H   SFRSYM    DATA     BYTE      I2CSTOP
      000000B3H   SFRSYM    DATA     BYTE      SPI1CON
      000000A2H   SFRSYM    DATA     BYTE      SPI0CON

      ---         MODULE    ---      ---       Drv_mcu
      00FEE8B6H   PUBLIC    ECODE    ---       DrvSysPowerMode?
      00FEE800H   PUBLIC    ECODE    ---       DrvSysClkInit?
      00FEE897H   PUBLIC    ECODE    ---       DelayMs?
      00FEE868H   PUBLIC    ECODE    ---       DelayUs?
      00FEE80BH   PUBLIC    ECODE    ---       DrvIOInit?
      00000021H   PUBLIC    EDATA    ---       g_ucbuf
      000000B6H   SFRSYM    DATA     BYTE      RTCCON1
      000000BFH   SFRSYM    DATA     BYTE      CGUCON8
      000000CFH   SFRSYM    DATA     BYTE      CGUCON7
      000000CEH   SFRSYM    DATA     BYTE      CGUCON6
      000000CDH   SFRSYM    DATA     BYTE      CGUCON5
      000000CCH   SFRSYM    DATA     BYTE      CGUCON4
      000000CBH   SFRSYM    DATA     BYTE      CGUCON3
      000000CAH   SFRSYM    DATA     BYTE      CGUCON2
      000000C8H   SFRSYM    DATA     BYTE      CGUCON1
      000000C9H   SFRSYM    DATA     BYTE      CGUCON0
      000000D9H   SFRSYM    DATA     BYTE      MEMBIST_ERRMAP2
      000000D8H   SFRSYM    DATA     BYTE      MEMBIST_ERRMAP1
      000000B0H   SFRSYM    DATA     BYTE      ANACON9
      000000A0H   SFRSYM    DATA     BYTE      ANACON8
      000000D5H   SFRSYM    DATA     BYTE      MEMBIST_FINISH2
L251 LINKER/LOCATER V4.65.0.0                                                         04/14/2017  16:04:05  PAGE 47


      000000C7H   SFRSYM    DATA     BYTE      ANACON7
      000000D4H   SFRSYM    DATA     BYTE      MEMBIST_FINISH1
      000000E9H   SFRSYM    DATA     BYTE      SFTRST
      000000EEH   SFRSYM    DATA     BYTE      P1SEL
      000000C3H   SFRSYM    DATA     BYTE      ANACON3
      000000ECH   SFRSYM    DATA     BYTE      P0SEL
      000000C2H   SFRSYM    DATA     BYTE      ANACON2
      000000C1H   SFRSYM    DATA     BYTE      ANACON1
      000000EDH   SFRSYM    DATA     BYTE      P1MOD
      000000CEH   SFRSYM    DATA     BIT       CLK_WP
      00000098H   SFRSYM    DATA     BYTE      SYSCON
      000000ADH   SFRSYM    DATA     BYTE      P1DIR
      000000EBH   SFRSYM    DATA     BYTE      P0MOD
      000000ACH   SFRSYM    DATA     BYTE      P0DIR
      00000094H   SFRSYM    DATA     BYTE      P1BUF
      00000080H   SFRSYM    DATA     BYTE      P0BUF
      000000E4H   SFRSYM    DATA     BYTE      TESTCON3
      000000E3H   SFRSYM    DATA     BYTE      TESTCON2
      000000E5H   SFRSYM    DATA     BYTE      IWKSTA
      0000009AH   SFRSYM    DATA     BYTE      WDTREL
      000000E2H   SFRSYM    DATA     BYTE      TESTCON1
      000000E1H   SFRSYM    DATA     BYTE      TESTCON0
      00000087H.1 SFRSYM    DATA     BIT       CORE_STOP
      00000099H   SFRSYM    DATA     BYTE      WDTCON
      000000C0H   SFRSYM    DATA     BYTE      AIF
      000000E8H   SFRSYM    DATA     BYTE      AIE
      000000BDH   SFRSYM    DATA     BYTE      FT_EN_REG
      0000009EH   SFRSYM    DATA     BYTE      RTCCON
      000000FEH   SFRSYM    DATA     BYTE      LED_EN
      000000B9H   SFRSYM    DATA     BYTE      CNTCON
      000000D7H   SFRSYM    DATA     BYTE      MEMBIST_FAIL2
      000000D6H   SFRSYM    DATA     BYTE      MEMBIST_FAIL1
      000000E7H   SFRSYM    DATA     BYTE      RST_STA
      000000E6H   SFRSYM    DATA     BYTE      POR_STA
      000000D3H   SFRSYM    DATA     BYTE      MEMBIST_EN2
      000000D2H   SFRSYM    DATA     BYTE      MEMBIST_EN1
      0000009BH   SFRSYM    DATA     BYTE      TDIV
      000000EFH   SFRSYM    DATA     BYTE      XDP_STA
      00000088H   SFRSYM    DATA     BYTE      TCON
      00000089H   SFRSYM    DATA     BYTE      TMOD
      000000A7H   SFRSYM    DATA     BYTE      SPI0CON5
      000000B2H   SFRSYM    DATA     BYTE      SPI1CON4
      000000B1H   SFRSYM    DATA     BYTE      SPI1CON3
      000000A5H   SFRSYM    DATA     BYTE      SPI0CON3
      000000B4H   SFRSYM    DATA     BYTE      SPI1CON2
      000000EAH   SFRSYM    DATA     BYTE      ANACON
      00000087H   SFRSYM    DATA     BYTE      PCON
      000000A3H   SFRSYM    DATA     BYTE      SPI0CON2
      000000CAH.7 SFRSYM    DATA     BIT       CLKEN_500K
      000000DAH   SFRSYM    DATA     BYTE      DSV_CON
      00000087H   SFRSYM    DATA     BIT       CORE_IDLE
      000000F8H   SFRSYM    DATA     BYTE      AIPL
      00000095H   SFRSYM    DATA     BYTE      I2CSEL
      000000F5H   SFRSYM    DATA     BYTE      SSCG_CON0
      000000F7H   SFRSYM    DATA     BYTE      AIPH
      000000C8H.7 SFRSYM    DATA     BIT       SYSCKEN
      000000FDH   SFRSYM    DATA     BYTE      I2C_STATE
      00000090H   SFRSYM    DATA     BYTE      I2CCON
      000000A9H   SFRSYM    DATA     BYTE      UARTCON
      000000C9H.6 SFRSYM    DATA     BIT       STANDBY
      000000B8H   SFRSYM    DATA     BYTE      IPL0
      000000B7H   SFRSYM    DATA     BYTE      IPH0
      000000DFH   SFRSYM    DATA     BYTE      IEN1
      000000A8H   SFRSYM    DATA     BYTE      IEN0
      00000093H   SFRSYM    DATA     BYTE      I2CSTOP
L251 LINKER/LOCATER V4.65.0.0                                                         04/14/2017  16:04:05  PAGE 48


      000000A8H.7 SFRSYM    DATA     BIT       EA
      000000B3H   SFRSYM    DATA     BYTE      SPI1CON
      000000A2H   SFRSYM    DATA     BYTE      SPI0CON

      00FEE800H   BLOCK     ECODE    ---       LVL=0
      R11         REGSYM    ---      BYTE      ucDiv
      00FEE800H   LINE      ECODE    ---       #52
      00FEE800H   LINE      ECODE    ---       #54
      00FEE805H   LINE      ECODE    ---       #56
      00FEE807H   LINE      ECODE    ---       #57
      00FEE807H   LINE      ECODE    ---       #59
      00FEE80AH   LINE      ECODE    ---       #60
      ---         BLOCKEND  ---      ---       LVL=0

      00FEE80BH   BLOCK     ECODE    ---       LVL=0
      00FEE80BH   LINE      ECODE    ---       #69
      00FEE80BH   LINE      ECODE    ---       #71
      00FEE811H   LINE      ECODE    ---       #72
      00FEE817H   LINE      ECODE    ---       #73
      00FEE81DH   LINE      ECODE    ---       #74
      00FEE823H   LINE      ECODE    ---       #75
      00FEE829H   LINE      ECODE    ---       #76
      00FEE82FH   LINE      ECODE    ---       #77
      00FEE835H   LINE      ECODE    ---       #78
      00FEE83BH   LINE      ECODE    ---       #79
      00FEE841H   LINE      ECODE    ---       #80
      00FEE847H   LINE      ECODE    ---       #81
      00FEE84DH   LINE      ECODE    ---       #83
      00FEE850H   LINE      ECODE    ---       #84
      00FEE853H   LINE      ECODE    ---       #86
      00FEE855H   LINE      ECODE    ---       #87
      00FEE858H   LINE      ECODE    ---       #88
      00FEE85BH   LINE      ECODE    ---       #90
      00FEE85EH   LINE      ECODE    ---       #92
      00FEE861H   LINE      ECODE    ---       #94
      00FEE864H   LINE      ECODE    ---       #95
      00FEE867H   LINE      ECODE    ---       #98
      ---         BLOCKEND  ---      ---       LVL=0

      00FEE868H   BLOCK     ECODE    ---       LVL=0
      R10         REGSYM    ---      BYTE      ucDlyCnt
      00FEE868H   LINE      ECODE    ---       #107
      00FEE86AH   LINE      ECODE    ---       #109
      00FEE86CH   LINE      ECODE    ---       #111
      00FEE86DH   LINE      ECODE    ---       #112
      00FEE86EH   LINE      ECODE    ---       #113
      00FEE86FH   LINE      ECODE    ---       #114
      00FEE870H   LINE      ECODE    ---       #116
      00FEE871H   LINE      ECODE    ---       #117
      00FEE872H   LINE      ECODE    ---       #118
      00FEE873H   LINE      ECODE    ---       #119
      00FEE874H   LINE      ECODE    ---       #121
      00FEE875H   LINE      ECODE    ---       #122
      00FEE876H   LINE      ECODE    ---       #123
      00FEE877H   LINE      ECODE    ---       #124
      00FEE878H   LINE      ECODE    ---       #126
      00FEE879H   LINE      ECODE    ---       #127
      00FEE87AH   LINE      ECODE    ---       #129
      00FEE87BH   LINE      ECODE    ---       #130
      00FEE87CH   LINE      ECODE    ---       #131
      00FEE87DH   LINE      ECODE    ---       #132
      00FEE87EH   LINE      ECODE    ---       #134
      00FEE87FH   LINE      ECODE    ---       #135
      00FEE880H   LINE      ECODE    ---       #136
      00FEE881H   LINE      ECODE    ---       #137
L251 LINKER/LOCATER V4.65.0.0                                                         04/14/2017  16:04:05  PAGE 49


      00FEE882H   LINE      ECODE    ---       #139
      00FEE883H   LINE      ECODE    ---       #140
      00FEE884H   LINE      ECODE    ---       #141
      00FEE885H   LINE      ECODE    ---       #142
      00FEE886H   LINE      ECODE    ---       #144
      00FEE887H   LINE      ECODE    ---       #145
      00FEE888H   LINE      ECODE    ---       #146
      00FEE889H   LINE      ECODE    ---       #147
      00FEE88AH   LINE      ECODE    ---       #149
      00FEE88BH   LINE      ECODE    ---       #150
      00FEE88CH   LINE      ECODE    ---       #151
      00FEE88DH   LINE      ECODE    ---       #152
      00FEE88EH   LINE      ECODE    ---       #155
      00FEE896H   LINE      ECODE    ---       #156
      ---         BLOCKEND  ---      ---       LVL=0

      00FEE897H   BLOCK     ECODE    ---       LVL=0
      WR8         REGSYM    ---      WORD      ucDlyCnt
      00FEE897H   LINE      ECODE    ---       #165
      00FEE899H   LINE      ECODE    ---       #167
      00FEE89BH   LINE      ECODE    ---       #169
      00FEE8A1H   LINE      ECODE    ---       #170
      00FEE8A5H   LINE      ECODE    ---       #171
      00FEE8A9H   LINE      ECODE    ---       #172
      00FEE8ADH   LINE      ECODE    ---       #173
      00FEE8B5H   LINE      ECODE    ---       #174
      ---         BLOCKEND  ---      ---       LVL=0

      00FEE8B6H   BLOCK     ECODE    ---       LVL=0
      R11         REGSYM    ---      BYTE      pmode
      00FEE8B6H   LINE      ECODE    ---       #183
      00FEE8B6H   LINE      ECODE    ---       #186
      00FEE8B8H   LINE      ECODE    ---       #188
      00FEE8BBH   LINE      ECODE    ---       #189
      00FEE8BEH   LINE      ECODE    ---       #190
      00FEE8C0H   LINE      ECODE    ---       #191
      00FEE8C0H   LINE      ECODE    ---       #193
      00FEE8C3H   LINE      ECODE    ---       #195
      00FEE8C6H   LINE      ECODE    ---       #196
      00FEE8C9H   LINE      ECODE    ---       #197
      00FEE8CCH   LINE      ECODE    ---       #198
      00FEE8CEH   LINE      ECODE    ---       #199
      00FEE8CEH   LINE      ECODE    ---       #202
      00FEE8D1H   LINE      ECODE    ---       #204
      00FEE8D4H   LINE      ECODE    ---       #205
      00FEE8D7H   LINE      ECODE    ---       #206
      00FEE8DAH   LINE      ECODE    ---       #207
      00FEE8DCH   LINE      ECODE    ---       #208
      00FEE8DCH   LINE      ECODE    ---       #210
      00FEE8DDH   LINE      ECODE    ---       #211
      00FEE8DEH   LINE      ECODE    ---       #212
      00FEE8DFH   LINE      ECODE    ---       #213
      00FEE8E0H   LINE      ECODE    ---       #214
      ---         BLOCKEND  ---      ---       LVL=0

      ---         MODULE    ---      ---       Drv_XSI
      00FEEA3CH   PUBLIC    ECODE    ---       Drv_XsiRead?
      00FEEA93H   PUBLIC    ECODE    ---       Drv_XsiWrite?
      00FEE9A0H   PUBLIC    ECODE    ---       Drv_XsiInit?
      00FEE9BAH   PUBLIC    ECODE    ---       Drv_XsiReadReg?
      00FEE9FBH   PUBLIC    ECODE    ---       Drv_XsiWriteReg?
      0000003FH   PUBLIC    EDATA    ---       pXSI0Regs
      00000043H   PUBLIC    EDATA    ---       pXSI1Regs
      00000041H   PUBLIC    EDATA    BYTE      ?Drv_XsiRead??BYTE
      00000048H   PUBLIC    EDATA    BYTE      ?Drv_XsiWrite??BYTE
L251 LINKER/LOCATER V4.65.0.0                                                         04/14/2017  16:04:05  PAGE 50


      000000B6H   SFRSYM    DATA     BYTE      RTCCON1
      000000BFH   SFRSYM    DATA     BYTE      CGUCON8
      000000CFH   SFRSYM    DATA     BYTE      CGUCON7
      000000CEH   SFRSYM    DATA     BYTE      CGUCON6
      000000CDH   SFRSYM    DATA     BYTE      CGUCON5
      000000CCH   SFRSYM    DATA     BYTE      CGUCON4
      000000CBH   SFRSYM    DATA     BYTE      CGUCON3
      000000CAH   SFRSYM    DATA     BYTE      CGUCON2
      000000C8H   SFRSYM    DATA     BYTE      CGUCON1
      000000C9H   SFRSYM    DATA     BYTE      CGUCON0
      000000D9H   SFRSYM    DATA     BYTE      MEMBIST_ERRMAP2
      000000D8H   SFRSYM    DATA     BYTE      MEMBIST_ERRMAP1
      000000CBH.5 SFRSYM    DATA     BIT       AFECKEN
      000000B0H   SFRSYM    DATA     BYTE      ANACON9
      000000A0H   SFRSYM    DATA     BYTE      ANACON8
      000000D5H   SFRSYM    DATA     BYTE      MEMBIST_FINISH2
      000000C7H   SFRSYM    DATA     BYTE      ANACON7
      000000D4H   SFRSYM    DATA     BYTE      MEMBIST_FINISH1
      000000E9H   SFRSYM    DATA     BYTE      SFTRST
      000000EEH   SFRSYM    DATA     BYTE      P1SEL
      000000C3H   SFRSYM    DATA     BYTE      ANACON3
      000000ECH   SFRSYM    DATA     BYTE      P0SEL
      000000C2H   SFRSYM    DATA     BYTE      ANACON2
      000000C1H   SFRSYM    DATA     BYTE      ANACON1
      000000EDH   SFRSYM    DATA     BYTE      P1MOD
      00000098H   SFRSYM    DATA     BYTE      SYSCON
      000000ADH   SFRSYM    DATA     BYTE      P1DIR
      000000EBH   SFRSYM    DATA     BYTE      P0MOD
      000000ACH   SFRSYM    DATA     BYTE      P0DIR
      00000094H   SFRSYM    DATA     BYTE      P1BUF
      00000080H   SFRSYM    DATA     BYTE      P0BUF
      000000E4H   SFRSYM    DATA     BYTE      TESTCON3
      000000E3H   SFRSYM    DATA     BYTE      TESTCON2
      000000E5H   SFRSYM    DATA     BYTE      IWKSTA
      0000009AH   SFRSYM    DATA     BYTE      WDTREL
      000000E2H   SFRSYM    DATA     BYTE      TESTCON1
      000000E1H   SFRSYM    DATA     BYTE      TESTCON0
      00000099H   SFRSYM    DATA     BYTE      WDTCON
      000000C0H   SFRSYM    DATA     BYTE      AIF
      000000E8H   SFRSYM    DATA     BYTE      AIE
      000000BDH   SFRSYM    DATA     BYTE      FT_EN_REG
      0000009EH   SFRSYM    DATA     BYTE      RTCCON
      000000FEH   SFRSYM    DATA     BYTE      LED_EN
      000000B9H   SFRSYM    DATA     BYTE      CNTCON
      000000D7H   SFRSYM    DATA     BYTE      MEMBIST_FAIL2
      000000D6H   SFRSYM    DATA     BYTE      MEMBIST_FAIL1
      000000D3H   SFRSYM    DATA     BYTE      MEMBIST_EN2
      000000EAH.3 SFRSYM    DATA     BIT       XSI_SEL
      000000D2H   SFRSYM    DATA     BYTE      MEMBIST_EN1
      0000009BH   SFRSYM    DATA     BYTE      TDIV
      000000EFH   SFRSYM    DATA     BYTE      XDP_STA
      00000088H   SFRSYM    DATA     BYTE      TCON
      00000089H   SFRSYM    DATA     BYTE      TMOD
      000000A7H   SFRSYM    DATA     BYTE      SPI0CON5
      000000B2H   SFRSYM    DATA     BYTE      SPI1CON4
      000000B1H   SFRSYM    DATA     BYTE      SPI1CON3
      000000A5H   SFRSYM    DATA     BYTE      SPI0CON3
      000000B4H   SFRSYM    DATA     BYTE      SPI1CON2
      000000EAH   SFRSYM    DATA     BYTE      ANACON
      00000087H   SFRSYM    DATA     BYTE      PCON
      000000A3H   SFRSYM    DATA     BYTE      SPI0CON2
      000000DAH   SFRSYM    DATA     BYTE      DSV_CON
      000000F8H   SFRSYM    DATA     BYTE      AIPL
      00000095H   SFRSYM    DATA     BYTE      I2CSEL
      000000F5H   SFRSYM    DATA     BYTE      SSCG_CON0
L251 LINKER/LOCATER V4.65.0.0                                                         04/14/2017  16:04:05  PAGE 51


      000000F7H   SFRSYM    DATA     BYTE      AIPH
      000000FDH   SFRSYM    DATA     BYTE      I2C_STATE
      00000090H   SFRSYM    DATA     BYTE      I2CCON
      000000A9H   SFRSYM    DATA     BYTE      UARTCON
      000000C8H.5 SFRSYM    DATA     BIT       XSICKEN
      000000B8H   SFRSYM    DATA     BYTE      IPL0
      000000B7H   SFRSYM    DATA     BYTE      IPH0
      000000DFH   SFRSYM    DATA     BYTE      IEN1
      000000A8H   SFRSYM    DATA     BYTE      IEN0
      00000093H   SFRSYM    DATA     BYTE      I2CSTOP
      000000B3H   SFRSYM    DATA     BYTE      SPI1CON
      000000A2H   SFRSYM    DATA     BYTE      SPI0CON

      00FEE9A0H   BLOCK     ECODE    ---       LVL=0
      00FEE9A0H   LINE      ECODE    ---       #53
      00FEE9A0H   LINE      ECODE    ---       #55
      00FEE9A3H   LINE      ECODE    ---       #56
      00FEE9A5H   LINE      ECODE    ---       #61
      00FEE9B1H   LINE      ECODE    ---       #62
      00FEE9B9H   LINE      ECODE    ---       #72
      ---         BLOCKEND  ---      ---       LVL=0

      00FEE9BAH   BLOCK     ECODE    ---       LVL=0
      REG=0       REGSYM    ---      ---       pXSIRegs
      WR4         REGSYM    ---      WORD      usAddr
      R11         REGSYM    ---      BYTE      flag
      00FEE9BCH   BLOCK     ECODE    NEAR LAB  LVL=1
      WR6         REGSYM    ---      WORD      tmp
      ---         BLOCKEND  ---      ---       LVL=1
      00FEE9BAH   LINE      ECODE    ---       #81
      00FEE9BCH   LINE      ECODE    ---       #82
      00FEE9BCH   LINE      ECODE    ---       #84
      00FEE9BFH   LINE      ECODE    ---       #89
      00FEE9CEH   LINE      ECODE    ---       #90
      00FEE9D6H   LINE      ECODE    ---       #92
      00FEE9DBH   LINE      ECODE    ---       #93
      00FEE9E3H   LINE      ECODE    ---       #95
      00FEE9E7H   LINE      ECODE    ---       #96
      00FEE9EFH   LINE      ECODE    ---       #97
      00FEE9F7H   LINE      ECODE    ---       #98
      00FEE9FAH   LINE      ECODE    ---       #100
      00FEE9FAH   LINE      ECODE    ---       #101
      ---         BLOCKEND  ---      ---       LVL=0

      00FEE9FBH   BLOCK     ECODE    ---       LVL=0
      REG=0       REGSYM    ---      ---       pXSIRegs
      WR10        REGSYM    ---      WORD      usAddr
      WR4         REGSYM    ---      WORD      usData
      R9          REGSYM    ---      BYTE      flag
      00FEE9FBH   LINE      ECODE    ---       #110
      00FEE9FFH   LINE      ECODE    ---       #112
      00FEEA02H   LINE      ECODE    ---       #116
      00FEEA15H   LINE      ECODE    ---       #117
      00FEEA1DH   LINE      ECODE    ---       #119
      00FEEA20H   LINE      ECODE    ---       #120
      00FEEA28H   LINE      ECODE    ---       #121
      00FEEA30H   LINE      ECODE    ---       #122
      00FEEA38H   LINE      ECODE    ---       #123
      00FEEA3BH   LINE      ECODE    ---       #124
      ---         BLOCKEND  ---      ---       LVL=0

      00FEEA3CH   BLOCK     ECODE    ---       LVL=0
      REG=0       REGSYM    ---      ---       pXSIRegs
      WR30        REGSYM    ---      WORD      usAddr
      REG=1       REGSYM    ---      ---       pBuf
L251 LINKER/LOCATER V4.65.0.0                                                         04/14/2017  16:04:05  PAGE 52


      WR8         REGSYM    ---      WORD      len
      R11         REGSYM    ---      BYTE      flag
      00FEEA44H   BLOCK     ECODE    NEAR LAB  LVL=1
      R11         REGSYM    ---      BYTE      i
      ---         BLOCKEND  ---      ---       LVL=1
      00FEEA3CH   LINE      ECODE    ---       #133
      00FEEA44H   LINE      ECODE    ---       #134
      00FEEA44H   LINE      ECODE    ---       #137
      00FEEA47H   LINE      ECODE    ---       #141
      00FEEA57H   LINE      ECODE    ---       #142
      00FEEA5FH   LINE      ECODE    ---       #144
      00FEEA62H   LINE      ECODE    ---       #146
      00FEEA67H   LINE      ECODE    ---       #147
      00FEEA6FH   LINE      ECODE    ---       #149
      00FEEA78H   LINE      ECODE    ---       #150
      00FEEA7FH   LINE      ECODE    ---       #152
      00FEEA87H   LINE      ECODE    ---       #153
      00FEEA8FH   LINE      ECODE    ---       #154
      00FEEA92H   LINE      ECODE    ---       #155
      ---         BLOCKEND  ---      ---       LVL=0

      00FEEA93H   BLOCK     ECODE    ---       LVL=0
      REG=0       REGSYM    ---      ---       pXSIRegs
      WR30        REGSYM    ---      WORD      usAddr
      REG=1       REGSYM    ---      ---       pBuf
      R10         REGSYM    ---      BYTE      len
      R9          REGSYM    ---      BYTE      flag
      00FEEA9DH   BLOCK     ECODE    NEAR LAB  LVL=1
      R11         REGSYM    ---      BYTE      i
      ---         BLOCKEND  ---      ---       LVL=1
      00FEEA93H   LINE      ECODE    ---       #164
      00FEEA9DH   LINE      ECODE    ---       #165
      00FEEA9DH   LINE      ECODE    ---       #167
      00FEEAA0H   LINE      ECODE    ---       #172
      00FEEAB7H   LINE      ECODE    ---       #173
      00FEEABFH   LINE      ECODE    ---       #175
      00FEEAC2H   LINE      ECODE    ---       #177
      00FEEACAH   LINE      ECODE    ---       #178
      00FEEAD2H   LINE      ECODE    ---       #179
      00FEEAD7H   LINE      ECODE    ---       #180
      00FEEADFH   LINE      ECODE    ---       #181
      00FEEAE7H   LINE      ECODE    ---       #182
      00FEEAEAH   LINE      ECODE    ---       #183
      ---         BLOCKEND  ---      ---       LVL=0

      ---         MODULE    ---      ---       Drv_XBUS
      00FEECECH   PUBLIC    ECODE    ---       DrvXbus_WriteLcd8?
      00FEECB5H   PUBLIC    ECODE    ---       DrvXbus_ReadLcd16?
      00FEECB4H   PUBLIC    ECODE    ---       Drv_XbusInit?
      00000054H   PUBLIC    EDATA    ---       pLcdWrapRegs
      000000B6H   SFRSYM    DATA     BYTE      RTCCON1
      000000BFH   SFRSYM    DATA     BYTE      CGUCON8
      000000CFH   SFRSYM    DATA     BYTE      CGUCON7
      000000CEH   SFRSYM    DATA     BYTE      CGUCON6
      000000CDH   SFRSYM    DATA     BYTE      CGUCON5
      000000CCH   SFRSYM    DATA     BYTE      CGUCON4
      000000CBH   SFRSYM    DATA     BYTE      CGUCON3
      000000CAH   SFRSYM    DATA     BYTE      CGUCON2
      000000C8H   SFRSYM    DATA     BYTE      CGUCON1
      000000C9H   SFRSYM    DATA     BYTE      CGUCON0
      000000D9H   SFRSYM    DATA     BYTE      MEMBIST_ERRMAP2
      000000D8H   SFRSYM    DATA     BYTE      MEMBIST_ERRMAP1
      000000B0H   SFRSYM    DATA     BYTE      ANACON9
      000000A0H   SFRSYM    DATA     BYTE      ANACON8
      000000D5H   SFRSYM    DATA     BYTE      MEMBIST_FINISH2
L251 LINKER/LOCATER V4.65.0.0                                                         04/14/2017  16:04:05  PAGE 53


      000000C7H   SFRSYM    DATA     BYTE      ANACON7
      000000D4H   SFRSYM    DATA     BYTE      MEMBIST_FINISH1
      000000E9H   SFRSYM    DATA     BYTE      SFTRST
      000000EEH   SFRSYM    DATA     BYTE      P1SEL
      000000C3H   SFRSYM    DATA     BYTE      ANACON3
      000000ECH   SFRSYM    DATA     BYTE      P0SEL
      000000C2H   SFRSYM    DATA     BYTE      ANACON2
      000000C1H   SFRSYM    DATA     BYTE      ANACON1
      000000EDH   SFRSYM    DATA     BYTE      P1MOD
      00000098H   SFRSYM    DATA     BYTE      SYSCON
      000000ADH   SFRSYM    DATA     BYTE      P1DIR
      000000EBH   SFRSYM    DATA     BYTE      P0MOD
      000000ACH   SFRSYM    DATA     BYTE      P0DIR
      00000094H   SFRSYM    DATA     BYTE      P1BUF
      00000080H   SFRSYM    DATA     BYTE      P0BUF
      000000E4H   SFRSYM    DATA     BYTE      TESTCON3
      000000E3H   SFRSYM    DATA     BYTE      TESTCON2
      000000E5H   SFRSYM    DATA     BYTE      IWKSTA
      0000009AH   SFRSYM    DATA     BYTE      WDTREL
      000000E2H   SFRSYM    DATA     BYTE      TESTCON1
      000000E1H   SFRSYM    DATA     BYTE      TESTCON0
      00000099H   SFRSYM    DATA     BYTE      WDTCON
      000000C0H   SFRSYM    DATA     BYTE      AIF
      000000E8H   SFRSYM    DATA     BYTE      AIE
      000000BDH   SFRSYM    DATA     BYTE      FT_EN_REG
      0000009EH   SFRSYM    DATA     BYTE      RTCCON
      000000FEH   SFRSYM    DATA     BYTE      LED_EN
      000000B9H   SFRSYM    DATA     BYTE      CNTCON
      000000D7H   SFRSYM    DATA     BYTE      MEMBIST_FAIL2
      000000D6H   SFRSYM    DATA     BYTE      MEMBIST_FAIL1
      000000D3H   SFRSYM    DATA     BYTE      MEMBIST_EN2
      000000D2H   SFRSYM    DATA     BYTE      MEMBIST_EN1
      0000009BH   SFRSYM    DATA     BYTE      TDIV
      000000EFH   SFRSYM    DATA     BYTE      XDP_STA
      00000088H   SFRSYM    DATA     BYTE      TCON
      00000089H   SFRSYM    DATA     BYTE      TMOD
      000000A7H   SFRSYM    DATA     BYTE      SPI0CON5
      000000B2H   SFRSYM    DATA     BYTE      SPI1CON4
      000000B1H   SFRSYM    DATA     BYTE      SPI1CON3
      000000A5H   SFRSYM    DATA     BYTE      SPI0CON3
      000000B4H   SFRSYM    DATA     BYTE      SPI1CON2
      000000EAH   SFRSYM    DATA     BYTE      ANACON
      00000087H   SFRSYM    DATA     BYTE      PCON
      000000A3H   SFRSYM    DATA     BYTE      SPI0CON2
      000000DAH   SFRSYM    DATA     BYTE      DSV_CON
      000000F8H   SFRSYM    DATA     BYTE      AIPL
      00000095H   SFRSYM    DATA     BYTE      I2CSEL
      000000F5H   SFRSYM    DATA     BYTE      SSCG_CON0
      000000F7H   SFRSYM    DATA     BYTE      AIPH
      000000FDH   SFRSYM    DATA     BYTE      I2C_STATE
      00000090H   SFRSYM    DATA     BYTE      I2CCON
      000000A9H   SFRSYM    DATA     BYTE      UARTCON
      000000B8H   SFRSYM    DATA     BYTE      IPL0
      000000B7H   SFRSYM    DATA     BYTE      IPH0
      000000DFH   SFRSYM    DATA     BYTE      IEN1
      000000A8H   SFRSYM    DATA     BYTE      IEN0
      00000093H   SFRSYM    DATA     BYTE      I2CSTOP
      000000B3H   SFRSYM    DATA     BYTE      SPI1CON
      000000A2H   SFRSYM    DATA     BYTE      SPI0CON

      00FEECB4H   BLOCK     ECODE    ---       LVL=0
      00FEECB4H   LINE      ECODE    ---       #59
      00FEECB4H   LINE      ECODE    ---       #62
      ---         BLOCKEND  ---      ---       LVL=0

L251 LINKER/LOCATER V4.65.0.0                                                         04/14/2017  16:04:05  PAGE 54


      00FEECB5H   BLOCK     ECODE    ---       LVL=0
      WR6         REGSYM    ---      WORD      usaddr
      0000005BH   SYMBOL    EDATA    BYTE      Dummy
      00FEECB5H   LINE      ECODE    ---       #73
      00FEECB5H   LINE      ECODE    ---       #74
      00FEECB5H   LINE      ECODE    ---       #76
      00FEECC3H   LINE      ECODE    ---       #77
      00FEECCEH   LINE      ECODE    ---       #78
      00FEECDCH   LINE      ECODE    ---       #79
      00FEECEBH   LINE      ECODE    ---       #80
      ---         BLOCKEND  ---      ---       LVL=0

      00FEECECH   BLOCK     ECODE    ---       LVL=0
      WR6         REGSYM    ---      WORD      usaddr
      R11         REGSYM    ---      BYTE      usdata
      00FEECECH   LINE      ECODE    ---       #91
      00FEECECH   LINE      ECODE    ---       #93
      00FEECFAH   LINE      ECODE    ---       #94
      00FEED01H   LINE      ECODE    ---       #96
      ---         BLOCKEND  ---      ---       LVL=0

      ---         MODULE    ---      ---       uart

      ---         MODULE    ---      ---       ?C?INITEDATA
      00FF0042H   PUBLIC    CODE     ---       ?C?INITEDATA

      ---         MODULE    ---      ---       ?C?INITEDATA_END
      00FF0092H   PUBLIC    HCONST   WORD      ?C?INITEDATA_END



*** WARNING L16: UNCALLED FUNCTION, IGNORED FOR OVERLAY PROCESS
    NAME:    Test_WriteRamReg?/Test_Reg

*** WARNING L16: UNCALLED FUNCTION, IGNORED FOR OVERLAY PROCESS
    NAME:    Test_AfeRegWrite?/Test_Reg

*** WARNING L16: UNCALLED FUNCTION, IGNORED FOR OVERLAY PROCESS
    NAME:    ExternInt0Init?/Test_RTC

*** WARNING L16: UNCALLED FUNCTION, IGNORED FOR OVERLAY PROCESS
    NAME:    DrvSysPowerMode?/Drv_mcu

*** WARNING L16: UNCALLED FUNCTION, IGNORED FOR OVERLAY PROCESS
    NAME:    Drv_XsiInit?/Drv_XSI

*** WARNING L16: UNCALLED FUNCTION, IGNORED FOR OVERLAY PROCESS
    NAME:    Drv_XsiRead?/Drv_XSI

*** WARNING L16: UNCALLED FUNCTION, IGNORED FOR OVERLAY PROCESS
    NAME:    Drv_XsiWrite?/Drv_XSI

*** WARNING L16: UNCALLED FUNCTION, IGNORED FOR OVERLAY PROCESS
    NAME:    Drv_XbusInit?/Drv_XBUS

*** WARNING L16: UNCALLED FUNCTION, IGNORED FOR OVERLAY PROCESS
    NAME:    DrvXbus_ReadLcd16?/Drv_XBUS

*** WARNING L16: UNCALLED FUNCTION, IGNORED FOR OVERLAY PROCESS
    NAME:    DrvXbus_WriteLcd8?/Drv_XBUS

Program Size: data=8.4 edata+hdata=315 xdata=0 const=37 code=1403
L251 RUN COMPLETE.  10 WARNING(S),  0 ERROR(S)
