L251 LINKER/LOCATER V4.65.0.0                                                           05/26/2017  20:22:53  PAGE 1


L251 LINKER/LOCATER V4.65.0.0, INVOKED BY:
D:\SOFTWARE\KEIL\C251\BIN\L251.EXE ..\output\obj\START251.obj, ..\output\obj\main.obj, ..\output\obj\FlowFactory.obj, ..
>> \output\obj\FlowUpgrade.obj, ..\output\obj\FlowWork.obj, ..\output\obj\CfgAutoTune.obj, ..\output\obj\AppSysCtrl.obj,
>>  ..\output\obj\AppHostComm.obj, ..\output\obj\AppVersion_Lib.obj, ..\output\obj\AppParameter.obj, ..\output\obj\DrvSy
>> sCtrl.obj, ..\output\obj\DrvHostComm.obj, ..\output\obj\DrvAfePara.obj, ..\output\obj\DrvAsmCtrl.obj, ..\output\obj\u
>> art.obj, ..\output\obj\TestRwSFR.obj, ..\output\obj\LibDrv.obj TO ..\output\obj\mcu REGFILE (..\output\obj\mcu.ORC) P
>> RINT (..\output\list\mcu.map) CASE CLASSES (EDATA (0X20-0X9FFF), HDATA (0X20-0X9FFF), ECODE (0XFEE800-0XFEFFFF), ECOD
>> E (0XFF0000-0XFFFFFF))


CPU MODE:     251 SOURCE MODE
INTR FRAME:   4 BYTES SAVED ON INTERRUPT
MEMORY MODEL: SMALL


INPUT MODULES INCLUDED:
  ..\output\obj\START251.obj (?C_START?)
         COMMENT TYPE 0: A251 V4.65.0.0
  ..\output\obj\main.obj (main)
         COMMENT TYPE 0: C251 V5.54.0.0
  ..\output\obj\FlowFactory.obj (FlowFactory)
         COMMENT TYPE 0: C251 V5.54.0.0
  ..\output\obj\FlowUpgrade.obj (FlowUpgrade)
         COMMENT TYPE 0: C251 V5.54.0.0
  ..\output\obj\FlowWork.obj (FlowWork)
         COMMENT TYPE 0: C251 V5.54.0.0
  ..\output\obj\CfgAutoTune.obj (CfgAutoTune)
         COMMENT TYPE 0: C251 V5.54.0.0
  ..\output\obj\AppSysCtrl.obj (AppSysCtrl)
         COMMENT TYPE 0: C251 V5.54.0.0
  ..\output\obj\AppHostComm.obj (AppHostComm)
         COMMENT TYPE 0: C251 V5.54.0.0
  ..\output\obj\AppVersion_Lib.obj (AppVersion_Lib)
         COMMENT TYPE 0: C251 V5.54.0.0
  ..\output\obj\AppParameter.obj (AppParameter)
         COMMENT TYPE 0: C251 V5.54.0.0
  ..\output\obj\DrvSysCtrl.obj (DrvSysCtrl)
         COMMENT TYPE 0: C251 V5.54.0.0
  ..\output\obj\DrvHostComm.obj (DrvHostComm)
         COMMENT TYPE 0: C251 V5.54.0.0
  ..\output\obj\DrvAfePara.obj (DrvAfePara)
         COMMENT TYPE 0: C251 V5.54.0.0
  ..\output\obj\DrvAsmCtrl.obj (DrvAsmCtrl)
         COMMENT TYPE 0: C251 V5.54.0.0
  ..\output\obj\uart.obj (uart)
         COMMENT TYPE 0: C251 V5.54.0.0
  ..\output\obj\TestRwSFR.obj (TestRwSFR)
         COMMENT TYPE 0: C251 V5.54.0.0
  ..\output\obj\LibDrv.obj (LibDrv)
         COMMENT TYPE 0: C251 V5.54.0.0
  D:\SOFTWARE\KEIL\C251\LIB\C2SS.LIB (?C?INITEDATA)
         COMMENT TYPE 0: A251 V4.60
  D:\SOFTWARE\KEIL\C251\LIB\C2SS.LIB (PRINTF?)
         COMMENT TYPE 0: A251 V4.60
  D:\SOFTWARE\KEIL\C251\LIB\C2SS.LIB (ISALPHA?)
         COMMENT TYPE 0: C251 V5.50h
  D:\SOFTWARE\KEIL\C251\LIB\C2SS.LIB (ISUPPER?)
         COMMENT TYPE 0: C251 V5.50h
  D:\SOFTWARE\KEIL\C251\LIB\C2SS.LIB (ATOI?)
         COMMENT TYPE 0: C251 V5.50h
  D:\SOFTWARE\KEIL\C251\LIB\C2SS.LIB (STRLEN?)
         COMMENT TYPE 0: C251 V5.50h
  D:\SOFTWARE\KEIL\C251\LIB\C2SS.LIB (MEMSET?)
         COMMENT TYPE 0: C251 V5.50h
  D:\SOFTWARE\KEIL\C251\LIB\C2SS.LIB (?C?INITEDATA_END)
         COMMENT TYPE 0: A251 V4.60
L251 LINKER/LOCATER V4.65.0.0                                                         05/26/2017  20:22:53  PAGE 2


  D:\SOFTWARE\KEIL\C251\LIB\C2SS.LIB (?C?PRNFMT?)
         COMMENT TYPE 0: A251 V4.60
  D:\SOFTWARE\KEIL\C251\LIB\C2SS.LIB (ISDIGIT?)
         COMMENT TYPE 0: C251 V5.50h
  D:\SOFTWARE\KEIL\C251\LIB\C2SS.LIB (ISSPACE?)
         COMMENT TYPE 0: C251 V5.50h


ACTIVE MEMORY CLASSES OF MODULE:  ..\output\obj\mcu (?C_START?)

BASE        START       END         USED      MEMORY CLASS
==========================================================
000000H     000020H     009FFFH     004182H   EDATA
000000H     000020H     009FFFH               HDATA
000000H     FEE800H     FEFFFFH     008997H   ECODE
            FF0000H     FFFFFFH                 
FF0000H     FF0000H     FFFFFFH     000066H   CODE
000000H     FF0000H     FFFFFFH     001860H   HCONST
000020H.0   000020H.0   00002FH.7   000000H.4 BIT
000000H     000000H     00007FH     000079H   DATA


MEMORY MAP OF MODULE:  ..\output\obj\mcu (?C_START?)


START     STOP      LENGTH    ALIGN  RELOC    MEMORY CLASS   SEGMENT NAME
=========================================================================
000000H   000007H   000008H   ---    AT..     DATA           "REG BANK 0"
000008H   000013H   00000CH   BYTE   UNIT     DATA           ?DT?UART
000014H   00001AH   000007H   BYTE   UNIT     DATA           ?DT?DRV_XSIREAD??LIBDRV
00001BH   00001EH   000004H   BYTE   UNIT     DATA           ?DT?DRVAFEPARA
00001FH   00001FH   000001H   BYTE   UNIT     DATA           ?DT?DRVXBUS_READLCDREG??LIBDRV
000020H.0 000020H.0 000000H.1 BIT    UNIT     BIT            ?BI?FLOWFACTORY
000020H.1 000020H.1 000000H.1 BIT    UNIT     BIT            ?BI?TEST_AFEREGWRITE??FLOWFACTORY
000020H.2 000020H.2 000000H.1 BIT    UNIT     BIT            ?BI?DRVSYSCTRL
000020H.3 000020H.3 000000H.1 BIT    UNIT     BIT            ?BI?LIBDRV
000020H.4 000020H   000000H.4 ---    ---      **GAP**
000021H   000077H   000057H   BYTE   UNIT     DATA           _DATA_GROUP_
000078H   000079H   000002H   BYTE   UNIT     DATA           ?DT?APPHOSTCOMM
00007AH   00180BH   001792H   BYTE   UNIT     EDATA          ?ED?FLOWFACTORY
00180CH   001D37H   00052CH   BYTE   UNIT     EDATA          _EDATA_GROUP_
001D38H   002257H   000520H   BYTE   UNIT     EDATA          ?ED?DRVGETRPTRAMRAWBASE??FLOWFACTORY
002258H   002777H   000520H   BYTE   UNIT     EDATA          ?ED?DRVINITRPTRAM??DRVAFEPARA
002778H   002C8FH   000518H   BYTE   UNIT     EDATA          ?ED?TEST_AFE_BASERAM??FLOWFACTORY
002C90H   00319FH   000510H   BYTE   UNIT     EDATA          ?ED?DRVGETRPTRAMORDER??DRVAFEPARA
0031A0H   0035FAH   00045BH   BYTE   UNIT     EDATA          ?ED?UART
0035FBH   00388AH   000290H   BYTE   UNIT     EDATA          ?ED?DRVAFEINITBASE??DRVAFEPARA
00388BH   003B12H   000288H   BYTE   UNIT     EDATA          ?ED?TEST_AFE_ACCRAM??FLOWFACTORY
003B13H   003C72H   000160H   BYTE   UNIT     EDATA          ?ED?TEST_AFE_TABRAM??FLOWFACTORY
003C73H   003DD2H   000160H   BYTE   UNIT     EDATA          ?ED?DRVGETTABRAM??DRVAFEPARA
003DD3H   003F1EH   00014CH   BYTE   UNIT     EDATA          ?ED?DRVGETTABRAMCB??DRVAFEPARA
003F1FH   003FCCH   0000AEH   BYTE   UNIT     EDATA          ?ED?TEST_AFEREG??FLOWFACTORY
003FCDH   00402BH   00005FH   BYTE   UNIT     EDATA          ?ED?APPHOSTCOMM
00402CH   004085H   00005AH   BYTE   UNIT     EDATA          ?ED?APPPARAMETER
004086H   0040D9H   000054H   BYTE   UNIT     EDATA          ?ED?DRVAFEPARA
0040DAH   0040EDH   000014H   BYTE   UNIT     EDATA          ?ED?LIBDRV
0040EEH   0040F3H   000006H   BYTE   UNIT     EDATA          ?ED?DRVASMCTRL
0040F4H   0040F7H   000004H   BYTE   UNIT     EDATA          ?ED?DRVSYSCTRL
0040F8H   0040F9H   000002H   BYTE   UNIT     EDATA          ?ED?DEBUGREADAFEREG??DRVAFEPARA
0040FAH   0040FBH   000002H   BYTE   UNIT     EDATA          ?ED?DRVGETARAMCB??DRVASMCTRL
0040FCH   0041FBH   000100H   BYTE   UNIT     EDATA          ?STACK
0041FCH   FEE7FFH   FEA604H   ---    ---      **GAP**
FEE800H   FEE882H   000083H   BYTE   INSEG    ECODE          ?PR?ATOI_
FEE883H   FEE8D0H   00004EH   BYTE   INSEG    ECODE          ?PR?MAIN
FEE8D1H   FEE8EAH   00001AH   BYTE   INSEG    ECODE          ?PR?DRVHOSTCOMM
L251 LINKER/LOCATER V4.65.0.0                                                         05/26/2017  20:22:53  PAGE 3


FEE8EBH   FEE8FCH   000012H   BYTE   INSEG    ECODE          ?PR?MEMSET_
FEE8FDH   FEE8FDH   000001H   BYTE   INSEG    ECODE          ?PR?FLOWWORK
FEE8FEH   FEE8FFH   000002H   ---    ---      **GAP**
FEE900H   FEE99FH   0000A0H   BYTE   AT..     ECODE          ?EC?AT_FEE900_?1?MAIN
FEE9A0H   FEF39DH   0009FEH   BYTE   INSEG    ECODE          ?PR?LIBDRV
FEF39EH   FEF737H   00039AH   BYTE   INSEG    ECODE          ?PR?UART
FEF738H   FEFA38H   000301H   BYTE   INSEG    ECODE          ?C?LIB_CODE?
FEFA39H   FEFC27H   0001EFH   BYTE   INSEG    ECODE          ?PR?DRVSYSCTRL
FEFC28H   FEFDABH   000184H   BYTE   INSEG    ECODE          ?PR?APPHOSTCOMM
FEFDACH   FEFDE3H   000038H   BYTE   INSEG    ECODE          ?PR?APPSYSCTRL
FEFDE4H   FEFDFBH   000018H   BYTE   INSEG    ECODE          ?PR?ISALPHA_
FEFDFCH   FEFE0CH   000011H   BYTE   INSEG    ECODE          ?PR?ISSPACE_
FEFE0DH   FEFE1CH   000010H   BYTE   INSEG    ECODE          ?PR?STRLEN_
FEFE1DH   FEFE2AH   00000EH   BYTE   INSEG    ECODE          ?PR?ISUPPER_
FEFE2BH   FEFE38H   00000EH   BYTE   INSEG    ECODE          ?PR?ISDIGIT_
FEFE39H   FEFFFFH   0001C7H   ---    ---      **GAP**
FF0000H   FF0002H   000003H   ---    OFFS..   CODE           ?CO?START251?4
FF0003H   FF0006H   000004H   ---    OFFS..   CODE           ?PR?IV?0
FF0007H   FF0009H   000003H   BYTE   UNIT     CODE           ?CO?APPHOSTCOMM
FF000AH   FF000DH   000004H   BYTE   INSEG    HCONST         ?HC?PRINTF
FF000EH   FF0012H   000005H   ---    ---      **GAP**
FF0013H   FF0016H   000004H   ---    OFFS..   CODE           ?PR?IV?2
FF0017H   FF0022H   00000CH   ---    ---      **GAP**
FF0023H   FF0026H   000004H   ---    OFFS..   CODE           ?PR?IV?4
FF0027H   FF002AH   000004H   ---    ---      **GAP**
FF002BH   FF002EH   000004H   ---    OFFS..   CODE           ?PR?IV?5
FF002FH   FF0032H   000004H   ---    ---      **GAP**
FF0033H   FF0036H   000004H   ---    OFFS..   CODE           ?PR?IV?6
FF0037H   FF0042H   00000CH   ---    ---      **GAP**
FF0043H   FF0046H   000004H   ---    OFFS..   CODE           ?PR?IV?8
FF0047H   FF004AH   000004H   ---    ---      **GAP**
FF004BH   FF004EH   000004H   ---    OFFS..   CODE           ?PR?IV?9
FF004FH   FF0061H   000013H   BYTE   UNIT     CODE           ?C_C51STARTUP
FF0062H   FF0065H   000004H   BYTE   UNIT     CODE           ?C_C51STARTUP?1
FF0066H   FF008EH   000029H   BYTE   UNIT     CODE           ?C_C51STARTUP?2
FF008FH   FF0092H   000004H   BYTE   UNIT     CODE           ?C_C51STARTUP?3
FF0093H   FF3656H   0035C4H   BYTE   INSEG    ECODE          ?PR?FLOWFACTORY
FF3657H   FF5AB1H   00245BH   BYTE   INSEG    ECODE          ?PR?DRVAFEPARA
FF5AB2H   FF73F2H   001941H   BYTE   INSEG    ECODE          ?PR?DRVASMCTRL
FF73F3H   FF7E75H   000A83H   BYTE   UNIT     HCONST         ?HC?FLOWFACTORY
FF7E76H   FF851DH   0006A8H   BYTE   UNIT     HCONST         ?HC?DRVASMCTRL
FF851EH   FF8A0BH   0004EEH   BYTE   UNIT     HCONST         ?HC?DRVAFEPARA
FF8A0CH   FF8B62H   000157H   BYTE   UNIT     HCONST         ?C_INITEDATA
FF8B63H   FF8BE3H   000081H   BYTE   UNIT     HCONST         ?HC?UART
FF8BE4H   FF8C0EH   00002BH   BYTE   UNIT     HCONST         ?HC?MAIN
FF8C0FH   FF8C30H   000022H   BYTE   UNIT     HCONST         ?HC?DRVSYSCTRL
FF8C31H   FF8C4EH   00001EH   BYTE   UNIT     HCONST         ?HC?LIBDRV



OVERLAY MAP OF MODULE:   ..\output\obj\mcu (?C_START?)


FUNCTION/MODULE                          DATA_GROUP   EDATA_GROUP
--> CALLED FUNCTION/MODULE               START  STOP  START  STOP
=================================================================
?C_C51STARTUP                            ----- -----  ----- -----

*** NEW ROOT ***************************

?C_C51STARTUP?3                          ----- -----  ----- -----
  +--> main?/main

main?/main                               ----- -----  ----- -----
  +--> AppSysInit?/AppSysCtrl
L251 LINKER/LOCATER V4.65.0.0                                                         05/26/2017  20:22:53  PAGE 4


  +--> PRINTF?/PRINTF?
  +--> FlowWork?/FlowWork
  +--> FlowFactory?/FlowFactory

AppSysInit?/AppSysCtrl                   ----- -----  ----- -----
  +--> DrvPowerInit?/AppSysCtrl
  +--> DrvSysClkInit?/DrvSysCtrl
  +--> DrvSysPortInit?/DrvSysCtrl
  +--> AppHostCommInit?/AppHostComm
  +--> DrvUartInit?/uart
  +--> DrvCal_Init?/LibDrv
  +--> DrvLcdRunInit?/AppSysCtrl
  +--> DrvIntPriority?/DrvSysCtrl
  +--> Drv_XsiInit?/LibDrv
  +--> Drv_XbusInit?/LibDrv

DrvPowerInit?/AppSysCtrl                 ----- -----  ----- -----

DrvSysClkInit?/DrvSysCtrl                ----- -----  ----- -----

DrvSysPortInit?/DrvSysCtrl               ----- -----  ----- -----

AppHostCommInit?/AppHostComm             ----- -----  ----- -----
  +--> DrvHostCommInit?/DrvHostComm
  +--> CommInitHostCommCtrl/AppHostComm

DrvHostCommInit?/DrvHostComm             ----- -----  ----- -----

CommInitHostCommCtrl/AppHostComm         ----- -----  ----- -----

DrvUartInit?/uart                        ----- -----  ----- -----

DrvCal_Init?/LibDrv                      ----- -----  ----- -----

DrvLcdRunInit?/AppSysCtrl                ----- -----  ----- -----

DrvIntPriority?/DrvSysCtrl               ----- -----  ----- -----

Drv_XsiInit?/LibDrv                      ----- -----  ----- -----

Drv_XbusInit?/LibDrv                     ----- -----  ----- -----

PRINTF?/PRINTF?                          0069H 0077H  ----- -----
  +--> OUT/PRINTF?

OUT/PRINTF?                              ----- -----  ----- -----
  +--> PUTCH/PRINTF?

PUTCH/PRINTF?                            ----- -----  ----- -----
  +--> putchar?/uart
  +--> OUT/PRINTF?

putchar?/uart                            ----- -----  ----- -----

FlowWork?/FlowWork                       ----- -----  ----- -----

FlowFactory?/FlowFactory                 ----- -----  ----- -----
  +--> Afe_Clk_Init?/FlowFactory
  +--> Afe_Init?/FlowFactory
  +--> Test_DebugOut?/DrvAfePara
  +--> DrvXbus_WriteInitCode?/LibDrv
  +--> AfeModeSelInit?/FlowFactory
  +--> PRINTF?/PRINTF?
  +--> Mcap_Free_Run?/FlowFactory
  +--> Mcap_60Hz_Run?/FlowFactory
L251 LINKER/LOCATER V4.65.0.0                                                         05/26/2017  20:22:53  PAGE 5


  +--> Mcap_120Hz_Run?/FlowFactory

Afe_Clk_Init?/FlowFactory                ----- -----  ----- -----

Afe_Init?/FlowFactory                    ----- -----  ----- -----
  +--> Afe_Order_Init?/FlowFactory
  +--> Afe_Table_Init?/FlowFactory
  +--> Afe_Config_Init?/FlowFactory
  +--> Asm_Config_Init?/DrvAsmCtrl
  +--> Afe_Tab_Config?/FlowFactory
  +--> PRINTF?/PRINTF?

Afe_Order_Init?/FlowFactory              ----- -----  180CH 1A93H
  +--> DrvAfeSelTaborRepRam?/DrvAfePara
  +--> Drv_XsiWrite?/LibDrv

DrvAfeSelTaborRepRam?/DrvAfePara         ----- -----  ----- -----
  +--> Drv_XsiReadReg?/LibDrv
  +--> Drv_XsiWriteReg?/LibDrv

Drv_XsiReadReg?/LibDrv                   ----- -----  ----- -----

Drv_XsiWriteReg?/LibDrv                  ----- -----  ----- -----

Drv_XsiWrite?/LibDrv                     0021H 0027H  ----- -----

Afe_Table_Init?/FlowFactory              ----- -----  180CH 196BH
  +--> memset??/MEMSET?
  +--> DrvAfeSelTaborRepRam?/DrvAfePara
  +--> Drv_XsiWrite?/LibDrv

memset??/MEMSET?                         ----- -----  ----- -----

Afe_Config_Init?/FlowFactory             ----- -----  ----- -----
  +--> Drv_XsiWriteReg?/LibDrv
  +--> DrvAfeEnCOF?/DrvAfePara
  +--> DrvAfeEnRawdataNum?/DrvAfePara

DrvAfeEnCOF?/DrvAfePara                  ----- -----  ----- -----
  +--> Drv_XsiWriteReg?/LibDrv
  +--> DebugReadAFEOneReg?/DrvAfePara
  +--> PRINTF?/PRINTF?

DebugReadAFEOneReg?/DrvAfePara           ----- -----  ----- -----
  +--> Drv_XsiReadReg?/LibDrv
  +--> PRINTF?/PRINTF?

DrvAfeEnRawdataNum?/DrvAfePara           ----- -----  ----- -----
  +--> Drv_XsiWriteReg?/LibDrv
  +--> DebugReadAFEOneReg?/DrvAfePara
  +--> PRINTF?/PRINTF?

Asm_Config_Init?/DrvAsmCtrl              ----- -----  ----- -----
  +--> PRINTF?/PRINTF?

Afe_Tab_Config?/FlowFactory              ----- -----  ----- -----
  +--> Afe_Config_Tab0?/DrvAfePara
  +--> Afe_Config_Tab1?/DrvAfePara
  +--> Afe_Config_Tab2?/DrvAfePara
  +--> Afe_Config_Tab3?/DrvAfePara

Afe_Config_Tab0?/DrvAfePara              ----- -----  ----- -----
  +--> DrvAfeSelTaborRepRam?/DrvAfePara
  +--> Drv_XsiWriteReg?/LibDrv
  +--> Afe_SetTabCBChEN?/DrvAfePara
L251 LINKER/LOCATER V4.65.0.0                                                         05/26/2017  20:22:53  PAGE 6



Afe_SetTabCBChEN?/DrvAfePara             ----- -----  1814H 1973H
  +--> memset??/MEMSET?
  +--> Drv_XsiWrite?/LibDrv

Afe_Config_Tab1?/DrvAfePara              ----- -----  ----- -----
  +--> DrvAfeSelTaborRepRam?/DrvAfePara
  +--> Drv_XsiWriteReg?/LibDrv
  +--> Afe_SetTabCBChEN?/DrvAfePara

Afe_Config_Tab2?/DrvAfePara              ----- -----  180CH 1813H
  +--> DrvAfeSelTaborRepRam?/DrvAfePara
  +--> Drv_XsiWriteReg?/LibDrv
  +--> Afe_SetTabCBChEN?/DrvAfePara

Afe_Config_Tab3?/DrvAfePara              ----- -----  ----- -----
  +--> DrvAfeSelTaborRepRam?/DrvAfePara
  +--> Drv_XsiWriteReg?/LibDrv
  +--> Afe_SetTabCBChEN?/DrvAfePara

Test_DebugOut?/DrvAfePara                ----- -----  ----- -----
  +--> Test_Debug0?/DrvAfePara
  +--> Test_Debug3?/DrvAfePara

Test_Debug0?/DrvAfePara                  ----- -----  ----- -----
  +--> PRINTF?/PRINTF?
  +--> Test_Lcd_Run?/DrvAfePara

Test_Lcd_Run?/DrvAfePara                 ----- -----  ----- -----
  +--> Drv_XsiWriteReg?/LibDrv
  +--> PRINTF?/PRINTF?

Test_Debug3?/DrvAfePara                  ----- -----  ----- -----
  +--> PRINTF?/PRINTF?
  +--> Test_Lcd_Busy?/DrvAfePara

Test_Lcd_Busy?/DrvAfePara                ----- -----  ----- -----
  +--> Drv_XsiWriteReg?/LibDrv
  +--> PRINTF?/PRINTF?
  +--> Drv_XsiReadReg?/LibDrv

DrvXbus_WriteInitCode?/LibDrv            ----- -----  ----- -----
  +--> DrvXbus_ReadLcd16?/LibDrv
  +--> PRINTF?/PRINTF?
  +--> DelayMs?/DrvSysCtrl
  +--> DrvXbus_WriteLcd8?/LibDrv

DrvXbus_ReadLcd16?/LibDrv                0021H 0021H  ----- -----

DelayMs?/DrvSysCtrl                      ----- -----  ----- -----
  +--> DelayUs?/DrvSysCtrl

DelayUs?/DrvSysCtrl                      ----- -----  ----- -----

DrvXbus_WriteLcd8?/LibDrv                ----- -----  ----- -----

AfeModeSelInit?/FlowFactory              ----- -----  ----- -----
  +--> DrvAsmGetSta?/DrvAsmCtrl
  +--> PRINTF?/PRINTF?

DrvAsmGetSta?/DrvAsmCtrl                 ----- -----  ----- -----

Mcap_Free_Run?/FlowFactory               ----- -----  ----- -----
  +--> Afe_Change_Tab3?/DrvAfePara
  +--> Drv_XsiWriteReg?/LibDrv
L251 LINKER/LOCATER V4.65.0.0                                                         05/26/2017  20:22:53  PAGE 7


  +--> Drv_XsiReadReg?/LibDrv
  +--> PRINTF?/PRINTF?
  +--> DrvMcapModeInit?/DrvAfePara
  +--> DrvLoadTabSingle?/DrvAsmCtrl
  +--> DrvMcapSetTestMode?/DrvAfePara
  +--> DrvAsmInterEnable0?/DrvAsmCtrl
  +--> DrvAsmSetPwrOn?/DrvAsmCtrl
  +--> DrvAsmScanStart?/DrvAsmCtrl
  +--> DrvMcapReadSta?/DrvAfePara
  +--> DrvGetAdcData?/DrvAsmCtrl
  +--> DrvGetAramRawData?/DrvAsmCtrl
  +--> DrvAsmAramAvail?/DrvAsmCtrl
  +--> DrvAsmSetPwrOff?/DrvAsmCtrl
  +--> DelayMs?/DrvSysCtrl

Afe_Change_Tab3?/DrvAfePara              ----- -----  180CH 180FH
  +--> DrvAfeSelTaborRepRam?/DrvAfePara
  +--> Drv_XsiWriteReg?/LibDrv
  +--> Afe_SetTabCBChEN?/DrvAfePara

DrvMcapModeInit?/DrvAfePara              ----- -----  ----- -----
  +--> DrvMcapSetMode?/DrvAfePara
  +--> DrvMcapSetPara?/DrvAfePara
  +--> DrvMcapSetFir?/DrvAfePara
  +--> DrvMcapSetSampleRate?/DrvAfePara
  +--> DrvMcapSetSampleInit?/DrvAfePara
  +--> DrvMcapSetAnaTiming?/DrvAfePara
  +--> PRINTF?/PRINTF?
  +--> Drv_XsiWriteReg?/LibDrv
  +--> DrvMcapSetDiffMax?/DrvAfePara
  +--> DrvMcapSetRawGain?/DrvAfePara
  +--> DrvMcapSetOverflow?/DrvAfePara
  +--> Drv_XsiReadReg?/LibDrv

DrvMcapSetMode?/DrvAfePara               ----- -----  ----- -----
  +--> Drv_XsiReadReg?/LibDrv
  +--> Drv_XsiWriteReg?/LibDrv

DrvMcapSetPara?/DrvAfePara               ----- -----  ----- -----
  +--> DrvAfeSelTaborRepRam?/DrvAfePara
  +--> Drv_XsiReadReg?/LibDrv

DrvMcapSetFir?/DrvAfePara                0021H 0022H  180CH 180DH
  +--> PRINTF?/PRINTF?
  +--> Drv_XsiWriteReg?/LibDrv

DrvMcapSetSampleRate?/DrvAfePara         0021H 0024H  180CH 1813H
  +--> Drv_XsiReadReg?/LibDrv
  +--> PRINTF?/PRINTF?
  +--> DrvAfeSelTaborRepRam?/DrvAfePara
  +--> Drv_XsiWriteReg?/LibDrv

DrvMcapSetSampleInit?/DrvAfePara         ----- -----  ----- -----
  +--> Drv_XsiWriteReg?/LibDrv

DrvMcapSetAnaTiming?/DrvAfePara          ----- -----  180CH 180DH
  +--> PRINTF?/PRINTF?
  +--> DrvMcapSetMode?/DrvAfePara

DrvMcapSetDiffMax?/DrvAfePara            ----- -----  ----- -----
  +--> Drv_XsiReadReg?/LibDrv
  +--> Drv_XsiWriteReg?/LibDrv

DrvMcapSetRawGain?/DrvAfePara            ----- -----  ----- -----
  +--> Drv_XsiReadReg?/LibDrv
L251 LINKER/LOCATER V4.65.0.0                                                         05/26/2017  20:22:53  PAGE 8


  +--> Drv_XsiWriteReg?/LibDrv

DrvMcapSetOverflow?/DrvAfePara           0021H 0028H  180CH 180DH
  +--> Drv_XsiReadReg?/LibDrv
  +--> PRINTF?/PRINTF?
  +--> Drv_XsiWriteReg?/LibDrv

DrvLoadTabSingle?/DrvAsmCtrl             ----- -----  ----- -----

DrvMcapSetTestMode?/DrvAfePara           ----- -----  ----- -----
  +--> Drv_XsiReadReg?/LibDrv
  +--> Drv_XsiWriteReg?/LibDrv

DrvAsmInterEnable0?/DrvAsmCtrl           ----- -----  ----- -----

DrvAsmSetPwrOn?/DrvAsmCtrl               ----- -----  ----- -----

DrvAsmScanStart?/DrvAsmCtrl              ----- -----  ----- -----

DrvMcapReadSta?/DrvAfePara               ----- -----  ----- -----
  +--> Drv_XsiReadReg?/LibDrv
  +--> PRINTF?/PRINTF?

DrvGetAdcData?/DrvAsmCtrl                ----- -----  180CH 180FH
  +--> PRINTF?/PRINTF?

DrvGetAramRawData?/DrvAsmCtrl            ----- -----  180CH 1D37H
  +--> PRINTF?/PRINTF?

DrvAsmAramAvail?/DrvAsmCtrl              ----- -----  ----- -----

DrvAsmSetPwrOff?/DrvAsmCtrl              ----- -----  ----- -----

Mcap_60Hz_Run?/FlowFactory               ----- -----  ----- -----
  +--> DrvAsmReq120hz_Small_LcdBusy?/DrvAsmCtrl
  +--> Afe_Change_Tab3?/DrvAfePara
  +--> Drv_XsiWriteReg?/LibDrv
  +--> Drv_XsiReadReg?/LibDrv
  +--> PRINTF?/PRINTF?
  +--> DrvMcapModeInit?/DrvAfePara
  +--> DrvLoadTabSingle?/DrvAsmCtrl
  +--> DrvMcapSetTestMode?/DrvAfePara
  +--> DrvAsmInterEnable0?/DrvAsmCtrl
  +--> DrvAsmSetPwrOn?/DrvAsmCtrl
  +--> DrvAsmScanStart?/DrvAsmCtrl
  +--> DrvMcapReadSta?/DrvAfePara
  +--> DrvGetAdcData?/DrvAsmCtrl
  +--> DrvGetAramRawData?/DrvAsmCtrl
  +--> DrvAsmAramAvail?/DrvAsmCtrl
  +--> DelayMs?/DrvSysCtrl

DrvAsmReq120hz_Small_LcdBusy?/DrvAsmCtrl ----- -----  ----- -----

Mcap_120Hz_Run?/FlowFactory              ----- -----  ----- -----
  +--> Afe_Change_Tab3?/DrvAfePara
  +--> Drv_XsiWriteReg?/LibDrv
  +--> Drv_XsiReadReg?/LibDrv
  +--> PRINTF?/PRINTF?
  +--> DrvMcapModeInit?/DrvAfePara
  +--> DrvAsmReq120hz_Small_LcdBusy?/DrvAsmCtrl
  +--> DrvLoadTabMultiple?/DrvAsmCtrl
  +--> DrvMcapSetTestMode?/DrvAfePara
  +--> DrvAsmInterEnable0?/DrvAsmCtrl
  +--> DrvAsmSetPwrOn?/DrvAsmCtrl
  +--> DrvAsmScanStart?/DrvAsmCtrl
L251 LINKER/LOCATER V4.65.0.0                                                         05/26/2017  20:22:53  PAGE 9


  +--> DrvMcapReadSta?/DrvAfePara
  +--> DrvGetAdcData?/DrvAsmCtrl
  +--> DrvGetAramRawData?/DrvAsmCtrl
  +--> DrvAsmAramAvail?/DrvAsmCtrl
  +--> DelayMs?/DrvSysCtrl

DrvLoadTabMultiple?/DrvAsmCtrl           0021H 0021H  ----- -----

*** NEW ROOT ***************************

?C_C51STARTUP?1                          ----- -----  ----- -----

*** NEW ROOT ***************************

ISR_I2C?/AppHostComm                     ----- -----  ----- -----
  +--> HostCommProc/AppHostComm

HostCommProc/AppHostComm                 ----- -----  ----- -----
  +--> AppHostRegWrite?/AppHostComm
  +--> AppHostRegRead?/AppHostComm

AppHostRegWrite?/AppHostComm             ----- -----  ----- -----
  +--> AppWriteRegMapDataNormal/AppHostComm
  +--> AppWriteRegMapDataTest?/FlowFactory

AppWriteRegMapDataNormal/AppHostComm     ----- -----  ----- -----
  +--> AppHostUpdateHeadState?/AppHostComm
  +--> AppHandleSwitch2STDI2C?/AppHostComm

AppHostUpdateHeadState?/AppHostComm      ----- -----  ----- -----

AppHandleSwitch2STDI2C?/AppHostComm      ----- -----  ----- -----

AppWriteRegMapDataTest?/FlowFactory      ----- -----  ----- -----
  +--> AppHostUpdateHeadState?/AppHostComm
  +--> AppWriteReg0x01?/FlowFactory

AppWriteReg0x01?/FlowFactory             ----- -----  ----- -----

AppHostRegRead?/AppHostComm              ----- -----  ----- -----
  +--> AppReadRegMapDataNormal/AppHostComm
  +--> AppReadRegMapDataTest?/FlowFactory

AppReadRegMapDataNormal/AppHostComm      ----- -----  ----- -----
  +--> AppAnswerSwitch2STDI2C?/AppHostComm

AppAnswerSwitch2STDI2C?/AppHostComm      ----- -----  ----- -----

AppReadRegMapDataTest?/FlowFactory       ----- -----  ----- -----

*** NEW ROOT ***************************

ISR_I2C_Stop?/AppHostComm                ----- -----  ----- -----

*** NEW ROOT ***************************

Exint0_IRQHandler?/DrvSysCtrl            ----- -----  ----- -----
  +--> PRINTF?/PRINTF?

*** NEW ROOT ***************************

Exint1_IRQHandler?/DrvSysCtrl            ----- -----  ----- -----
  +--> PRINTF?/PRINTF?

*** NEW ROOT ***************************
L251 LINKER/LOCATER V4.65.0.0                                                         05/26/2017  20:22:53  PAGE 10



ISR_LcdRun_IRQHandler?/DrvAsmCtrl        ----- -----  ----- -----
  +--> PRINTF?/PRINTF?

*** NEW ROOT ***************************

DrvScanCtrl_IRQHandler?/DrvAsmCtrl       0065H 0068H  ----- -----
  +--> DrvAsmGetSta?/DrvAsmCtrl
  +--> PRINTF?/PRINTF?
  +--> DrvGetAramData?/FlowFactory
  +--> DrvAsmAramAvail?/DrvAsmCtrl
  +--> DrvAsmScanStart?/DrvAsmCtrl

DrvGetAramData?/FlowFactory              ----- -----  ----- -----

*** NEW ROOT ***************************

ISR_Uart?/uart                           ----- -----  ----- -----

*** NEW ROOT ***************************

?C_C51STARTUP?2                          ----- -----  ----- -----



PUBLIC SYMBOLS OF MODULE:  ..\output\obj\mcu (?C_START?)


      VALUE       CLASS    TYPE      PUBLIC SYMBOL NAME
      =================================================
      000000FFH   NUMBER   ---       ?C?CODESEG
      00FF0066H   CODE     ---       ?C?INITEDATA
      00FF8B61H   HCONST   WORD      ?C?INITEDATA_END
      00FEF792H   ECODE    ---       ?C?PRNFMT?
      00FF0000H   CODE     ---       ?C?STARTUP?
      00000001H   NUMBER   ---       ?C?XDATASEG
      00FF0000H   CODE     ---       ?C_STARTUP?
      0000000EH   DATA     BYTE      ?Drv_XsiRead??BYTE
      0000001BH   DATA     BYTE      ?Drv_XsiWrite??BYTE
      00000078H   DATA     ---       ?printf??BYTE
*SFR* 000000D0H.6 DATA     BIT       AC
*SFR* 000000E0H   DATA     BYTE      ACC
      00FF1EBAH   ECODE    ---       Afe_120Hz_H_Clb?
      00FF1C5DH   ECODE    ---       Afe_120Hz_Run?
      00FF1D59H   ECODE    ---       Afe_120Hz_Run_Monitor?
      00FF1F7FH   ECODE    ---       Afe_120Hz_Run_RTC_Monitor?
      00FF2944H   ECODE    ---       Afe_60Hz_120Hz_Changed?
      00FF1A2EH   ECODE    ---       Afe_60Hz_H_Clb?
      00FF1953H   ECODE    ---       Afe_60Hz_Run?
      00FF2737H   ECODE    ---       Afe_ALL_WakeUpStandby?
      00FF4236H   ECODE    ---       Afe_Change_Tab3?
      00FF0810H   ECODE    ---       Afe_Clk_Init?
      00FF0938H   ECODE    ---       Afe_Config_Init?
      00FF3D59H   ECODE    ---       Afe_Config_Tab0?
      00FF3E89H   ECODE    ---       Afe_Config_Tab1?
      00FF3FC2H   ECODE    ---       Afe_Config_Tab2?
      00FF4109H   ECODE    ---       Afe_Config_Tab3?
      00FF132EH   ECODE    ---       Afe_Free_Run?
      00FF1751H   ECODE    ---       Afe_Free_Run_H_CB?
      00FF13FDH   ECODE    ---       Afe_Free_Run_Monitor?
      00FF14E2H   ECODE    ---       Afe_Free_Run_RTC_Monitor?
      00FF130EH   ECODE    ---       Afe_Init?
      00FF233CH   ECODE    ---       Afe_Lcd_WakeUp_StandBy?
      00FF2691H   ECODE    ---       Afe_LcdDSTBWakeUp_Test?
      00FF280FH   ECODE    ---       Afe_LcdRun_Changed?
L251 LINKER/LOCATER V4.65.0.0                                                         05/26/2017  20:22:53  PAGE 11


      00FF256FH   ECODE    ---       Afe_LcdRunWakeUp_Test?
      00FF24D0H   ECODE    ---       Afe_LVDESDWakeUp_Stop?
      00FF081DH   ECODE    ---       Afe_Order_Init?
*SFR* 000000EAH.2 DATA     BIT       AFE_RST
      00FF3CDAH   ECODE    ---       Afe_SetTabCBChEN?
      00FF12FCH   ECODE    ---       Afe_Tab_Config?
      00FF08B4H   ECODE    ---       Afe_Table_Init?
      00FF2428H   ECODE    ---       Afe_TestOneChannelAdc?
*SFR* 000000CAH.2 DATA     BIT       AFEACKEN
*SFR* 000000CBH.5 DATA     BIT       AFECKEN
      00FF357EH   ECODE    ---       AfeModeSelInit?
*SFR* 000000CBH.2 DATA     BIT       AFESCKEN
*SFR* 000000E8H   DATA     BYTE      AIE
*SFR* 000000C0H   DATA     BYTE      AIF
*SFR* 000000F7H   DATA     BYTE      AIPH
*SFR* 000000F8H   DATA     BYTE      AIPL
*SFR* 000000EAH   DATA     BYTE      ANACON
*SFR* 000000C1H   DATA     BYTE      ANACON1
*SFR* 000000C2H   DATA     BYTE      ANACON2
*SFR* 000000C3H   DATA     BYTE      ANACON3
*SFR* 000000C7H   DATA     BYTE      ANACON7
*SFR* 000000A0H   DATA     BYTE      ANACON8
*SFR* 000000B0H   DATA     BYTE      ANACON9
      0000030AH   EDATA    ---       ap0
      00FEFC28H   ECODE    ---       AppAnswerSwitch2STDI2C?
      00FF6048H   ECODE    ---       AppGetAsmState?
      00FEFC5AH   ECODE    ---       AppHandleSwitch2STDI2C?
      00FEFD9FH   ECODE    ---       AppHostCommInit?
      00FEFD07H   ECODE    ---       AppHostRegRead?
      00FEFD2BH   ECODE    ---       AppHostRegWrite?
      00FEFC96H   ECODE    ---       AppHostUpdateHeadState?
      00FF03EDH   ECODE    ---       AppPanelParamUpdate?
      00FF031EH   ECODE    ---       AppReadRegMapDataTest?
      00FF040CH   ECODE    ---       AppShowRawdata?
      00FEFDB0H   ECODE    ---       AppSysInit?
      00FF0093H   ECODE    ---       AppWriteReg0x01?
      00FF00B6H   ECODE    ---       AppWriteRegMapDataTest?
*SFR* 000000EAH.7 DATA     BIT       ARAM_SEL
*SFR* 000000C9H.7 DATA     BIT       ASM_32K_EN
      00FF5AB2H   ECODE    ---       Asm_Config_Init?
*SFR* 000000E8H.1 DATA     BIT       ASM_EI
*SFR* 000000E5H.2 DATA     BIT       ASM_MON_INT
*SFR* 000000CDH.2 DATA     BIT       ASM_MON_WKEN
      00FEE800H   ECODE    ---       atoi??
*SFR* 000000F0H   DATA     BYTE      B
*SFR* 00000098H.5 DATA     BIT       BUS_SEL
*SFR* 000000C8H.1 DATA     BIT       C_T2
*SFR* 000000CBH.6 DATA     BIT       CALCKEN
*SFR* 000000FAH   DATA     BYTE      CCAP0H
*SFR* 000000EAH   DATA     BYTE      CCAP0L
*SFR* 000000FBH   DATA     BYTE      CCAP1H
*SFR* 000000EBH   DATA     BYTE      CCAP1L
*SFR* 000000FCH   DATA     BYTE      CCAP2H
*SFR* 000000ECH   DATA     BYTE      CCAP2L
*SFR* 000000FDH   DATA     BYTE      CCAP3H
*SFR* 000000EDH   DATA     BYTE      CCAP3L
*SFR* 000000FEH   DATA     BYTE      CCAP4H
*SFR* 000000EEH   DATA     BYTE      CCAP4L
*SFR* 000000DAH   DATA     BYTE      CCAPM0
*SFR* 000000DBH   DATA     BYTE      CCAPM1
*SFR* 000000DCH   DATA     BYTE      CCAPM2
*SFR* 000000DDH   DATA     BYTE      CCAPM3
*SFR* 000000DEH   DATA     BYTE      CCAPM4
*SFR* 000000D8H   DATA     BIT       CCF0
*SFR* 000000D8H.1 DATA     BIT       CCF1
L251 LINKER/LOCATER V4.65.0.0                                                         05/26/2017  20:22:53  PAGE 12


*SFR* 000000D8H.2 DATA     BIT       CCF2
*SFR* 000000D8H.3 DATA     BIT       CCF3
*SFR* 000000D8H.4 DATA     BIT       CCF4
*SFR* 000000D8H   DATA     BYTE      CCON
*SFR* 00000090H.3 DATA     BIT       CEX0
*SFR* 00000090H.4 DATA     BIT       CEX1
*SFR* 00000090H.5 DATA     BIT       CEX2
*SFR* 00000090H.6 DATA     BIT       CEX3
*SFR* 00000090H.7 DATA     BIT       CEX4
*SFR* 000000D8H.7 DATA     BIT       CF
*SFR* 000000C9H   DATA     BYTE      CGUCON0
*SFR* 000000C8H   DATA     BYTE      CGUCON1
*SFR* 000000CAH   DATA     BYTE      CGUCON2
*SFR* 000000CBH   DATA     BYTE      CGUCON3
*SFR* 000000CCH   DATA     BYTE      CGUCON4
*SFR* 000000CDH   DATA     BYTE      CGUCON5
*SFR* 000000CEH   DATA     BYTE      CGUCON6
*SFR* 000000CFH   DATA     BYTE      CGUCON7
*SFR* 000000BFH   DATA     BYTE      CGUCON8
*SFR* 000000F9H   DATA     BYTE      CH
*SFR* 000000E9H   DATA     BYTE      CL
*SFR* 000000CEH   DATA     BIT       CLK_WP
*SFR* 000000CAH.7 DATA     BIT       CLKEN_500K
*SFR* 000000D9H   DATA     BYTE      CMOD
*SFR* 000000B9H   DATA     BYTE      CNTCON
*SFR* 00000087H   DATA     BIT       CORE_IDLE
*SFR* 00000087H.1 DATA     BIT       CORE_STOP
*SFR* 000000C8H   DATA     BIT       CP_RL2
*SFR* 000000D8H.6 DATA     BIT       CR
*SFR* 000000D0H.7 DATA     BIT       CY
      00FF36F2H   ECODE    ---       DebugReadAFEOneReg?
      00FF36AFH   ECODE    ---       DebugReadAFEReg?
      00FF5DAEH   ECODE    ---       DebugReadAsmReg?
      00FEFAA4H   ECODE    ---       DelayMs?
      00FEFA88H   ECODE    ---       DelayUs?
*SFR* 000000CBH.7 DATA     BIT       DMACKEN
*SFR* 00000083H   DATA     BYTE      DPH
*SFR* 00000082H   DATA     BYTE      DPL
*SFR* 00000084H   DATA     BYTE      DPXL
      00FEFAEBH   ECODE    ---       Drv_Rtc_Init?
      00FEEDBCH   ECODE    ---       Drv_XbusInit?
      00FEE9A0H   ECODE    ---       Drv_XsiInit?
      00FEEA56H   ECODE    ---       Drv_XsiRead?
      00FEE9C4H   ECODE    ---       Drv_XsiReadReg?
      00FEEAB5H   ECODE    ---       Drv_XsiWrite?
      00FEEA0DH   ECODE    ---       Drv_XsiWriteReg?
      00FF6ADBH   ECODE    ---       DrvAfeClkGateEn?
      00FF3965H   ECODE    ---       DrvAfeEn4mux?
      00FF38FBH   ECODE    ---       DrvAfeEnCOF?
      00FF3930H   ECODE    ---       DrvAfeEnRawdataNum?
      00FF378AH   ECODE    ---       DrvAFEGroupSelReg1?
      00FF37EBH   ECODE    ---       DrvAFEGroupSelReg2?
      00FF3C77H   ECODE    ---       DrvAfeInitBase?
      00FF38C0H   ECODE    ---       DrvAfeScanMode?
      00FF3657H   ECODE    ---       DrvAfeSelACCRam?
      00FF3723H   ECODE    ---       DrvAfeSelTaborRepRam?
      00FF3B76H   ECODE    ---       DrvAfeSetBaseTrack?
      00FF3BFFH   ECODE    ---       DrvAfeSetHCBTarget?
      00FF3C3BH   ECODE    ---       DrvAfeSetHCBThld?
      00FF3B1DH   ECODE    ---       DrvAfeSetOneChannelTestMode?
      00FF3BA0H   ECODE    ---       DrvAfeSetTabBaseTrack?
      00FF38E8H   ECODE    ---       DrvAfeSofeReset?
      00FF6C7BH   ECODE    ---       DrvAsmAfeClkGateEn?
      00FF6C69H   ECODE    ---       DrvAsmAramAvail?
      00FF60F9H   ECODE    ---       DrvAsmCloseTable?
L251 LINKER/LOCATER V4.65.0.0                                                         05/26/2017  20:22:53  PAGE 13


      00FF69F8H   ECODE    ---       DrvAsmClrInt?
      00FF5D78H   ECODE    ---       DrvAsmGetSta1?
      00FF5D6FH   ECODE    ---       DrvAsmGetSta?
      00FF5D53H   ECODE    ---       DrvAsmInterClear0?
      00FF5CEDH   ECODE    ---       DrvAsmInterDisable0?
      00FF5D2FH   ECODE    ---       DrvAsmInterDisable1?
      00FF5CBCH   ECODE    ---       DrvAsmInterDisableAll?
      00FF5CCFH   ECODE    ---       DrvAsmInterEnable0?
      00FF5D11H   ECODE    ---       DrvAsmInterEnable1?
      00FF5CA7H   ECODE    ---       DrvAsmInterEnableAll?
      00FF65FBH   ECODE    ---       DrvAsmMonitoModeInit?
      00FF6809H   ECODE    ---       DrvAsmReq120hz_Small_LcdBusy?
      00FF681BH   ECODE    ---       DrvAsmReq60hz_Big_LcdBusy?
      00FF6AFBH   ECODE    ---       DrvAsmRtcMonitoModeInit?
      00FF61F8H   ECODE    ---       DrvAsmScanStart?
      00FF5DA5H   ECODE    ---       DrvAsmSeStbtMask?
      00FF6245H   ECODE    ---       DrvAsmSetCBAdjustMode?
      00FF6AA5H   ECODE    ---       DrvAsmSetHwMonPwrEn?
      00FF5D81H   ECODE    ---       DrvAsmSetIDReset?
      00FF620AH   ECODE    ---       DrvAsmSetMonitorMode?
      00FF5D93H   ECODE    ---       DrvAsmSetPhase?
      00FF6C37H   ECODE    ---       DrvAsmSetPwrOff?
      00FF6C0DH   ECODE    ---       DrvAsmSetPwrOn?
      00FF6A0DH   ECODE    ---       DrvAsmSetRtcMonitorMode?
      00FF6A83H   ECODE    ---       DrvAsmSetRtcMonitorTimer?
      00FF65EAH   ECODE    ---       DrvAsmSetSTBTickMask?
      00FF683FH   ECODE    ---       DrvAsmSkipFramHaveLcdBusy?
      00FF682DH   ECODE    ---       DrvAsmSkipFramNoLcdBusy?
      00FF5C5FH   ECODE    ---       DrvAsmWakeDisable0?
      00FF5C83H   ECODE    ---       DrvAsmWakeDisable1?
      00FF5C23H   ECODE    ---       DrvAsmWakeEnable0?
      00FF5C41H   ECODE    ---       DrvAsmWakeEnable1?
      00FEEB42H   ECODE    ---       DrvCal_Cmd?
      00FEEB12H   ECODE    ---       DrvCal_Init?
      00FEECCBH   ECODE    ---       DrvCal_MatrixAMov?
      00FEEBFFH   ECODE    ---       DrvCal_MatrixAmp?
      00FEEC5DH   ECODE    ---       DrvCal_MatrixMul?
      00FEEB93H   ECODE    ---       DrvCal_MatrixProc?
      00FF6577H   ECODE    ---       DrvGetAdcData?
      00FF6270H   ECODE    ---       DrvGetAramCb?
      00FF058FH   ECODE    ---       DrvGetAramData?
      00FF63A4H   ECODE    ---       DrvGetAramRawData?
      00FF04EBH   ECODE    ---       DrvGetBase?
      00FF050DH   ECODE    ---       DrvGetDiffdata?
      00FF04B0H   ECODE    ---       DrvGetDiffNoseMax?
      00FF05F7H   ECODE    ---       DrvGetRawdata?
      00FF382BH   ECODE    ---       DrvGetRptRamOrder?
      00FF06E0H   ECODE    ---       DrvGetRptRamRawBase?
      00FF399AH   ECODE    ---       DrvGetTabRam?
      00FF4457H   ECODE    ---       DrvGetTabRamCb?
      00FEE8D1H   ECODE    ---       DrvHostCommInit?
      00FF0563H   ECODE    ---       DrvInitAram?
      00FF3872H   ECODE    ---       DrvInitRptRam?
      00FEFAC3H   ECODE    ---       DrvIntPriority?
      00FEFDACH   ECODE    ---       DrvLcdRunInit?
      00FF6851H   ECODE    ---       DrvLoadTabCB?
      00FF6158H   ECODE    ---       DrvLoadTabMultiple?
      00FF610BH   ECODE    ---       DrvLoadTabSingle?
      00FF504EH   ECODE    ---       DrvMcapModeInit?
      00FF51F3H   ECODE    ---       DrvMcapReadSta?
      00FF4963H   ECODE    ---       DrvMcapSetAnaTiming?
      00FF4BFEH   ECODE    ---       DrvMcapSetDiffMax?
      00FF4665H   ECODE    ---       DrvMcapSetFir?
      00FF462CH   ECODE    ---       DrvMcapSetMode?
      00FF4CFBH   ECODE    ---       DrvMcapSetOverflow?
L251 LINKER/LOCATER V4.65.0.0                                                         05/26/2017  20:22:53  PAGE 14


      00FF4EA4H   ECODE    ---       DrvMcapSetPara?
      00FF4C75H   ECODE    ---       DrvMcapSetRawGain?
      00FF4918H   ECODE    ---       DrvMcapSetSampleInit?
      00FF4745H   ECODE    ---       DrvMcapSetSampleRate?
      00FF5278H   ECODE    ---       DrvMcapSetTestMode?
      00FEFDAFH   ECODE    ---       DrvPowerInit?
      00FF6D9AH   ECODE    ---       DrvScanCtrl_IRQHandler?
      00FF440DH   ECODE    ---       DrvSetCbDir?
      00FF45C5H   ECODE    ---       DrvSetTabMonThr?
      00FEFA84H   ECODE    ---       DrvSwReset?
      00FEFA39H   ECODE    ---       DrvSysClkInit?
      00FEFA71H   ECODE    ---       DrvSysPortInit?
      00FEFA49H   ECODE    ---       DrvSysPwrSel?
      00FEF4B8H   ECODE    ---       DrvUartInit?
      00FEEDC3H   ECODE    ---       DrvXbus_ReadLcd16?
      00FEF365H   ECODE    ---       DrvXbus_ReadLcdReg?
      00FEEE02H   ECODE    ---       DrvXbus_WriteInitCode?
      00FEEDECH   ECODE    ---       DrvXbus_WriteLcd8?
      00FEF34FH   ECODE    ---       DrvXbus_WriteLcdReg?
      00FEF283H   ECODE    ---       DrvXsi0_WriteN?
      00FEF2E9H   ECODE    ---       DrvXsi1_WriteN?
*SFR* 000000DAH   DATA     BYTE      DSV_CON
*SFR* 000000A8H.7 DATA     BIT       EA
*SFR* 000000A8H.6 DATA     BIT       EC
*SFR* 00000090H.2 DATA     BIT       ECI
*SFR* 000000C9H.5 DATA     BIT       EN_32K
*SFR* 000000A8H.4 DATA     BIT       ES
*SFR* 000000EFH.3 DATA     BIT       ESD_STA
*SFR* 000000A8H.1 DATA     BIT       ET0
*SFR* 000000A8H.3 DATA     BIT       ET1
*SFR* 000000A8H.5 DATA     BIT       ET2
*SFR* 000000A8H   DATA     BIT       EX0
*SFR* 000000A8H.2 DATA     BIT       EX1
*SFR* 000000C8H.3 DATA     BIT       EXEN2
*SFR* 000000C8H.6 DATA     BIT       EXF2
      00FEFB28H   ECODE    ---       Exint0_IRQHandler?
      00FEFBE9H   ECODE    ---       Exint1_IRQHandler?
*SFR* 000000D0H.5 DATA     BIT       F0
*SFR* 00000098H.7 DATA     BIT       FE
      00FF35DDH   ECODE    ---       FlowFactory?
      00FEE8FDH   ECODE    ---       FlowWork?
*SFR* 000000BDH   DATA     BYTE      FT_EN_REG
      00000008H   DATA     ---       function
      00FEE900H   ECODE    ---       g_aucVerfication
      00000020H.3 BIT      BIT       g_bCalResumeFlag
      00000020H.2 BIT      BIT       g_bRtcTimeFlg
      000040C6H   EDATA    ---       g_pAfeTab
      0000001DH   DATA     ---       g_pAfeTabPara
      00004086H   EDATA    ---       g_pMcapData
      0000001BH   DATA     ---       g_pMcapPara
      0000402CH   EDATA    ---       g_stSysParam
      000012BCH   EDATA    BYTE      g_ucAbnormalFlag
      00000848H   EDATA    BYTE      g_ucAfeScanMode
      00000838H   EDATA    ---       g_ucAram
      00000836H   EDATA    BYTE      g_ucAramReadyFlag
      000017ECH   EDATA    BYTE      g_ucCbAdjOverFlag
      00000837H   EDATA    BYTE      g_ucConvertOverFlag
      000040F6H   EDATA    BYTE      g_ucFramCnt
      0000083CH   EDATA    BYTE      g_ucFrameEndFlag
      000040F5H   EDATA    BYTE      g_ucFramTime
      00000079H   DATA     BYTE      g_ucI2cDataAddr
      000040F4H   EDATA    BYTE      g_ucINT0src
      000017E0H   EDATA    WORD      g_ucIntCount
      000040EEH   EDATA    WORD      g_ucLcdBusyCnt
      000017DFH   EDATA    BYTE      g_ucLcdBusyFlag
L251 LINKER/LOCATER V4.65.0.0                                                         05/26/2017  20:22:53  PAGE 15


      00000D97H   EDATA    BYTE      g_ucLcdStartFlag
      000017E2H   EDATA    BYTE      g_ucLcdStopFlag
      000017EBH   EDATA    BYTE      g_ucLcdSyncMissFlag
      00000849H   EDATA    ---       g_ucOrderBuf
      000017DDH   EDATA    BYTE      g_ucState0
      000017DEH   EDATA    BYTE      g_ucState1
      000040F7H   EDATA    BYTE      g_ucSysClk
      000017E3H   EDATA    BYTE      g_ucTchDetFlag
      000017EAH   EDATA    BYTE      g_ucTimeOutFlag
      00003FCDH   EDATA    ---       g_unPanelParam
      00000840H   EDATA    WORD      g_usAsmIntFlag0
      00000844H   EDATA    WORD      g_usAsmIntFlag1
      0000083EH   EDATA    WORD      g_usAsmIntSta
      00000842H   EDATA    WORD      g_usAsmSta1
      00000D98H   EDATA    ---       g_usBaseBuf
      000012BDH   EDATA    ---       g_usCBBuf
      00000D59H   EDATA    ---       g_usInfo
      00000312H   EDATA    ---       g_usRawdataBuf
      00FEF3E8H   ECODE    ---       getbyte?
*SFR* 000000EAH   DATA     BIT       GPIO_INT_SEL
*SFR* 000000B7H.5 DATA     BIT       I2C_IPH
*SFR* 000000B8H.5 DATA     BIT       I2C_IPL
*SFR* 000000E5H.1 DATA     BIT       I2C_MON_INT
*SFR* 000000CDH.1 DATA     BIT       I2C_MON_WKEN
*SFR* 000000FDH   DATA     BYTE      I2C_STATE
*SFR* 000000E8H   DATA     BIT       I2C_STOP_EI
*SFR* 000000C0H   DATA     BIT       I2C_STOP_IF
*SFR* 000000F7H   DATA     BIT       I2C_STOP_IPH
*SFR* 000000F8H   DATA     BIT       I2C_STOP_IPL
*SFR* 00000092H   DATA     BYTE      I2CADDR
*SFR* 00000091H   DATA     BYTE      I2CBUF
*SFR* 000000C8H.6 DATA     BIT       I2CCKEN
*SFR* 00000090H   DATA     BYTE      I2CCON
*SFR* 00000090H   DATA     BIT       I2CRI
*SFR* 00000095H   DATA     BYTE      I2CSEL
*SFR* 00000093H   DATA     BYTE      I2CSTOP
*SFR* 00000093H   DATA     BIT       I2CSTP
*SFR* 00000090H.1 DATA     BIT       I2CTI
*SFR* 000000A8H   DATA     BYTE      IE0
*SFR* 00000088H.1 DATA     BIT       IE0_
*SFR* 000000B1H   DATA     BYTE      IE1
*SFR* 00000088H.3 DATA     BIT       IE1_
*SFR* 000000A8H   DATA     BYTE      IEN0
*SFR* 000000DFH   DATA     BYTE      IEN1
*SFR* 000000B0H.2 DATA     BIT       INT0
*SFR* 000000B0H.3 DATA     BIT       INT1
*SFR* 000000B7H   DATA     BYTE      IPH0
*SFR* 000000B7H.1 DATA     BIT       IPHT0
*SFR* 000000B7H   DATA     BIT       IPHX0
*SFR* 000000B7H.2 DATA     BIT       IPHX1
*SFR* 000000B8H   DATA     BYTE      IPL0
*SFR* 000000B8H.1 DATA     BIT       IPLT0
*SFR* 000000B8H   DATA     BIT       IPLX0
*SFR* 000000B8H.2 DATA     BIT       IPLX1
      00FEFDE4H   ECODE    ---       isalpha??
      00FEFE2BH   ECODE    ---       isdigit??
      00FEFD80H   ECODE    ---       ISR_I2C?
      00FEFD98H   ECODE    ---       ISR_I2C_Stop?
      00FF6C8DH   ECODE    ---       ISR_LcdRun_IRQHandler?
      00FEF429H   ECODE    ---       ISR_Uart?
      00FEFDFCH   ECODE    ---       isspace??
      00FEFE1DH   ECODE    ---       isupper??
*SFR* 00000088H   DATA     BIT       IT0
*SFR* 00000088H.2 DATA     BIT       IT1
*SFR* 000000E5H   DATA     BYTE      IWKSTA
L251 LINKER/LOCATER V4.65.0.0                                                         05/26/2017  20:22:53  PAGE 16


*SFR* 000000E5H.6 DATA     BIT       LCD_ESD_WK_INT
*SFR* 000000CDH.6 DATA     BIT       LCD_ESD_WKEN
*SFR* 000000E5H.4 DATA     BIT       LCD_GPIO_WK_INT
*SFR* 000000E5H.5 DATA     BIT       LCD_LVD_WK_INT
*SFR* 000000CDH.5 DATA     BIT       LCD_LVD_WKEN
*SFR* 000000E5H.3 DATA     BIT       LCD_RELOAD_FLASH
*SFR* 000000CDH.3 DATA     BIT       LCD_RELOAD_FLASH_WKEN
*SFR* 000000B6H.2 DATA     BIT       LCD_SRC_SEL_H
*SFR* 000000B6H.1 DATA     BIT       LCD_SRC_SEL_L
*SFR* 000000B6H   DATA     BIT       LCD_START_EN
*SFR* 000000CDH.4 DATA     BIT       LCD_TIM_WKEN
*SFR* 000000FEH   DATA     BYTE      LED_EN
      00FEE883H   ECODE    ---       MAIN?
      00FF21BDH   ECODE    ---       Mcap_120Hz_Run?
      00FF1AEEH   ECODE    ---       Mcap_60Hz_Run?
      00FF17F1H   ECODE    ---       Mcap_Free_Run?
*SFR* 000000D2H   DATA     BYTE      MEMBIST_EN1
*SFR* 000000D3H   DATA     BYTE      MEMBIST_EN2
*SFR* 000000D8H   DATA     BYTE      MEMBIST_ERRMAP1
*SFR* 000000D9H   DATA     BYTE      MEMBIST_ERRMAP2
*SFR* 000000D6H   DATA     BYTE      MEMBIST_FAIL1
*SFR* 000000D7H   DATA     BYTE      MEMBIST_FAIL2
*SFR* 000000D4H   DATA     BYTE      MEMBIST_FINISH1
*SFR* 000000D5H   DATA     BYTE      MEMBIST_FINISH2
      00FEE8EBH   ECODE    ---       memset??
*SFR* 000000D0H.2 DATA     BIT       OV
*SFR* 000000D0H   DATA     BIT       P
*SFR* 00000080H   DATA     BYTE      P0
*SFR* 00000080H.4 DATA     BIT       P0_4
*SFR* 00000080H   DATA     BYTE      P0BUF
*SFR* 000000ACH   DATA     BYTE      P0DIR
*SFR* 000000EBH   DATA     BYTE      P0MOD
*SFR* 000000ECH   DATA     BYTE      P0SEL
*SFR* 00000090H   DATA     BYTE      P1
*SFR* 00000094H   DATA     BYTE      P1BUF
*SFR* 000000ADH   DATA     BYTE      P1DIR
*SFR* 000000EDH   DATA     BYTE      P1MOD
*SFR* 000000EEH   DATA     BYTE      P1SEL
*SFR* 000000A0H   DATA     BYTE      P2
*SFR* 000000B0H   DATA     BYTE      P3
      000040F0H   EDATA    ---       pAsmRegs
      000040DAH   EDATA    ---       pCalRegs
*SFR* 00000087H   DATA     BYTE      PCON
      000040EAH   EDATA    ---       pLcdWrapRegs
*SFR* 000000B8H.6 DATA     BIT       PPC
      00FEF738H   ECODE    FAR LAB   printf?
*SFR* 000000C9H.2 DATA     BIT       PROBE32K_DIG_EN
*SFR* 000000C9H   DATA     BIT       PROBE32K_FROM1M_EN
*SFR* 000000B8H.4 DATA     BIT       PS
*SFR* 000000D0H   DATA     BYTE      PSW
*SFR* 000000D1H   DATA     BYTE      PSW1
*SFR* 000000B8H.1 DATA     BIT       PT0
*SFR* 000000B8H.3 DATA     BIT       PT1
*SFR* 000000B8H.5 DATA     BIT       PT2
      00FEF39EH   ECODE    ---       putchar?
*SFR* 000000B8H   DATA     BIT       PX0
*SFR* 000000B8H.2 DATA     BIT       PX1
      000040DEH   EDATA    ---       pXSI0Regs
      000040E2H   EDATA    ---       pXSI1Regs
      000040E6H   EDATA    ---       pXSI2Regs
*SFR* 00000098H.2 DATA     BIT       RB8
*SFR* 000000CBH   DATA     BYTE      RCAP2H
*SFR* 000000CAH   DATA     BYTE      RCAP2L
*SFR* 000000C8H.5 DATA     BIT       RCLK
*SFR* 000000B0H.7 DATA     BIT       RD
L251 LINKER/LOCATER V4.65.0.0                                                         05/26/2017  20:22:53  PAGE 17


*SFR* 00000098H.4 DATA     BIT       REN
*SFR* 00000098H   DATA     BIT       RI
*SFR* 000000D0H.3 DATA     BIT       RS0
*SFR* 000000D0H.4 DATA     BIT       RS1
*SFR* 000000CAH   DATA     BIT       RTC_32K_EN
*SFR* 0000009EH.1 DATA     BIT       RTC_AUTO_MODE
*SFR* 0000009EH.4 DATA     BIT       RTC_CLR
*SFR* 000000E5H   DATA     BIT       RTC_CNT_INT
*SFR* 000000CDH   DATA     BIT       RTC_CNT_WKEN
*SFR* 0000009EH.6 DATA     BIT       RTC_INT_EN_ASM
*SFR* 0000009EH.2 DATA     BIT       RTC_INT_EN_CPU
*SFR* 0000009EH.7 DATA     BIT       RTC_START
*SFR* 0000009EH.5 DATA     BIT       RTC_START_STA
*SFR* 0000009EH   DATA     BIT       RTC_WP
*SFR* 000000CBH   DATA     BIT       RTCCKEN
*SFR* 0000009EH   DATA     BYTE      RTCCON
*SFR* 000000B6H   DATA     BYTE      RTCCON1
*SFR* 0000009DH   DATA     BYTE      RTCIVH
*SFR* 0000009CH   DATA     BYTE      RTCIVL
*SFR* 000000B0H   DATA     BIT       RXD
      000031A0H   EDATA    ---       s_aucUartInBuf
      000031C0H   EDATA    ---       s_aucUartOutBuf
      00000020H.0 BIT      BIT       s_bPanelParamUpdated
      000017E4H   EDATA    ---       s_pucCbBuf
      00000846H   EDATA    ---       s_pucOrderBuf
      000017E8H   EDATA    ---       s_pucRawBuf
      000035F5H   EDATA    BYTE      s_ucUartRxLen
      000035F8H   EDATA    BYTE      s_ucUartRxPos
      000035F2H   EDATA    BYTE      s_ucUartRxStore
      000035F6H   EDATA    WORD      s_ucUartTxLen
      000035F9H   EDATA    WORD      s_ucUartTxPos
      000035F3H   EDATA    WORD      s_ucUartTxStore
      0000030EH   EDATA    WORD      s_usCbCnt
      000017E6H   EDATA    WORD      s_usOrderCnt
      00000D95H   EDATA    WORD      s_usParaFlag
      00000310H   EDATA    WORD      s_usRawCnt
*SFR* 000000A9H   DATA     BYTE      SADDR
*SFR* 000000B9H   DATA     BYTE      SADEN
*SFR* 00000099H   DATA     BYTE      SBUF
*SFR* 00000098H   DATA     BYTE      SCON
*SFR* 000000BFH.7 DATA     BIT       SEL_32K_SRC
*SFR* 000000E9H   DATA     BYTE      SFTRST
*SFR* 00000098H.7 DATA     BIT       SM0
*SFR* 00000098H.6 DATA     BIT       SM1
*SFR* 00000098H.5 DATA     BIT       SM2
*SFR* 00000081H   DATA     BYTE      SP
*SFR* 000000BEH   DATA     BYTE      SPH
*SFR* 000000A2H   DATA     BYTE      SPI0CON
*SFR* 000000A3H   DATA     BYTE      SPI0CON2
*SFR* 000000A5H   DATA     BYTE      SPI0CON3
*SFR* 000000A7H   DATA     BYTE      SPI0CON5
*SFR* 000000B3H   DATA     BYTE      SPI1CON
*SFR* 000000B4H   DATA     BYTE      SPI1CON2
*SFR* 000000B1H   DATA     BYTE      SPI1CON3
*SFR* 000000B2H   DATA     BYTE      SPI1CON4
*SFR* 000000F5H   DATA     BYTE      SSCG_CON0
*SFR* 000000C9H.6 DATA     BIT       STANDBY
      000035C0H   EDATA    ---       string
      00FEFE0DH   ECODE    ---       strlen??
*SFR* 000000C8H.7 DATA     BIT       SYSCKEN
*SFR* 00000098H   DATA     BYTE      SYSCON
*SFR* 000000B0H.4 DATA     BIT       T0
*SFR* 000000B0H.5 DATA     BIT       T1
*SFR* 00000090H   DATA     BIT       T2
*SFR* 000000C8H   DATA     BYTE      T2CON
L251 LINKER/LOCATER V4.65.0.0                                                         05/26/2017  20:22:53  PAGE 18


*SFR* 00000090H.1 DATA     BIT       T2EX
*SFR* 000000C9H   DATA     BYTE      T2MOD
*SFR* 00000098H.3 DATA     BIT       TB8
*SFR* 000000C8H.4 DATA     BIT       TCLK
*SFR* 00000088H   DATA     BYTE      TCON
*SFR* 0000009BH   DATA     BYTE      TDIV
      00FF2BDBH   ECODE    ---       Test_Afe_AccRam?
      00FF2A53H   ECODE    ---       Test_Afe_BaseRam?
      00FF2E0DH   ECODE    ---       Test_Afe_TabRam?
      00FF3057H   ECODE    ---       Test_AfeReg?
      00FF29BCH   ECODE    ---       Test_AfeRegWrite?
      00FF5471H   ECODE    ---       Test_Ca_P1?
      00FF54EDH   ECODE    ---       Test_Ca_P4?
      00FF5569H   ECODE    ---       Test_Ca_Rst?
      00FF5388H   ECODE    ---       Test_CLk32K?
      00FF52DBH   ECODE    ---       Test_CLk48M?
*SFR* 000000BDH.2 DATA     BIT       TEST_CLK_EN
      00FF5A35H   ECODE    ---       Test_Debug0?
      00FF5A4CH   ECODE    ---       Test_Debug1?
      00FF5A6DH   ECODE    ---       Test_Debug2?
      00FF5A8FH   ECODE    ---       Test_Debug3?
      00FF5AAAH   ECODE    ---       Test_DebugOut?
      00FF5661H   ECODE    ---       Test_Lcd_Busy?
      00FF55E5H   ECODE    ---       Test_Lcd_Run?
      00FF597DH   ECODE    ---       Test_MCAP_ADC_DATA_VLD?
      00FF58C5H   ECODE    ---       Test_MCAP_DONE?
*SFR* 000000E1H.7 DATA     BIT       TEST_OUT0_EN
*SFR* 000000E2H.7 DATA     BIT       TEST_OUT1_EN
*SFR* 000000E3H.7 DATA     BIT       TEST_OUT2_EN
*SFR* 000000E4H.7 DATA     BIT       TEST_OUT3_EN
      00FF5791H   ECODE    ---       Test_Tp_Busy?
      00FF5715H   ECODE    ---       Test_Tp_Scan?
      00FF580DH   ECODE    ---       Test_Tx_Clk?
*SFR* 000000E1H   DATA     BYTE      TESTCON0
*SFR* 000000E2H   DATA     BYTE      TESTCON1
*SFR* 000000E3H   DATA     BYTE      TESTCON2
*SFR* 000000E4H   DATA     BYTE      TESTCON3
      00FEF670H   ECODE    ---       TestFun1?
      00FEF67CH   ECODE    ---       TestFun2?
      00FEF688H   ECODE    ---       TestUart?
      00FF297BH   ECODE    ---       TestXbus?
*SFR* 00000088H.5 DATA     BIT       TF0
*SFR* 00000088H.7 DATA     BIT       TF1
*SFR* 000000C8H.7 DATA     BIT       TF2
*SFR* 0000008CH   DATA     BYTE      TH0
*SFR* 0000008DH   DATA     BYTE      TH1
*SFR* 000000CDH   DATA     BYTE      TH2
*SFR* 00000098H.1 DATA     BIT       TI
*SFR* 0000008AH   DATA     BYTE      TL0
*SFR* 0000008BH   DATA     BYTE      TL1
*SFR* 000000CCH   DATA     BYTE      TL2
*SFR* 00000089H   DATA     BYTE      TMOD
*SFR* 00000088H.4 DATA     BIT       TR0
*SFR* 00000088H.6 DATA     BIT       TR1
*SFR* 000000C8H.2 DATA     BIT       TR2
*SFR* 000000B0H.1 DATA     BIT       TXD
*SFR* 00000098H.2 DATA     BIT       UART0
      00FEF52CH   ECODE    ---       uart0_getc?
      00FEF4D7H   ECODE    ---       uart0_putc?
      00FEF4E1H   ECODE    ---       uart0_puts?
*SFR* 00000098H.3 DATA     BIT       UART1
      00FEF58CH   ECODE    ---       Uart_GetIntNum?
      00FEF538H   ECODE    ---       Uart_GetString?
*SFR* 000000DAH.6 DATA     BIT       UART_INH
*SFR* 000000DAH.5 DATA     BIT       UART_INL
L251 LINKER/LOCATER V4.65.0.0                                                         05/26/2017  20:22:53  PAGE 19


*SFR* 000000B7H.6 DATA     BIT       Uart_IPH
*SFR* 000000B8H.6 DATA     BIT       Uart_IPL
*SFR* 000000AEH   DATA     BYTE      UART_RELH
*SFR* 000000ABH   DATA     BYTE      UART_RELL
*SFR* 000000A9H.4 DATA     BIT       UART_REN1
*SFR* 000000A9H   DATA     BIT       UART_RI
*SFR* 000000A9H.1 DATA     BIT       UART_TI
*SFR* 000000AAH   DATA     BYTE      UARTBUF
*SFR* 000000C8H.2 DATA     BIT       UARTCKEN
*SFR* 000000A9H   DATA     BYTE      UARTCON
      0000083DH   EDATA    BYTE      ucAfeRunMode
      0000007AH   EDATA    ---       ucCbValue
*SFR* 000000CCH.6 DATA     BIT       WDT_500K_EN
*SFR* 00000099H   DATA     BYTE      WDTCON
*SFR* 0000009AH   DATA     BYTE      WDTREL
*SFR* 000000A6H   DATA     BYTE      WDTRST
*SFR* 000000B0H.6 DATA     BIT       WR
*SFR* 000000CBH.3 DATA     BIT       XBUSCKEN
*SFR* 000000EFH   DATA     BYTE      XDP_STA
*SFR* 000000EAH.3 DATA     BIT       XSI_SEL
*SFR* 000000BDH.1 DATA     BIT       XSI_STA
*SFR* 000000C8H.5 DATA     BIT       XSICKEN



SYMBOL TABLE OF MODULE:  ..\output\obj\mcu (?C_START?)

      VALUE       REP       CLASS    TYPE      SYMBOL NAME
      ====================================================
      ---         MODULE    ---      ---       ?C_START?
      00FF0000H   PUBLIC    CODE     ---       ?C?STARTUP?
      00FF0000H   PUBLIC    CODE     ---       ?C_STARTUP?
      000000D0H.6 SFRSYM    DATA     BIT       AC
      000000E0H   SFRSYM    DATA     BYTE      ACC
      000000F0H   SFRSYM    DATA     BYTE      B
      000000FAH   SFRSYM    DATA     BYTE      CCAP0H
      000000EAH   SFRSYM    DATA     BYTE      CCAP0L
      000000FBH   SFRSYM    DATA     BYTE      CCAP1H
      000000EBH   SFRSYM    DATA     BYTE      CCAP1L
      000000FCH   SFRSYM    DATA     BYTE      CCAP2H
      000000ECH   SFRSYM    DATA     BYTE      CCAP2L
      000000FDH   SFRSYM    DATA     BYTE      CCAP3H
      000000EDH   SFRSYM    DATA     BYTE      CCAP3L
      000000FEH   SFRSYM    DATA     BYTE      CCAP4H
      000000EEH   SFRSYM    DATA     BYTE      CCAP4L
      000000DAH   SFRSYM    DATA     BYTE      CCAPM0
      000000DBH   SFRSYM    DATA     BYTE      CCAPM1
      000000DCH   SFRSYM    DATA     BYTE      CCAPM2
      000000DDH   SFRSYM    DATA     BYTE      CCAPM3
      000000DEH   SFRSYM    DATA     BYTE      CCAPM4
      000000D8H   SFRSYM    DATA     BIT       CCF0
      000000D8H.1 SFRSYM    DATA     BIT       CCF1
      000000D8H.2 SFRSYM    DATA     BIT       CCF2
      000000D8H.3 SFRSYM    DATA     BIT       CCF3
      000000D8H.4 SFRSYM    DATA     BIT       CCF4
      000000D8H   SFRSYM    DATA     BYTE      CCON
      00000090H.3 SFRSYM    DATA     BIT       CEX0
      00000090H.4 SFRSYM    DATA     BIT       CEX1
      00000090H.5 SFRSYM    DATA     BIT       CEX2
      00000090H.6 SFRSYM    DATA     BIT       CEX3
      00000090H.7 SFRSYM    DATA     BIT       CEX4
      000000D8H.7 SFRSYM    DATA     BIT       CF
      000000F9H   SFRSYM    DATA     BYTE      CH
      000000E9H   SFRSYM    DATA     BYTE      CL
      000000D9H   SFRSYM    DATA     BYTE      CMOD
L251 LINKER/LOCATER V4.65.0.0                                                         05/26/2017  20:22:53  PAGE 20


      000000C8H   SFRSYM    DATA     BIT       CP_RL2
      000000D8H.6 SFRSYM    DATA     BIT       CR
      000000D0H.7 SFRSYM    DATA     BIT       CY
      000000C8H.1 SFRSYM    DATA     BIT       C_T2
      00000083H   SFRSYM    DATA     BYTE      DPH
      00000082H   SFRSYM    DATA     BYTE      DPL
      00000084H   SFRSYM    DATA     BYTE      DPXL
      000000A8H.7 SFRSYM    DATA     BIT       EA
      000000A8H.6 SFRSYM    DATA     BIT       EC
      00000090H.2 SFRSYM    DATA     BIT       ECI
      000000A8H.4 SFRSYM    DATA     BIT       ES
      000000A8H.1 SFRSYM    DATA     BIT       ET0
      000000A8H.3 SFRSYM    DATA     BIT       ET1
      000000A8H.5 SFRSYM    DATA     BIT       ET2
      000000A8H   SFRSYM    DATA     BIT       EX0
      000000A8H.2 SFRSYM    DATA     BIT       EX1
      000000C8H.3 SFRSYM    DATA     BIT       EXEN2
      000000C8H.6 SFRSYM    DATA     BIT       EXF2
      000000D0H.5 SFRSYM    DATA     BIT       F0
      00000098H.7 SFRSYM    DATA     BIT       FE
      000000A8H   SFRSYM    DATA     BYTE      IE0
      00000088H.1 SFRSYM    DATA     BIT       IE0_
      000000B1H   SFRSYM    DATA     BYTE      IE1
      00000088H.3 SFRSYM    DATA     BIT       IE1_
      000000B0H.2 SFRSYM    DATA     BIT       INT0
      000000B0H.3 SFRSYM    DATA     BIT       INT1
      000000B7H   SFRSYM    DATA     BYTE      IPH0
      000000B8H   SFRSYM    DATA     BYTE      IPL0
      00000088H   SFRSYM    DATA     BIT       IT0
      00000088H.2 SFRSYM    DATA     BIT       IT1
      000000D0H.2 SFRSYM    DATA     BIT       OV
      000000D0H   SFRSYM    DATA     BIT       P
      00000080H   SFRSYM    DATA     BYTE      P0
      00000090H   SFRSYM    DATA     BYTE      P1
      000000A0H   SFRSYM    DATA     BYTE      P2
      000000B0H   SFRSYM    DATA     BYTE      P3
      00000087H   SFRSYM    DATA     BYTE      PCON
      000000B8H.6 SFRSYM    DATA     BIT       PPC
      000000B8H.4 SFRSYM    DATA     BIT       PS
      000000D0H   SFRSYM    DATA     BYTE      PSW
      000000D1H   SFRSYM    DATA     BYTE      PSW1
      000000B8H.1 SFRSYM    DATA     BIT       PT0
      000000B8H.3 SFRSYM    DATA     BIT       PT1
      000000B8H.5 SFRSYM    DATA     BIT       PT2
      000000B8H   SFRSYM    DATA     BIT       PX0
      000000B8H.2 SFRSYM    DATA     BIT       PX1
      00000098H.2 SFRSYM    DATA     BIT       RB8
      000000CBH   SFRSYM    DATA     BYTE      RCAP2H
      000000CAH   SFRSYM    DATA     BYTE      RCAP2L
      000000C8H.5 SFRSYM    DATA     BIT       RCLK
      000000B0H.7 SFRSYM    DATA     BIT       RD
      00000098H.4 SFRSYM    DATA     BIT       REN
      00000098H   SFRSYM    DATA     BIT       RI
      000000D0H.3 SFRSYM    DATA     BIT       RS0
      000000D0H.4 SFRSYM    DATA     BIT       RS1
      000000B0H   SFRSYM    DATA     BIT       RXD
      000000A9H   SFRSYM    DATA     BYTE      SADDR
      000000B9H   SFRSYM    DATA     BYTE      SADEN
      00000099H   SFRSYM    DATA     BYTE      SBUF
      00000098H   SFRSYM    DATA     BYTE      SCON
      00000098H.7 SFRSYM    DATA     BIT       SM0
      00000098H.6 SFRSYM    DATA     BIT       SM1
      00000098H.5 SFRSYM    DATA     BIT       SM2
      00000081H   SFRSYM    DATA     BYTE      SP
      000000BEH   SFRSYM    DATA     BYTE      SPH
L251 LINKER/LOCATER V4.65.0.0                                                         05/26/2017  20:22:53  PAGE 21


      000000B0H.4 SFRSYM    DATA     BIT       T0
      000000B0H.5 SFRSYM    DATA     BIT       T1
      00000090H   SFRSYM    DATA     BIT       T2
      000000C8H   SFRSYM    DATA     BYTE      T2CON
      00000090H.1 SFRSYM    DATA     BIT       T2EX
      000000C9H   SFRSYM    DATA     BYTE      T2MOD
      00000098H.3 SFRSYM    DATA     BIT       TB8
      000000C8H.4 SFRSYM    DATA     BIT       TCLK
      00000088H   SFRSYM    DATA     BYTE      TCON
      00000088H.5 SFRSYM    DATA     BIT       TF0
      00000088H.7 SFRSYM    DATA     BIT       TF1
      000000C8H.7 SFRSYM    DATA     BIT       TF2
      0000008CH   SFRSYM    DATA     BYTE      TH0
      0000008DH   SFRSYM    DATA     BYTE      TH1
      000000CDH   SFRSYM    DATA     BYTE      TH2
      00000098H.1 SFRSYM    DATA     BIT       TI
      0000008AH   SFRSYM    DATA     BYTE      TL0
      0000008BH   SFRSYM    DATA     BYTE      TL1
      000000CCH   SFRSYM    DATA     BYTE      TL2
      00000089H   SFRSYM    DATA     BYTE      TMOD
      00000088H.4 SFRSYM    DATA     BIT       TR0
      00000088H.6 SFRSYM    DATA     BIT       TR1
      000000C8H.2 SFRSYM    DATA     BIT       TR2
      000000B0H.1 SFRSYM    DATA     BIT       TXD
      000000A6H   SFRSYM    DATA     BYTE      WDTRST
      000000B0H.6 SFRSYM    DATA     BIT       WR
      0000A000H   SYMBOL    NUMBER   ---       EDATALEN
      00FF0057H   SYMBOL    CODE     ---       EDATALOOP
      00000001H   SYMBOL    NUMBER   ---       EDF
      00000001H   SYMBOL    NUMBER   ---       EMAP
      00000000H   SYMBOL    NUMBER   ---       HDATALEN
      00010000H   SYMBOL    NUMBER   ---       HDATASTART
      00000000H   SYMBOL    NUMBER   ---       IBPSTACK
      00000100H   SYMBOL    NUMBER   ---       IBPSTACKTOP
      00000001H   SYMBOL    NUMBER   ---       INTR
      00000001H   SYMBOL    NUMBER   ---       PAGM
      00000003H   SYMBOL    NUMBER   ---       RDRG
      00000001H   SYMBOL    NUMBER   ---       SRCM
      00000100H   SYMBOL    NUMBER   ---       STACKSIZE
      00FF004FH   SYMBOL    CODE     ---       STARTUP1
      00000003H   SYMBOL    NUMBER   ---       WSA
      00000003H   SYMBOL    NUMBER   ---       WSB
      00000001H   SYMBOL    NUMBER   ---       XALE
      00000000H   SYMBOL    NUMBER   ---       XBPSTACK
      00010000H   SYMBOL    NUMBER   ---       XBPSTACKTOP
      00000000H   SYMBOL    NUMBER   ---       XDATALEN
      00010000H   SYMBOL    NUMBER   ---       XDATASTART

      00FF0000H   BLOCK     CODE     NEAR LAB  LVL=0
      00FF0000H   LINE      CODE     ---       #183
      ---         BLOCKEND  ---      ---       LVL=0

      00FF004FH   BLOCK     CODE     NEAR LAB  LVL=0
      00FF004FH   LINE      CODE     ---       #188
      00FF0052H   LINE      CODE     ---       #191
      00FF0056H   LINE      CODE     ---       #192
      00FF0057H   LINE      CODE     ---       #193
      00FF005AH   LINE      CODE     ---       #194
      00FF005CH   LINE      CODE     ---       #195
      00FF005EH   LINE      CODE     ---       #235
      ---         BLOCKEND  ---      ---       LVL=0

      00FF008FH   BLOCK     CODE     NEAR LAB  LVL=0
      00FF008FH   LINE      CODE     ---       #238
      ---         BLOCKEND  ---      ---       LVL=0
L251 LINKER/LOCATER V4.65.0.0                                                         05/26/2017  20:22:53  PAGE 22



      ---         MODULE    ---      ---       main
      00FEE883H   PUBLIC    ECODE    ---       main?
      00FEE900H   PUBLIC    ECODE    ---       g_aucVerfication
      000000B6H   SFRSYM    DATA     BYTE      RTCCON1
      000000BFH   SFRSYM    DATA     BYTE      CGUCON8
      000000CEH   SFRSYM    DATA     BYTE      CGUCON6
      000000CDH   SFRSYM    DATA     BYTE      CGUCON5
      000000CCH   SFRSYM    DATA     BYTE      CGUCON4
      000000CBH   SFRSYM    DATA     BYTE      CGUCON3
      000000CAH   SFRSYM    DATA     BYTE      CGUCON2
      000000C8H   SFRSYM    DATA     BYTE      CGUCON1
      000000C9H   SFRSYM    DATA     BYTE      CGUCON0
      000000D9H   SFRSYM    DATA     BYTE      MEMBIST_ERRMAP2
      000000D8H   SFRSYM    DATA     BYTE      MEMBIST_ERRMAP1
      000000B0H   SFRSYM    DATA     BYTE      ANACON9
      000000A0H   SFRSYM    DATA     BYTE      ANACON8
      000000D5H   SFRSYM    DATA     BYTE      MEMBIST_FINISH2
      000000C7H   SFRSYM    DATA     BYTE      ANACON7
      000000D4H   SFRSYM    DATA     BYTE      MEMBIST_FINISH1
      000000E9H   SFRSYM    DATA     BYTE      SFTRST
      000000EEH   SFRSYM    DATA     BYTE      P1SEL
      000000C3H   SFRSYM    DATA     BYTE      ANACON3
      000000ECH   SFRSYM    DATA     BYTE      P0SEL
      000000C2H   SFRSYM    DATA     BYTE      ANACON2
      000000C1H   SFRSYM    DATA     BYTE      ANACON1
      000000EDH   SFRSYM    DATA     BYTE      P1MOD
      00000098H   SFRSYM    DATA     BYTE      SYSCON
      000000ADH   SFRSYM    DATA     BYTE      P1DIR
      000000EBH   SFRSYM    DATA     BYTE      P0MOD
      000000ACH   SFRSYM    DATA     BYTE      P0DIR
      00000094H   SFRSYM    DATA     BYTE      P1BUF
      00000080H   SFRSYM    DATA     BYTE      P0BUF
      000000E4H   SFRSYM    DATA     BYTE      TESTCON3
      000000E3H   SFRSYM    DATA     BYTE      TESTCON2
      000000E5H   SFRSYM    DATA     BYTE      IWKSTA
      0000009AH   SFRSYM    DATA     BYTE      WDTREL
      000000E2H   SFRSYM    DATA     BYTE      TESTCON1
      000000E1H   SFRSYM    DATA     BYTE      TESTCON0
      00000099H   SFRSYM    DATA     BYTE      WDTCON
      000000C0H   SFRSYM    DATA     BYTE      AIF
      000000E8H   SFRSYM    DATA     BYTE      AIE
      000000BDH   SFRSYM    DATA     BYTE      FT_EN_REG
      0000009EH   SFRSYM    DATA     BYTE      RTCCON
      000000FEH   SFRSYM    DATA     BYTE      LED_EN
      000000B9H   SFRSYM    DATA     BYTE      CNTCON
      000000D7H   SFRSYM    DATA     BYTE      MEMBIST_FAIL2
      000000D6H   SFRSYM    DATA     BYTE      MEMBIST_FAIL1
      000000D3H   SFRSYM    DATA     BYTE      MEMBIST_EN2
      000000D2H   SFRSYM    DATA     BYTE      MEMBIST_EN1
      0000009BH   SFRSYM    DATA     BYTE      TDIV
      000000EFH   SFRSYM    DATA     BYTE      XDP_STA
      00000088H   SFRSYM    DATA     BYTE      TCON
      00000089H   SFRSYM    DATA     BYTE      TMOD
      000000A7H   SFRSYM    DATA     BYTE      SPI0CON5
      000000B2H   SFRSYM    DATA     BYTE      SPI1CON4
      000000B1H   SFRSYM    DATA     BYTE      SPI1CON3
      000000A5H   SFRSYM    DATA     BYTE      SPI0CON3
      000000B4H   SFRSYM    DATA     BYTE      SPI1CON2
      000000EAH   SFRSYM    DATA     BYTE      ANACON
      00000087H   SFRSYM    DATA     BYTE      PCON
      000000A3H   SFRSYM    DATA     BYTE      SPI0CON2
      000000DAH   SFRSYM    DATA     BYTE      DSV_CON
      000000F8H   SFRSYM    DATA     BYTE      AIPL
      00000095H   SFRSYM    DATA     BYTE      I2CSEL
L251 LINKER/LOCATER V4.65.0.0                                                         05/26/2017  20:22:53  PAGE 23


      000000F5H   SFRSYM    DATA     BYTE      SSCG_CON0
      000000F7H   SFRSYM    DATA     BYTE      AIPH
      000000FDH   SFRSYM    DATA     BYTE      I2C_STATE
      00000090H   SFRSYM    DATA     BYTE      I2CCON
      000000A9H   SFRSYM    DATA     BYTE      UARTCON
      000000B8H   SFRSYM    DATA     BYTE      IPL0
      000000B7H   SFRSYM    DATA     BYTE      IPH0
      000000DFH   SFRSYM    DATA     BYTE      IEN1
      000000A8H   SFRSYM    DATA     BYTE      IEN0
      00000093H   SFRSYM    DATA     BYTE      I2CSTOP
      000000B3H   SFRSYM    DATA     BYTE      SPI1CON
      000000A2H   SFRSYM    DATA     BYTE      SPI0CON

      00FEE883H   BLOCK     ECODE    ---       LVL=0
      00FEE883H   LINE      ECODE    ---       #64
      00FEE883H   LINE      ECODE    ---       #67
      00FEE887H   LINE      ECODE    ---       #69
      00FEE88DH   LINE      ECODE    ---       #72
      00FEE8A4H   LINE      ECODE    ---       #73
      00FEE8B9H   LINE      ECODE    ---       #77
      00FEE8B9H   LINE      ECODE    ---       #79
      00FEE8C5H   LINE      ECODE    ---       #81
      00FEE8C5H   LINE      ECODE    ---       #82
      00FEE8C9H   LINE      ECODE    ---       #83
      00FEE8CBH   LINE      ECODE    ---       #85
      00FEE8CBH   LINE      ECODE    ---       #86
      00FEE8CFH   LINE      ECODE    ---       #87
      ---         BLOCKEND  ---      ---       LVL=0

      ---         MODULE    ---      ---       FlowFactory
      00FF17F1H   PUBLIC    ECODE    ---       Mcap_Free_Run?
      00FF0810H   PUBLIC    ECODE    ---       Afe_Clk_Init?
      00FF031EH   PUBLIC    ECODE    ---       AppReadRegMapDataTest?
      00FF130EH   PUBLIC    ECODE    ---       Afe_Init?
      00FF2691H   PUBLIC    ECODE    ---       Afe_LcdDSTBWakeUp_Test?
      00FF132EH   PUBLIC    ECODE    ---       Afe_Free_Run?
      00FF04B0H   PUBLIC    ECODE    ---       DrvGetDiffNoseMax?
      00FF24D0H   PUBLIC    ECODE    ---       Afe_LVDESDWakeUp_Stop?
      00FF256FH   PUBLIC    ECODE    ---       Afe_LcdRunWakeUp_Test?
      00FF2A53H   PUBLIC    ECODE    ---       Test_Afe_BaseRam?
      00FF040CH   PUBLIC    ECODE    ---       AppShowRawdata?
      00FF00B6H   PUBLIC    ECODE    ---       AppWriteRegMapDataTest?
      00FF1751H   PUBLIC    ECODE    ---       Afe_Free_Run_H_CB?
      00FF05F7H   PUBLIC    ECODE    ---       DrvGetRawdata?
      00FF2BDBH   PUBLIC    ECODE    ---       Test_Afe_AccRam?
      00FF14E2H   PUBLIC    ECODE    ---       Afe_Free_Run_RTC_Monitor?
      00FF1AEEH   PUBLIC    ECODE    ---       Mcap_60Hz_Run?
      00FF1D59H   PUBLIC    ECODE    ---       Afe_120Hz_Run_Monitor?
      00FF2E0DH   PUBLIC    ECODE    ---       Test_Afe_TabRam?
      00FF1953H   PUBLIC    ECODE    ---       Afe_60Hz_Run?
      00FF3057H   PUBLIC    ECODE    ---       Test_AfeReg?
      00FF1A2EH   PUBLIC    ECODE    ---       Afe_60Hz_H_Clb?
      00FF0938H   PUBLIC    ECODE    ---       Afe_Config_Init?
      00FF29BCH   PUBLIC    ECODE    ---       Test_AfeRegWrite?
      00FF12FCH   PUBLIC    ECODE    ---       Afe_Tab_Config?
      00FF297BH   PUBLIC    ECODE    ---       TestXbus?
      00FF280FH   PUBLIC    ECODE    ---       Afe_LcdRun_Changed?
      00FF0563H   PUBLIC    ECODE    ---       DrvInitAram?
      00FF233CH   PUBLIC    ECODE    ---       Afe_Lcd_WakeUp_StandBy?
      00FF04EBH   PUBLIC    ECODE    ---       DrvGetBase?
      00FF08B4H   PUBLIC    ECODE    ---       Afe_Table_Init?
      00FF058FH   PUBLIC    ECODE    ---       DrvGetAramData?
      00FF21BDH   PUBLIC    ECODE    ---       Mcap_120Hz_Run?
      00FF357EH   PUBLIC    ECODE    ---       AfeModeSelInit?
      00FF2737H   PUBLIC    ECODE    ---       Afe_ALL_WakeUpStandby?
L251 LINKER/LOCATER V4.65.0.0                                                         05/26/2017  20:22:53  PAGE 24


      00FF06E0H   PUBLIC    ECODE    ---       DrvGetRptRamRawBase?
      00FF13FDH   PUBLIC    ECODE    ---       Afe_Free_Run_Monitor?
      00FF1C5DH   PUBLIC    ECODE    ---       Afe_120Hz_Run?
      00FF0093H   PUBLIC    ECODE    ---       AppWriteReg0x01?
      00FF2944H   PUBLIC    ECODE    ---       Afe_60Hz_120Hz_Changed?
      00FF1EBAH   PUBLIC    ECODE    ---       Afe_120Hz_H_Clb?
      00FF081DH   PUBLIC    ECODE    ---       Afe_Order_Init?
      00FF050DH   PUBLIC    ECODE    ---       DrvGetDiffdata?
      00FF03EDH   PUBLIC    ECODE    ---       AppPanelParamUpdate?
      00FF1F7FH   PUBLIC    ECODE    ---       Afe_120Hz_Run_RTC_Monitor?
      00FF35DDH   PUBLIC    ECODE    ---       FlowFactory?
      00FF2428H   PUBLIC    ECODE    ---       Afe_TestOneChannelAdc?
      0000007AH   PUBLIC    EDATA    ---       ucCbValue
      0000030AH   PUBLIC    EDATA    ---       ap0
      0000030EH   PUBLIC    EDATA    WORD      s_usCbCnt
      00000310H   PUBLIC    EDATA    WORD      s_usRawCnt
      00000312H   PUBLIC    EDATA    ---       g_usRawdataBuf
      00000836H   PUBLIC    EDATA    BYTE      g_ucAramReadyFlag
      00000837H   PUBLIC    EDATA    BYTE      g_ucConvertOverFlag
      00000838H   PUBLIC    EDATA    ---       g_ucAram
      0000083CH   PUBLIC    EDATA    BYTE      g_ucFrameEndFlag
      0000083DH   PUBLIC    EDATA    BYTE      ucAfeRunMode
      0000083EH   PUBLIC    EDATA    WORD      g_usAsmIntSta
      00000840H   PUBLIC    EDATA    WORD      g_usAsmIntFlag0
      00000842H   PUBLIC    EDATA    WORD      g_usAsmSta1
      00000844H   PUBLIC    EDATA    WORD      g_usAsmIntFlag1
      00000846H   PUBLIC    EDATA    ---       s_pucOrderBuf
      00000848H   PUBLIC    EDATA    BYTE      g_ucAfeScanMode
      00000849H   PUBLIC    EDATA    ---       g_ucOrderBuf
      00000D59H   PUBLIC    EDATA    ---       g_usInfo
      00000D95H   PUBLIC    EDATA    WORD      s_usParaFlag
      00000D97H   PUBLIC    EDATA    BYTE      g_ucLcdStartFlag
      00000D98H   PUBLIC    EDATA    ---       g_usBaseBuf
      000012BCH   PUBLIC    EDATA    BYTE      g_ucAbnormalFlag
      000012BDH   PUBLIC    EDATA    ---       g_usCBBuf
      000017DDH   PUBLIC    EDATA    BYTE      g_ucState0
      000017DEH   PUBLIC    EDATA    BYTE      g_ucState1
      000017DFH   PUBLIC    EDATA    BYTE      g_ucLcdBusyFlag
      000017E0H   PUBLIC    EDATA    WORD      g_ucIntCount
      000017E2H   PUBLIC    EDATA    BYTE      g_ucLcdStopFlag
      000017E3H   PUBLIC    EDATA    BYTE      g_ucTchDetFlag
      000017E4H   PUBLIC    EDATA    ---       s_pucCbBuf
      000017E6H   PUBLIC    EDATA    WORD      s_usOrderCnt
      000017E8H   PUBLIC    EDATA    ---       s_pucRawBuf
      000017EAH   PUBLIC    EDATA    BYTE      g_ucTimeOutFlag
      000017EBH   PUBLIC    EDATA    BYTE      g_ucLcdSyncMissFlag
      000017ECH   PUBLIC    EDATA    BYTE      g_ucCbAdjOverFlag
      00000020H.0 PUBLIC    BIT      BIT       s_bPanelParamUpdated
      000000B6H   SFRSYM    DATA     BYTE      RTCCON1
      000000BFH   SFRSYM    DATA     BYTE      CGUCON8
      000000CEH   SFRSYM    DATA     BYTE      CGUCON6
      000000CDH   SFRSYM    DATA     BYTE      CGUCON5
      000000CCH   SFRSYM    DATA     BYTE      CGUCON4
      000000CBH   SFRSYM    DATA     BYTE      CGUCON3
      000000CAH   SFRSYM    DATA     BYTE      CGUCON2
      000000C8H   SFRSYM    DATA     BYTE      CGUCON1
      000000C9H   SFRSYM    DATA     BYTE      CGUCON0
      0000009EH   SFRSYM    DATA     BIT       RTC_WP
      000000D9H   SFRSYM    DATA     BYTE      MEMBIST_ERRMAP2
      000000D8H   SFRSYM    DATA     BYTE      MEMBIST_ERRMAP1
      000000CBH.5 SFRSYM    DATA     BIT       AFECKEN
      000000B0H   SFRSYM    DATA     BYTE      ANACON9
      000000A0H   SFRSYM    DATA     BYTE      ANACON8
      000000D5H   SFRSYM    DATA     BYTE      MEMBIST_FINISH2
      000000C7H   SFRSYM    DATA     BYTE      ANACON7
L251 LINKER/LOCATER V4.65.0.0                                                         05/26/2017  20:22:53  PAGE 25


      000000D4H   SFRSYM    DATA     BYTE      MEMBIST_FINISH1
      000000E9H   SFRSYM    DATA     BYTE      SFTRST
      000000EAH.7 SFRSYM    DATA     BIT       ARAM_SEL
      000000EEH   SFRSYM    DATA     BYTE      P1SEL
      000000C9H.7 SFRSYM    DATA     BIT       ASM_32K_EN
      000000C3H   SFRSYM    DATA     BYTE      ANACON3
      000000ECH   SFRSYM    DATA     BYTE      P0SEL
      000000C2H   SFRSYM    DATA     BYTE      ANACON2
      000000C1H   SFRSYM    DATA     BYTE      ANACON1
      000000EDH   SFRSYM    DATA     BYTE      P1MOD
      00000098H   SFRSYM    DATA     BYTE      SYSCON
      000000ADH   SFRSYM    DATA     BYTE      P1DIR
      000000EBH   SFRSYM    DATA     BYTE      P0MOD
      000000ACH   SFRSYM    DATA     BYTE      P0DIR
      00000094H   SFRSYM    DATA     BYTE      P1BUF
      00000080H   SFRSYM    DATA     BYTE      P0BUF
      0000009EH.7 SFRSYM    DATA     BIT       RTC_START
      000000E4H   SFRSYM    DATA     BYTE      TESTCON3
      000000E3H   SFRSYM    DATA     BYTE      TESTCON2
      000000E5H   SFRSYM    DATA     BYTE      IWKSTA
      0000009AH   SFRSYM    DATA     BYTE      WDTREL
      000000E2H   SFRSYM    DATA     BYTE      TESTCON1
      000000E1H   SFRSYM    DATA     BYTE      TESTCON0
      00000099H   SFRSYM    DATA     BYTE      WDTCON
      000000C0H   SFRSYM    DATA     BYTE      AIF
      000000E8H   SFRSYM    DATA     BYTE      AIE
      000000BDH   SFRSYM    DATA     BYTE      FT_EN_REG
      0000009EH   SFRSYM    DATA     BYTE      RTCCON
      000000FEH   SFRSYM    DATA     BYTE      LED_EN
      000000B9H   SFRSYM    DATA     BYTE      CNTCON
      000000CDH   SFRSYM    DATA     BIT       RTC_CNT_WKEN
      000000D7H   SFRSYM    DATA     BYTE      MEMBIST_FAIL2
      000000CDH.2 SFRSYM    DATA     BIT       ASM_MON_WKEN
      000000D6H   SFRSYM    DATA     BYTE      MEMBIST_FAIL1
      000000CBH.2 SFRSYM    DATA     BIT       AFESCKEN
      000000BFH.7 SFRSYM    DATA     BIT       SEL_32K_SRC
      000000D3H   SFRSYM    DATA     BYTE      MEMBIST_EN2
      000000D2H   SFRSYM    DATA     BYTE      MEMBIST_EN1
      0000009BH   SFRSYM    DATA     BYTE      TDIV
      000000B6H   SFRSYM    DATA     BIT       LCD_START_EN
      000000EFH   SFRSYM    DATA     BYTE      XDP_STA
      000000CDH.4 SFRSYM    DATA     BIT       LCD_TIM_WKEN
      00000088H   SFRSYM    DATA     BYTE      TCON
      00000089H   SFRSYM    DATA     BYTE      TMOD
      000000A7H   SFRSYM    DATA     BYTE      SPI0CON5
      000000B2H   SFRSYM    DATA     BYTE      SPI1CON4
      000000B1H   SFRSYM    DATA     BYTE      SPI1CON3
      000000A5H   SFRSYM    DATA     BYTE      SPI0CON3
      000000B4H   SFRSYM    DATA     BYTE      SPI1CON2
      000000EAH   SFRSYM    DATA     BYTE      ANACON
      000000CDH.5 SFRSYM    DATA     BIT       LCD_LVD_WKEN
      00000087H   SFRSYM    DATA     BYTE      PCON
      000000A3H   SFRSYM    DATA     BYTE      SPI0CON2
      000000CAH.2 SFRSYM    DATA     BIT       AFEACKEN
      000000DAH   SFRSYM    DATA     BYTE      DSV_CON
      0000009EH.4 SFRSYM    DATA     BIT       RTC_CLR
      000000CDH.6 SFRSYM    DATA     BIT       LCD_ESD_WKEN
      000000F8H   SFRSYM    DATA     BYTE      AIPL
      000000EFH.3 SFRSYM    DATA     BIT       ESD_STA
      00000095H   SFRSYM    DATA     BYTE      I2CSEL
      0000009EH.5 SFRSYM    DATA     BIT       RTC_START_STA
      000000F5H   SFRSYM    DATA     BYTE      SSCG_CON0
      000000F7H   SFRSYM    DATA     BYTE      AIPH
      000000FDH   SFRSYM    DATA     BYTE      I2C_STATE
      00000090H   SFRSYM    DATA     BYTE      I2CCON
L251 LINKER/LOCATER V4.65.0.0                                                         05/26/2017  20:22:53  PAGE 26


      000000A9H   SFRSYM    DATA     BYTE      UARTCON
      000000C8H.5 SFRSYM    DATA     BIT       XSICKEN
      000000B8H   SFRSYM    DATA     BYTE      IPL0
      00000080H.4 SFRSYM    DATA     BIT       P0_4
      000000B7H   SFRSYM    DATA     BYTE      IPH0
      000000DFH   SFRSYM    DATA     BYTE      IEN1
      000000A8H   SFRSYM    DATA     BYTE      IEN0
      00000093H   SFRSYM    DATA     BYTE      I2CSTOP
      000000A8H.7 SFRSYM    DATA     BIT       EA
      000000B3H   SFRSYM    DATA     BYTE      SPI1CON
      000000A2H   SFRSYM    DATA     BYTE      SPI0CON

      00FF0093H   BLOCK     ECODE    ---       LVL=0
      R11         REGSYM    ---      BYTE      ucData
      00FF0093H   LINE      ECODE    ---       #137
      00FF0093H   LINE      ECODE    ---       #139
      00FF009AH   LINE      ECODE    ---       #141
      00FF009AH   LINE      ECODE    ---       #143
      00FF00A0H   LINE      ECODE    ---       #144
      00FF00A1H   LINE      ECODE    ---       #146
      00FF00A1H   LINE      ECODE    ---       #148
      00FF00A9H   LINE      ECODE    ---       #149
      00FF00AFH   LINE      ECODE    ---       #150
      00FF00B5H   LINE      ECODE    ---       #151
      00FF00B5H   LINE      ECODE    ---       #154
      00FF00B5H   LINE      ECODE    ---       #156
      00FF00B5H   LINE      ECODE    ---       #158
      00FF00B5H   LINE      ECODE    ---       #159
      ---         BLOCKEND  ---      ---       LVL=0

      00FF00B6H   BLOCK     ECODE    ---       LVL=0
      R7          REGSYM    ---      BYTE      ucAddr
      R6          REGSYM    ---      BYTE      ucData
      00FF00BAH   BLOCK     ECODE    NEAR LAB  LVL=1
      WR2         REGSYM    ---      WORD      usBufAddr
      ---         BLOCKEND  ---      ---       LVL=1
      00FF00B6H   LINE      ECODE    ---       #168
      00FF00BAH   LINE      ECODE    ---       #169
      00FF00BAH   LINE      ECODE    ---       #173
      00FF00BEH   LINE      ECODE    ---       #175
      00FF00C4H   LINE      ECODE    ---       #176
      00FF00C4H   LINE      ECODE    ---       #179
      00FF00C8H   LINE      ECODE    ---       #181
      00FF00CCH   LINE      ECODE    ---       #182
      00FF00D2H   LINE      ECODE    ---       #183
      00FF00D2H   LINE      ECODE    ---       #184
      00FF00DAH   LINE      ECODE    ---       #186
      00FF00DEH   LINE      ECODE    ---       #189
      00FF00F1H   LINE      ECODE    ---       #192
      00FF00F1H   LINE      ECODE    ---       #193
      00FF00F1H   LINE      ECODE    ---       #196
      00FF011CH   LINE      ECODE    ---       #201
      00FF011CH   LINE      ECODE    ---       #202
      00FF011CH   LINE      ECODE    ---       #203
      00FF011CH   LINE      ECODE    ---       #204
      00FF011CH   LINE      ECODE    ---       #205
      00FF011CH   LINE      ECODE    ---       #206
      00FF011CH   LINE      ECODE    ---       #207
      00FF011CH   LINE      ECODE    ---       #208
      00FF011CH   LINE      ECODE    ---       #210
      00FF0122H   LINE      ECODE    ---       #212
      00FF01D2H   LINE      ECODE    ---       #214
      00FF01D2H   LINE      ECODE    ---       #215
      00FF01D2H   LINE      ECODE    ---       #216
      00FF01D2H   LINE      ECODE    ---       #217
L251 LINKER/LOCATER V4.65.0.0                                                         05/26/2017  20:22:53  PAGE 27


      00FF01D2H   LINE      ECODE    ---       #218
      00FF01D2H   LINE      ECODE    ---       #219
      00FF01D2H   LINE      ECODE    ---       #221
      00FF01D4H   LINE      ECODE    ---       #222
      00FF01D6H   LINE      ECODE    ---       #225
      00FF01D6H   LINE      ECODE    ---       #228
      00FF01D6H   LINE      ECODE    ---       #231
      00FF01D6H   LINE      ECODE    ---       #232
      00FF01D6H   LINE      ECODE    ---       #233
      00FF01D6H   LINE      ECODE    ---       #235
      00FF01DDH   LINE      ECODE    ---       #236
      00FF01DFH   LINE      ECODE    ---       #239
      00FF01DFH   LINE      ECODE    ---       #241
      00FF01E6H   LINE      ECODE    ---       #242
      00FF01E8H   LINE      ECODE    ---       #245
      00FF01E8H   LINE      ECODE    ---       #247
      00FF01EFH   LINE      ECODE    ---       #248
      00FF01F1H   LINE      ECODE    ---       #251
      00FF01F1H   LINE      ECODE    ---       #253
      00FF01F8H   LINE      ECODE    ---       #254
      00FF01FAH   LINE      ECODE    ---       #257
      00FF01FAH   LINE      ECODE    ---       #259
      00FF0201H   LINE      ECODE    ---       #260
      00FF0203H   LINE      ECODE    ---       #263
      00FF0203H   LINE      ECODE    ---       #265
      00FF020EH   LINE      ECODE    ---       #266
      00FF0210H   LINE      ECODE    ---       #270
      00FF0210H   LINE      ECODE    ---       #272
      00FF0220H   LINE      ECODE    ---       #273
      00FF0222H   LINE      ECODE    ---       #277
      00FF0222H   LINE      ECODE    ---       #279
      00FF0232H   LINE      ECODE    ---       #280
      00FF0234H   LINE      ECODE    ---       #284
      00FF0234H   LINE      ECODE    ---       #286
      00FF0246H   LINE      ECODE    ---       #287
      00FF0246H   LINE      ECODE    ---       #290
      00FF0246H   LINE      ECODE    ---       #292
      00FF0246H   LINE      ECODE    ---       #294
      00FF0246H   LINE      ECODE    ---       #296
      00FF0250H   LINE      ECODE    ---       #299
      00FF025CH   LINE      ECODE    ---       #301
      00FF0267H   LINE      ECODE    ---       #302
      00FF0267H   LINE      ECODE    ---       #305
      00FF026CH   LINE      ECODE    ---       #307
      00FF0277H   LINE      ECODE    ---       #308
      00FF0277H   LINE      ECODE    ---       #310
      00FF0280H   LINE      ECODE    ---       #312
      00FF028BH   LINE      ECODE    ---       #313
      00FF028CH   LINE      ECODE    ---       #316
      00FF0295H   LINE      ECODE    ---       #318
      00FF02A0H   LINE      ECODE    ---       #319
      00FF02A0H   LINE      ECODE    ---       #320
      00FF02A9H   LINE      ECODE    ---       #321
      00FF02ABH   LINE      ECODE    ---       #323
      00FF02B4H   LINE      ECODE    ---       #324
      00FF02B4H   LINE      ECODE    ---       #326
      00FF02B8H   LINE      ECODE    ---       #328
      00FF02BBH   LINE      ECODE    ---       #329
      00FF02BCH   LINE      ECODE    ---       #332
      00FF02C5H   LINE      ECODE    ---       #334
      00FF02D0H   LINE      ECODE    ---       #335
      00FF02E0H   LINE      ECODE    ---       #336
      00FF02E5H   LINE      ECODE    ---       #337
      00FF02E7H   LINE      ECODE    ---       #339
      00FF02EEH   LINE      ECODE    ---       #340
L251 LINKER/LOCATER V4.65.0.0                                                         05/26/2017  20:22:53  PAGE 28


      00FF02EEH   LINE      ECODE    ---       #341
      00FF02F9H   LINE      ECODE    ---       #343
      00FF0309H   LINE      ECODE    ---       #344
      00FF0309H   LINE      ECODE    ---       #345
      00FF0316H   LINE      ECODE    ---       #346
      00FF031AH   LINE      ECODE    ---       #348
      00FF031DH   LINE      ECODE    ---       #349
      00FF031DH   LINE      ECODE    ---       #351
      ---         BLOCKEND  ---      ---       LVL=0

      00FF031EH   BLOCK     ECODE    ---       LVL=0
      R7          REGSYM    ---      BYTE      ucAddr
      00FF0320H   BLOCK     ECODE    NEAR LAB  LVL=1
      R10         REGSYM    ---      BYTE      ucData
      00FF03C9H   BLOCK     ECODE    NEAR LAB  LVL=2
      ---         BLOCKEND  ---      ---       LVL=2
      ---         BLOCKEND  ---      ---       LVL=1
      00FF031EH   LINE      ECODE    ---       #360
      00FF0320H   LINE      ECODE    ---       #361
      00FF0320H   LINE      ECODE    ---       #365
      00FF0325H   LINE      ECODE    ---       #367
      00FF032CH   LINE      ECODE    ---       #368
      00FF032CH   LINE      ECODE    ---       #370
      00FF0335H   LINE      ECODE    ---       #372
      00FF0348H   LINE      ECODE    ---       #373
      00FF034CH   LINE      ECODE    ---       #375
      00FF034FH   LINE      ECODE    ---       #376
      00FF034FH   LINE      ECODE    ---       #377
      00FF0352H   LINE      ECODE    ---       #378
      00FF0352H   LINE      ECODE    ---       #380
      00FF035BH   LINE      ECODE    ---       #383
      00FF0367H   LINE      ECODE    ---       #385
      00FF0371H   LINE      ECODE    ---       #386
      00FF0373H   LINE      ECODE    ---       #389
      00FF037AH   LINE      ECODE    ---       #390
      00FF037AH   LINE      ECODE    ---       #391
      00FF0380H   LINE      ECODE    ---       #392
      00FF0384H   LINE      ECODE    ---       #394
      00FF0387H   LINE      ECODE    ---       #395
      00FF0387H   LINE      ECODE    ---       #396
      00FF038AH   LINE      ECODE    ---       #397
      00FF038AH   LINE      ECODE    ---       #400
      00FF0393H   LINE      ECODE    ---       #402
      00FF03AAH   LINE      ECODE    ---       #403
      00FF03AEH   LINE      ECODE    ---       #405
      00FF03B1H   LINE      ECODE    ---       #406
      00FF03B1H   LINE      ECODE    ---       #407
      00FF03B4H   LINE      ECODE    ---       #408
      00FF03B4H   LINE      ECODE    ---       #410
      00FF03BEH   LINE      ECODE    ---       #413
      00FF03C0H   LINE      ECODE    ---       #414
      00FF03C0H   LINE      ECODE    ---       #417
      00FF03C9H   LINE      ECODE    ---       #418
      00FF03C9H   LINE      ECODE    ---       #420
      00FF03C9H   LINE      ECODE    ---       #423
      00FF03DCH   LINE      ECODE    ---       #425
      00FF03E1H   LINE      ECODE    ---       #426
      00FF03E5H   LINE      ECODE    ---       #428
      00FF03E8H   LINE      ECODE    ---       #429
      00FF03E8H   LINE      ECODE    ---       #431
      00FF03EBH   LINE      ECODE    ---       #432
      00FF03EBH   LINE      ECODE    ---       #436
      00FF03ECH   LINE      ECODE    ---       #437
      00FF03ECH   LINE      ECODE    ---       #438
      ---         BLOCKEND  ---      ---       LVL=0
L251 LINKER/LOCATER V4.65.0.0                                                         05/26/2017  20:22:53  PAGE 29



      00FF03EDH   BLOCK     ECODE    ---       LVL=0
      00FF03EDH   LINE      ECODE    ---       #440
      00FF03EDH   LINE      ECODE    ---       #442
      00FF03F5H   LINE      ECODE    ---       #443
      00FF03FDH   LINE      ECODE    ---       #444
      00FF0405H   LINE      ECODE    ---       #445
      00FF040BH   LINE      ECODE    ---       #446
      ---         BLOCKEND  ---      ---       LVL=0

      00FF040CH   BLOCK     ECODE    ---       LVL=0
      00FF040EH   BLOCK     ECODE    NEAR LAB  LVL=1
      WR14        REGSYM    ---      WORD      i
      ---         BLOCKEND  ---      ---       LVL=1
      00FF040CH   LINE      ECODE    ---       #448
      00FF040EH   LINE      ECODE    ---       #449
      00FF040EH   LINE      ECODE    ---       #453
      00FF0410H   LINE      ECODE    ---       #455
      00FF0416H   LINE      ECODE    ---       #457
      00FF0422H   LINE      ECODE    ---       #460
      00FF042EH   LINE      ECODE    ---       #461
      00FF042EH   LINE      ECODE    ---       #462
      00FF0445H   LINE      ECODE    ---       #463
      00FF044DH   LINE      ECODE    ---       #467
      00FF0459H   LINE      ECODE    ---       #468
      00FF045BH   LINE      ECODE    ---       #470
      00FF0475H   LINE      ECODE    ---       #471
      00FF047DH   LINE      ECODE    ---       #474
      00FF0489H   LINE      ECODE    ---       #475
      00FF048BH   LINE      ECODE    ---       #477
      00FF04A5H   LINE      ECODE    ---       #478
      00FF04ADH   LINE      ECODE    ---       #479
      ---         BLOCKEND  ---      ---       LVL=0

      00FF04B0H   BLOCK     ECODE    ---       LVL=0
      WR0         REGSYM    ---      WORD      DiffMaxLTP
      WR2         REGSYM    ---      WORD      DiffMaxRTP
      WR4         REGSYM    ---      WORD      DiffMaxLKey
      WR6         REGSYM    ---      WORD      DiffMaxRKey
      00FF04B0H   LINE      ECODE    ---       #481
      00FF04B0H   LINE      ECODE    ---       #482
      00FF04B0H   LINE      ECODE    ---       #488
      00FF04B3H   LINE      ECODE    ---       #489
      00FF04BBH   LINE      ECODE    ---       #491
      00FF04C3H   LINE      ECODE    ---       #492
      00FF04C7H   LINE      ECODE    ---       #493
      00FF04CBH   LINE      ECODE    ---       #494
      00FF04CFH   LINE      ECODE    ---       #496
      00FF04E7H   LINE      ECODE    ---       #497
      00FF04EAH   LINE      ECODE    ---       #498
      ---         BLOCKEND  ---      ---       LVL=0

      00FF04EBH   BLOCK     ECODE    ---       LVL=0
      WR6         REGSYM    ---      WORD      i
      00FF04EBH   LINE      ECODE    ---       #500
      00FF04EBH   LINE      ECODE    ---       #501
      00FF04EBH   LINE      ECODE    ---       #504
      00FF04EDH   LINE      ECODE    ---       #506
      00FF04F9H   LINE      ECODE    ---       #507
      00FF0501H   LINE      ECODE    ---       #508
      ---         BLOCKEND  ---      ---       LVL=0

      00FF050DH   BLOCK     ECODE    ---       LVL=0
      00FF050FH   BLOCK     ECODE    NEAR LAB  LVL=1
      WR14        REGSYM    ---      WORD      i
L251 LINKER/LOCATER V4.65.0.0                                                         05/26/2017  20:22:53  PAGE 30


      WR12        REGSYM    ---      INT       diff
      ---         BLOCKEND  ---      ---       LVL=1
      00FF050DH   LINE      ECODE    ---       #511
      00FF050FH   LINE      ECODE    ---       #512
      00FF050FH   LINE      ECODE    ---       #516
      00FF051BH   LINE      ECODE    ---       #518
      00FF051DH   LINE      ECODE    ---       #520
      00FF052BH   LINE      ECODE    ---       #521
      00FF0531H   LINE      ECODE    ---       #523
      00FF053DH   LINE      ECODE    ---       #525
      00FF0549H   LINE      ECODE    ---       #526
      00FF0549H   LINE      ECODE    ---       #527
      00FF0558H   LINE      ECODE    ---       #528
      00FF0560H   LINE      ECODE    ---       #530
      ---         BLOCKEND  ---      ---       LVL=0

      00FF0563H   BLOCK     ECODE    ---       LVL=0
      WR4         REGSYM    ---      WORD      i
      00FF0563H   LINE      ECODE    ---       #532
      00FF0563H   LINE      ECODE    ---       #533
      00FF0563H   LINE      ECODE    ---       #536
      00FF0566H   LINE      ECODE    ---       #537
      00FF0568H   LINE      ECODE    ---       #539
      00FF0570H   LINE      ECODE    ---       #542
      00FF0574H   LINE      ECODE    ---       #544
      00FF0581H   LINE      ECODE    ---       #545
      00FF0589H   LINE      ECODE    ---       #546
      00FF058BH   LINE      ECODE    ---       #547
      00FF058EH   LINE      ECODE    ---       #548
      ---         BLOCKEND  ---      ---       LVL=0

      00FF058FH   BLOCK     ECODE    ---       LVL=0
      WR6         REGSYM    ---      WORD      i
      00FF058FH   LINE      ECODE    ---       #550
      00FF058FH   LINE      ECODE    ---       #551
      00FF058FH   LINE      ECODE    ---       #554
      00FF0592H   LINE      ECODE    ---       #555
      00FF0594H   LINE      ECODE    ---       #557
      00FF059CH   LINE      ECODE    ---       #560
      00FF059EH   LINE      ECODE    ---       #562
      00FF05A0H   LINE      ECODE    ---       #563
      00FF05B1H   LINE      ECODE    ---       #564
      00FF05B9H   LINE      ECODE    ---       #567
      00FF05BBH   LINE      ECODE    ---       #569
      00FF05CDH   LINE      ECODE    ---       #570
      00FF05D5H   LINE      ECODE    ---       #573
      00FF05D7H   LINE      ECODE    ---       #575
      00FF05E9H   LINE      ECODE    ---       #576
      00FF05F1H   LINE      ECODE    ---       #578
      00FF05F4H   LINE      ECODE    ---       #579
      00FF05F6H   LINE      ECODE    ---       #580
      ---         BLOCKEND  ---      ---       LVL=0

      00FF05F7H   BLOCK     ECODE    ---       LVL=0
      00FF05F9H   BLOCK     ECODE    NEAR LAB  LVL=1
      WR14        REGSYM    ---      WORD      i
      ---         BLOCKEND  ---      ---       LVL=1
      00FF05F7H   LINE      ECODE    ---       #582
      00FF05F9H   LINE      ECODE    ---       #583
      00FF05F9H   LINE      ECODE    ---       #586
      00FF05FCH   LINE      ECODE    ---       #587
      00FF05FEH   LINE      ECODE    ---       #589
      00FF0606H   LINE      ECODE    ---       #592
      00FF0608H   LINE      ECODE    ---       #594
      00FF060AH   LINE      ECODE    ---       #595
L251 LINKER/LOCATER V4.65.0.0                                                         05/26/2017  20:22:53  PAGE 31


      00FF061BH   LINE      ECODE    ---       #596
      00FF0621H   LINE      ECODE    ---       #598
      00FF062DH   LINE      ECODE    ---       #601
      00FF0639H   LINE      ECODE    ---       #602
      00FF0639H   LINE      ECODE    ---       #603
      00FF0650H   LINE      ECODE    ---       #604
      00FF0658H   LINE      ECODE    ---       #608
      00FF0664H   LINE      ECODE    ---       #609
      00FF0666H   LINE      ECODE    ---       #611
      00FF0678H   LINE      ECODE    ---       #612
      00FF0692H   LINE      ECODE    ---       #613
      00FF069AH   LINE      ECODE    ---       #616
      00FF06A6H   LINE      ECODE    ---       #617
      00FF06A8H   LINE      ECODE    ---       #619
      00FF06BAH   LINE      ECODE    ---       #620
      00FF06D0H   LINE      ECODE    ---       #621
      00FF06D8H   LINE      ECODE    ---       #623
      00FF06DBH   LINE      ECODE    ---       #624
      00FF06DDH   LINE      ECODE    ---       #625
      ---         BLOCKEND  ---      ---       LVL=0

      00FF06E0H   BLOCK     ECODE    ---       LVL=0
      00FF06E2H   BLOCK     ECODE    NEAR LAB  LVL=1
      WR14        REGSYM    ---      WORD      j
      WR14        REGSYM    ---      WORD      i
      000017EDH   SYMBOL    EDATA    WORD      getBaseCount
      00001D38H   SYMBOL    EDATA    ---       ausBaseBufL
      00001FC8H   SYMBOL    EDATA    ---       ausBaseBufR
      ---         BLOCKEND  ---      ---       LVL=1
      00FF06E0H   LINE      ECODE    ---       #636
      00FF06E2H   LINE      ECODE    ---       #637
      00FF06E2H   LINE      ECODE    ---       #645
      00FF06E8H   LINE      ECODE    ---       #647
      00FF0700H   LINE      ECODE    ---       #648
      00FF0718H   LINE      ECODE    ---       #650
      00FF0724H   LINE      ECODE    ---       #653
      00FF0726H   LINE      ECODE    ---       #655
      00FF0732H   LINE      ECODE    ---       #657
      00FF073EH   LINE      ECODE    ---       #658
      00FF073EH   LINE      ECODE    ---       #662
      00FF0755H   LINE      ECODE    ---       #665
      00FF075DH   LINE      ECODE    ---       #676
      00FF0767H   LINE      ECODE    ---       #677
      00FF0776H   LINE      ECODE    ---       #680
      00FF0783H   LINE      ECODE    ---       #682
      00FF0785H   LINE      ECODE    ---       #684
      00FF0791H   LINE      ECODE    ---       #685
      00FF079DH   LINE      ECODE    ---       #687
      00FF07A9H   LINE      ECODE    ---       #688
      00FF07A9H   LINE      ECODE    ---       #689
      00FF07C0H   LINE      ECODE    ---       #690
      00FF07C8H   LINE      ECODE    ---       #692
      00FF07CAH   LINE      ECODE    ---       #694
      00FF07D6H   LINE      ECODE    ---       #695
      00FF07E2H   LINE      ECODE    ---       #697
      00FF07EEH   LINE      ECODE    ---       #698
      00FF07EEH   LINE      ECODE    ---       #699
      00FF0805H   LINE      ECODE    ---       #700
      00FF080DH   LINE      ECODE    ---       #701
      ---         BLOCKEND  ---      ---       LVL=0

      00FF0810H   BLOCK     ECODE    ---       LVL=0
      00FF0810H   LINE      ECODE    ---       #738
      00FF0810H   LINE      ECODE    ---       #740
      00FF0813H   LINE      ECODE    ---       #741
L251 LINKER/LOCATER V4.65.0.0                                                         05/26/2017  20:22:53  PAGE 32


      00FF0816H   LINE      ECODE    ---       #742
      00FF0819H   LINE      ECODE    ---       #743
      00FF081CH   LINE      ECODE    ---       #751
      ---         BLOCKEND  ---      ---       LVL=0

      00FF081DH   BLOCK     ECODE    ---       LVL=0
      WR6         REGSYM    ---      INT       i
      WR28        REGSYM    ---      WORD      len
      0000180CH   SYMBOL    EDATA    ---       Buf
      00FF081DH   LINE      ECODE    ---       #760
      00FF081DH   LINE      ECODE    ---       #761
      00FF081DH   LINE      ECODE    ---       #768
      00FF081FH   LINE      ECODE    ---       #770
      00FF0827H   LINE      ECODE    ---       #771
      00FF082FH   LINE      ECODE    ---       #774
      00FF0831H   LINE      ECODE    ---       #776
      00FF083FH   LINE      ECODE    ---       #777
      00FF0847H   LINE      ECODE    ---       #779
      00FF084DH   LINE      ECODE    ---       #782
      00FF0851H   LINE      ECODE    ---       #783
      00FF0855H   LINE      ECODE    ---       #787
      00FF0861H   LINE      ECODE    ---       #788
      00FF0867H   LINE      ECODE    ---       #789
      00FF087DH   LINE      ECODE    ---       #790
      00FF0893H   LINE      ECODE    ---       #793
      00FF0897H   LINE      ECODE    ---       #794
      00FF089BH   LINE      ECODE    ---       #798
      00FF08ADH   LINE      ECODE    ---       #799
      00FF08B3H   LINE      ECODE    ---       #854
      ---         BLOCKEND  ---      ---       LVL=0

      00FF08B4H   BLOCK     ECODE    ---       LVL=0
      00FF08B6H   BLOCK     ECODE    NEAR LAB  LVL=1
      R15         REGSYM    ---      BYTE      i
      0000180CH   SYMBOL    EDATA    ---       aus_tabbuf
      ---         BLOCKEND  ---      ---       LVL=1
      00FF08B4H   LINE      ECODE    ---       #865
      00FF08B6H   LINE      ECODE    ---       #866
      00FF08B6H   LINE      ECODE    ---       #870
      00FF08C3H   LINE      ECODE    ---       #873
      00FF08CAH   LINE      ECODE    ---       #875
      00FF08D2H   LINE      ECODE    ---       #876
      00FF08D9H   LINE      ECODE    ---       #883
      00FF08E1H   LINE      ECODE    ---       #884
      00FF08E5H   LINE      ECODE    ---       #885
      00FF08E9H   LINE      ECODE    ---       #886
      00FF08EDH   LINE      ECODE    ---       #890
      00FF08F2H   LINE      ECODE    ---       #892
      00FF08F4H   LINE      ECODE    ---       #894
      00FF0911H   LINE      ECODE    ---       #895
      00FF092EH   LINE      ECODE    ---       #896
      00FF0935H   LINE      ECODE    ---       #897
      ---         BLOCKEND  ---      ---       LVL=0

      00FF0938H   BLOCK     ECODE    ---       LVL=0
      00FF0938H   LINE      ECODE    ---       #906
      00FF0938H   LINE      ECODE    ---       #907
      00FF0938H   LINE      ECODE    ---       #908
      00FF0938H   LINE      ECODE    ---       #909
      00FF0938H   LINE      ECODE    ---       #918
      00FF0949H   LINE      ECODE    ---       #919
      00FF0956H   LINE      ECODE    ---       #921
      00FF0967H   LINE      ECODE    ---       #922
      00FF0974H   LINE      ECODE    ---       #924
      00FF0985H   LINE      ECODE    ---       #925
L251 LINKER/LOCATER V4.65.0.0                                                         05/26/2017  20:22:53  PAGE 33


      00FF0992H   LINE      ECODE    ---       #927
      00FF09A3H   LINE      ECODE    ---       #928
      00FF09B0H   LINE      ECODE    ---       #930
      00FF09C1H   LINE      ECODE    ---       #931
      00FF09CEH   LINE      ECODE    ---       #933
      00FF09DFH   LINE      ECODE    ---       #934
      00FF09ECH   LINE      ECODE    ---       #936
      00FF09FDH   LINE      ECODE    ---       #937
      00FF0A0AH   LINE      ECODE    ---       #939
      00FF0A19H   LINE      ECODE    ---       #940
      00FF0A26H   LINE      ECODE    ---       #942
      00FF0A37H   LINE      ECODE    ---       #943
      00FF0A44H   LINE      ECODE    ---       #945
      00FF0A53H   LINE      ECODE    ---       #946
      00FF0A60H   LINE      ECODE    ---       #948
      00FF0A6DH   LINE      ECODE    ---       #949
      00FF0A7AH   LINE      ECODE    ---       #951
      00FF0A87H   LINE      ECODE    ---       #952
      00FF0A94H   LINE      ECODE    ---       #954
      00FF0AA5H   LINE      ECODE    ---       #955
      00FF0AB2H   LINE      ECODE    ---       #957
      00FF0AC3H   LINE      ECODE    ---       #958
      00FF0AD0H   LINE      ECODE    ---       #960
      00FF0AE1H   LINE      ECODE    ---       #961
      00FF0AEEH   LINE      ECODE    ---       #963
      00FF0AFFH   LINE      ECODE    ---       #964
      00FF0B0CH   LINE      ECODE    ---       #966
      00FF0B1DH   LINE      ECODE    ---       #967
      00FF0B2AH   LINE      ECODE    ---       #969
      00FF0B39H   LINE      ECODE    ---       #970
      00FF0B46H   LINE      ECODE    ---       #972
      00FF0B53H   LINE      ECODE    ---       #973
      00FF0B60H   LINE      ECODE    ---       #975
      00FF0B6DH   LINE      ECODE    ---       #976
      00FF0B7AH   LINE      ECODE    ---       #978
      00FF0B87H   LINE      ECODE    ---       #979
      00FF0B94H   LINE      ECODE    ---       #981
      00FF0BA1H   LINE      ECODE    ---       #982
      00FF0BAEH   LINE      ECODE    ---       #984
      00FF0BBBH   LINE      ECODE    ---       #985
      00FF0BC8H   LINE      ECODE    ---       #987
      00FF0BD5H   LINE      ECODE    ---       #988
      00FF0BE2H   LINE      ECODE    ---       #990
      00FF0BEFH   LINE      ECODE    ---       #991
      00FF0BFCH   LINE      ECODE    ---       #993
      00FF0C0DH   LINE      ECODE    ---       #994
      00FF0C1AH   LINE      ECODE    ---       #996
      00FF0C27H   LINE      ECODE    ---       #997
      00FF0C34H   LINE      ECODE    ---       #999
      00FF0C41H   LINE      ECODE    ---       #1000
      00FF0C4EH   LINE      ECODE    ---       #1002
      00FF0C5FH   LINE      ECODE    ---       #1003
      00FF0C6CH   LINE      ECODE    ---       #1005
      00FF0C7DH   LINE      ECODE    ---       #1006
      00FF0C8AH   LINE      ECODE    ---       #1008
      00FF0C9BH   LINE      ECODE    ---       #1009
      00FF0CA8H   LINE      ECODE    ---       #1011
      00FF0CB9H   LINE      ECODE    ---       #1012
      00FF0CC6H   LINE      ECODE    ---       #1014
      00FF0CD7H   LINE      ECODE    ---       #1015
      00FF0CE4H   LINE      ECODE    ---       #1017
      00FF0CF5H   LINE      ECODE    ---       #1018
      00FF0D02H   LINE      ECODE    ---       #1020
      00FF0D13H   LINE      ECODE    ---       #1021
      00FF0D20H   LINE      ECODE    ---       #1023
L251 LINKER/LOCATER V4.65.0.0                                                         05/26/2017  20:22:53  PAGE 34


      00FF0D31H   LINE      ECODE    ---       #1024
      00FF0D3EH   LINE      ECODE    ---       #1026
      00FF0D4DH   LINE      ECODE    ---       #1027
      00FF0D5AH   LINE      ECODE    ---       #1029
      00FF0D67H   LINE      ECODE    ---       #1030
      00FF0D74H   LINE      ECODE    ---       #1032
      00FF0D81H   LINE      ECODE    ---       #1033
      00FF0D8EH   LINE      ECODE    ---       #1035
      00FF0D9BH   LINE      ECODE    ---       #1036
      00FF0DA8H   LINE      ECODE    ---       #1039
      00FF0DB5H   LINE      ECODE    ---       #1040
      00FF0DC2H   LINE      ECODE    ---       #1042
      00FF0DCFH   LINE      ECODE    ---       #1043
      00FF0DDCH   LINE      ECODE    ---       #1045
      00FF0DE9H   LINE      ECODE    ---       #1046
      00FF0DF6H   LINE      ECODE    ---       #1048
      00FF0E03H   LINE      ECODE    ---       #1049
      00FF0E10H   LINE      ECODE    ---       #1053
      00FF0E1DH   LINE      ECODE    ---       #1054
      00FF0E2AH   LINE      ECODE    ---       #1056
      00FF0E37H   LINE      ECODE    ---       #1057
      00FF0E44H   LINE      ECODE    ---       #1059
      00FF0E51H   LINE      ECODE    ---       #1060
      00FF0E5EH   LINE      ECODE    ---       #1062
      00FF0E6BH   LINE      ECODE    ---       #1063
      00FF0E78H   LINE      ECODE    ---       #1065
      00FF0E89H   LINE      ECODE    ---       #1066
      00FF0E96H   LINE      ECODE    ---       #1068
      00FF0EA5H   LINE      ECODE    ---       #1069
      00FF0EB2H   LINE      ECODE    ---       #1071
      00FF0EBFH   LINE      ECODE    ---       #1072
      00FF0ECCH   LINE      ECODE    ---       #1074
      00FF0ED9H   LINE      ECODE    ---       #1075
      00FF0EE6H   LINE      ECODE    ---       #1077
      00FF0EF3H   LINE      ECODE    ---       #1078
      00FF0F00H   LINE      ECODE    ---       #1080
      00FF0F11H   LINE      ECODE    ---       #1081
      00FF0F1EH   LINE      ECODE    ---       #1083
      00FF0F2FH   LINE      ECODE    ---       #1084
      00FF0F3CH   LINE      ECODE    ---       #1086
      00FF0F4DH   LINE      ECODE    ---       #1087
      00FF0F5AH   LINE      ECODE    ---       #1089
      00FF0F6BH   LINE      ECODE    ---       #1090
      00FF0F78H   LINE      ECODE    ---       #1092
      00FF0F87H   LINE      ECODE    ---       #1093
      00FF0F94H   LINE      ECODE    ---       #1095
      00FF0FA1H   LINE      ECODE    ---       #1096
      00FF0FAEH   LINE      ECODE    ---       #1098
      00FF0FBBH   LINE      ECODE    ---       #1099
      00FF0FC8H   LINE      ECODE    ---       #1101
      00FF0FD5H   LINE      ECODE    ---       #1102
      00FF0FE2H   LINE      ECODE    ---       #1104
      00FF0FEFH   LINE      ECODE    ---       #1105
      00FF0FFCH   LINE      ECODE    ---       #1107
      00FF1009H   LINE      ECODE    ---       #1108
      00FF1016H   LINE      ECODE    ---       #1111
      00FF1027H   LINE      ECODE    ---       #1112
      00FF1034H   LINE      ECODE    ---       #1114
      00FF1043H   LINE      ECODE    ---       #1115
      00FF1050H   LINE      ECODE    ---       #1117
      00FF1061H   LINE      ECODE    ---       #1118
      00FF106EH   LINE      ECODE    ---       #1120
      00FF107FH   LINE      ECODE    ---       #1121
      00FF108CH   LINE      ECODE    ---       #1123
      00FF109BH   LINE      ECODE    ---       #1124
L251 LINKER/LOCATER V4.65.0.0                                                         05/26/2017  20:22:53  PAGE 35


      00FF10A8H   LINE      ECODE    ---       #1126
      00FF10B5H   LINE      ECODE    ---       #1127
      00FF10C2H   LINE      ECODE    ---       #1129
      00FF10CFH   LINE      ECODE    ---       #1130
      00FF10DCH   LINE      ECODE    ---       #1132
      00FF10E9H   LINE      ECODE    ---       #1133
      00FF10F6H   LINE      ECODE    ---       #1135
      00FF1107H   LINE      ECODE    ---       #1136
      00FF1114H   LINE      ECODE    ---       #1138
      00FF1123H   LINE      ECODE    ---       #1139
      00FF1130H   LINE      ECODE    ---       #1141
      00FF1141H   LINE      ECODE    ---       #1142
      00FF114EH   LINE      ECODE    ---       #1144
      00FF115FH   LINE      ECODE    ---       #1145
      00FF116CH   LINE      ECODE    ---       #1147
      00FF117DH   LINE      ECODE    ---       #1148
      00FF118AH   LINE      ECODE    ---       #1150
      00FF119BH   LINE      ECODE    ---       #1151
      00FF11A8H   LINE      ECODE    ---       #1153
      00FF11B9H   LINE      ECODE    ---       #1154
      00FF11C6H   LINE      ECODE    ---       #1156
      00FF11D7H   LINE      ECODE    ---       #1157
      00FF11E4H   LINE      ECODE    ---       #1159
      00FF11F5H   LINE      ECODE    ---       #1160
      00FF1202H   LINE      ECODE    ---       #1162
      00FF1213H   LINE      ECODE    ---       #1163
      00FF1220H   LINE      ECODE    ---       #1165
      00FF1231H   LINE      ECODE    ---       #1166
      00FF123EH   LINE      ECODE    ---       #1168
      00FF124FH   LINE      ECODE    ---       #1169
      00FF125CH   LINE      ECODE    ---       #1171
      00FF126DH   LINE      ECODE    ---       #1172
      00FF127AH   LINE      ECODE    ---       #1174
      00FF128BH   LINE      ECODE    ---       #1175
      00FF1298H   LINE      ECODE    ---       #1177
      00FF12A9H   LINE      ECODE    ---       #1178
      00FF12B6H   LINE      ECODE    ---       #1180
      00FF12C7H   LINE      ECODE    ---       #1181
      00FF12D4H   LINE      ECODE    ---       #1183
      00FF12E3H   LINE      ECODE    ---       #1184
      00FF12F0H   LINE      ECODE    ---       #1200
      00FF12F4H   LINE      ECODE    ---       #1201
      ---         BLOCKEND  ---      ---       LVL=0

      00FF12FCH   BLOCK     ECODE    ---       LVL=0
      00FF12FCH   LINE      ECODE    ---       #1216
      00FF12FCH   LINE      ECODE    ---       #1218
      00FF12FEH   LINE      ECODE    ---       #1220
      00FF1302H   LINE      ECODE    ---       #1221
      00FF1306H   LINE      ECODE    ---       #1222
      00FF130AH   LINE      ECODE    ---       #1223
      ---         BLOCKEND  ---      ---       LVL=0

      00FF130EH   BLOCK     ECODE    ---       LVL=0
      00FF130EH   LINE      ECODE    ---       #1234
      00FF130EH   LINE      ECODE    ---       #1236
      00FF1312H   LINE      ECODE    ---       #1238
      00FF1316H   LINE      ECODE    ---       #1240
      00FF131AH   LINE      ECODE    ---       #1242
      00FF131EH   LINE      ECODE    ---       #1244
      00FF1322H   LINE      ECODE    ---       #1246
      ---         BLOCKEND  ---      ---       LVL=0

      00FF132EH   BLOCK     ECODE    ---       LVL=0
      000017EFH   SYMBOL    EDATA    INT       getBaseCount
L251 LINKER/LOCATER V4.65.0.0                                                         05/26/2017  20:22:53  PAGE 36


      000017F1H   SYMBOL    EDATA    INT       FristStart
      00FF132EH   LINE      ECODE    ---       #1257
      00FF132EH   LINE      ECODE    ---       #1258
      00FF132EH   LINE      ECODE    ---       #1262
      00FF132EH   LINE      ECODE    ---       #1264
      00FF132EH   LINE      ECODE    ---       #1265
      00FF133FH   LINE      ECODE    ---       #1266
      00FF134CH   LINE      ECODE    ---       #1282
      00FF1353H   LINE      ECODE    ---       #1288
      00FF135BH   LINE      ECODE    ---       #1289
      00FF1363H   LINE      ECODE    ---       #1290
      00FF136BH   LINE      ECODE    ---       #1292
      00FF1370H   LINE      ECODE    ---       #1294
      00FF1373H   LINE      ECODE    ---       #1296
      00FF1377H   LINE      ECODE    ---       #1298
      00FF1381H   LINE      ECODE    ---       #1315
      00FF1385H   LINE      ECODE    ---       #1323
      00FF1385H   LINE      ECODE    ---       #1325
      00FF138BH   LINE      ECODE    ---       #1326
      00FF1390H   LINE      ECODE    ---       #1327
      00FF13AAH   LINE      ECODE    ---       #1328
      00FF13C1H   LINE      ECODE    ---       #1334
      00FF13C5H   LINE      ECODE    ---       #1336
      00FF13C9H   LINE      ECODE    ---       #1338
      00FF13CDH   LINE      ECODE    ---       #1342
      00FF13D1H   LINE      ECODE    ---       #1345
      00FF13D5H   LINE      ECODE    ---       #1349
      00FF13DFH   LINE      ECODE    ---       #1350
      00FF13E5H   LINE      ECODE    ---       #1352
      00FF13E9H   LINE      ECODE    ---       #1353
      00FF13E9H   LINE      ECODE    ---       #1359
      00FF13F3H   LINE      ECODE    ---       #1360
      00FF13FCH   LINE      ECODE    ---       #1361
      ---         BLOCKEND  ---      ---       LVL=0

      00FF13FDH   BLOCK     ECODE    ---       LVL=0
      000017F3H   SYMBOL    EDATA    WORD      usScanCount
      000017F5H   SYMBOL    EDATA    BYTE      ucConfigOne
      00FF13FDH   LINE      ECODE    ---       #1370
      00FF13FDH   LINE      ECODE    ---       #1371
      00FF13FDH   LINE      ECODE    ---       #1376
      00FF13FDH   LINE      ECODE    ---       #1377
      00FF140EH   LINE      ECODE    ---       #1378
      00FF141BH   LINE      ECODE    ---       #1386
      00FF141FH   LINE      ECODE    ---       #1387
      00FF142BH   LINE      ECODE    ---       #1390
      00FF1433H   LINE      ECODE    ---       #1392
      00FF143BH   LINE      ECODE    ---       #1393
      00FF1443H   LINE      ECODE    ---       #1396
      00FF144BH   LINE      ECODE    ---       #1399
      00FF144EH   LINE      ECODE    ---       #1401
      00FF1454H   LINE      ECODE    ---       #1402
      00FF1458H   LINE      ECODE    ---       #1404
      00FF145DH   LINE      ECODE    ---       #1416
      00FF1461H   LINE      ECODE    ---       #1421
      00FF1467H   LINE      ECODE    ---       #1422
      00FF146CH   LINE      ECODE    ---       #1425
      00FF1483H   LINE      ECODE    ---       #1426
      00FF149AH   LINE      ECODE    ---       #1427
      00FF14A6H   LINE      ECODE    ---       #1429
      00FF14AAH   LINE      ECODE    ---       #1433
      00FF14B1H   LINE      ECODE    ---       #1435
      00FF14B6H   LINE      ECODE    ---       #1437
      00FF14BEH   LINE      ECODE    ---       #1438
      00FF14C6H   LINE      ECODE    ---       #1439
L251 LINKER/LOCATER V4.65.0.0                                                         05/26/2017  20:22:53  PAGE 37


      00FF14C6H   LINE      ECODE    ---       #1443
      00FF14CEH   LINE      ECODE    ---       #1445
      00FF14D8H   LINE      ECODE    ---       #1446
      00FF14E1H   LINE      ECODE    ---       #1447
      ---         BLOCKEND  ---      ---       LVL=0

      00FF14E2H   BLOCK     ECODE    ---       LVL=0
      WR30        REGSYM    ---      WORD      usConfigValue
      WR6         REGSYM    ---      WORD      ucData
      00FF14E2H   LINE      ECODE    ---       #1457
      00FF14E2H   LINE      ECODE    ---       #1458
      00FF14E2H   LINE      ECODE    ---       #1461
      00FF14E2H   LINE      ECODE    ---       #1463
      00FF14E5H   LINE      ECODE    ---       #1467
      00FF14F4H   LINE      ECODE    ---       #1468
      00FF14F8H   LINE      ECODE    ---       #1470
      00FF14FCH   LINE      ECODE    ---       #1471
      00FF150AH   LINE      ECODE    ---       #1472
      00FF1517H   LINE      ECODE    ---       #1475
      00FF1523H   LINE      ECODE    ---       #1478
      00FF152CH   LINE      ECODE    ---       #1484
      00FF152FH   LINE      ECODE    ---       #1485
      00FF1534H   LINE      ECODE    ---       #1488
      00FF1537H   LINE      ECODE    ---       #1489
      00FF153AH   LINE      ECODE    ---       #1490
      00FF153EH   LINE      ECODE    ---       #1493
      00FF154AH   LINE      ECODE    ---       #1494
      00FF154AH   LINE      ECODE    ---       #1495
      00FF155BH   LINE      ECODE    ---       #1496
      00FF1568H   LINE      ECODE    ---       #1499
      00FF1576H   LINE      ECODE    ---       #1502
      00FF157AH   LINE      ECODE    ---       #1505
      00FF1587H   LINE      ECODE    ---       #1506
      00FF1596H   LINE      ECODE    ---       #1508
      00FF15A3H   LINE      ECODE    ---       #1509
      00FF15B2H   LINE      ECODE    ---       #1511
      00FF15B4H   LINE      ECODE    ---       #1512
      00FF15BCH   LINE      ECODE    ---       #1513
      00FF15BEH   LINE      ECODE    ---       #1514
      00FF15C6H   LINE      ECODE    ---       #1515
      00FF15C8H   LINE      ECODE    ---       #1516
      00FF15D0H   LINE      ECODE    ---       #1519
      00FF15D3H   LINE      ECODE    ---       #1521
      00FF15DFH   LINE      ECODE    ---       #1523
      00FF15E7H   LINE      ECODE    ---       #1525
      00FF15EBH   LINE      ECODE    ---       #1527
      00FF15F0H   LINE      ECODE    ---       #1528
      00FF15F6H   LINE      ECODE    ---       #1529
      00FF15FAH   LINE      ECODE    ---       #1530
      00FF15FEH   LINE      ECODE    ---       #1533
      00FF1604H   LINE      ECODE    ---       #1538
      00FF160CH   LINE      ECODE    ---       #1544
      00FF160FH   LINE      ECODE    ---       #1545
      00FF1612H   LINE      ECODE    ---       #1547
      00FF1612H   LINE      ECODE    ---       #1550
      00FF1618H   LINE      ECODE    ---       #1551
      00FF161AH   LINE      ECODE    ---       #1552
      00FF1622H   LINE      ECODE    ---       #1553
      00FF1624H   LINE      ECODE    ---       #1554
      00FF1627H   LINE      ECODE    ---       #1555
      00FF162AH   LINE      ECODE    ---       #1556
      00FF162AH   LINE      ECODE    ---       #1557
      00FF162AH   LINE      ECODE    ---       #1560
      00FF162DH   LINE      ECODE    ---       #1561
      00FF1630H   LINE      ECODE    ---       #1562
L251 LINKER/LOCATER V4.65.0.0                                                         05/26/2017  20:22:53  PAGE 38


      00FF1633H   LINE      ECODE    ---       #1564
      00FF1639H   LINE      ECODE    ---       #1567
      00FF163EH   LINE      ECODE    ---       #1568
      00FF1641H   LINE      ECODE    ---       #1569
      00FF1644H   LINE      ECODE    ---       #1570
      00FF1647H   LINE      ECODE    ---       #1572
      00FF1649H   LINE      ECODE    ---       #1573
      00FF164DH   LINE      ECODE    ---       #1574
      00FF1650H   LINE      ECODE    ---       #1575
      00FF1653H   LINE      ECODE    ---       #1577
      00FF165FH   LINE      ECODE    ---       #1580
      00FF166EH   LINE      ECODE    ---       #1582
      00FF1676H   LINE      ECODE    ---       #1584
      00FF1692H   LINE      ECODE    ---       #1586
      00FF169EH   LINE      ECODE    ---       #1587
      00FF16B8H   LINE      ECODE    ---       #1588
      00FF16CDH   LINE      ECODE    ---       #1590
      00FF16D5H   LINE      ECODE    ---       #1591
      00FF16E6H   LINE      ECODE    ---       #1593
      00FF16F9H   LINE      ECODE    ---       #1594
      00FF16FBH   LINE      ECODE    ---       #1597
      00FF16FBH   LINE      ECODE    ---       #1599
      00FF1704H   LINE      ECODE    ---       #1601
      00FF1717H   LINE      ECODE    ---       #1602
      00FF171FH   LINE      ECODE    ---       #1603
      00FF171FH   LINE      ECODE    ---       #1605
      00FF1724H   LINE      ECODE    ---       #1606
      00FF1728H   LINE      ECODE    ---       #1607
      00FF1734H   LINE      ECODE    ---       #1609
      00FF1738H   LINE      ECODE    ---       #1611
      00FF173DH   LINE      ECODE    ---       #1612
      00FF1743H   LINE      ECODE    ---       #1613
      00FF1747H   LINE      ECODE    ---       #1615
      00FF174FH   LINE      ECODE    ---       #1616
      ---         BLOCKEND  ---      ---       LVL=0

      00FF1751H   BLOCK     ECODE    ---       LVL=0
      00FF1751H   LINE      ECODE    ---       #1628
      00FF1751H   LINE      ECODE    ---       #1629
      00FF1751H   LINE      ECODE    ---       #1630
      00FF1751H   LINE      ECODE    ---       #1651
      00FF175CH   LINE      ECODE    ---       #1654
      00FF176DH   LINE      ECODE    ---       #1655
      00FF177AH   LINE      ECODE    ---       #1658
      00FF177FH   LINE      ECODE    ---       #1659
      00FF1783H   LINE      ECODE    ---       #1660
      00FF1789H   LINE      ECODE    ---       #1665
      00FF1792H   LINE      ECODE    ---       #1668
      00FF1798H   LINE      ECODE    ---       #1671
      00FF17A2H   LINE      ECODE    ---       #1674
      00FF17ACH   LINE      ECODE    ---       #1676
      00FF17B4H   LINE      ECODE    ---       #1677
      00FF17BCH   LINE      ECODE    ---       #1678
      00FF17C4H   LINE      ECODE    ---       #1683
      00FF17C8H   LINE      ECODE    ---       #1685
      00FF17CEH   LINE      ECODE    ---       #1687
      00FF17D3H   LINE      ECODE    ---       #1689
      00FF17DBH   LINE      ECODE    ---       #1691
      00FF17DFH   LINE      ECODE    ---       #1693
      00FF17E3H   LINE      ECODE    ---       #1746
      00FF17EFH   LINE      ECODE    ---       #1747
      ---         BLOCKEND  ---      ---       LVL=0

      00FF17F1H   BLOCK     ECODE    ---       LVL=0
      00FF17F3H   BLOCK     ECODE    NEAR LAB  LVL=1
L251 LINKER/LOCATER V4.65.0.0                                                         05/26/2017  20:22:53  PAGE 39


      000017F6H   SYMBOL    EDATA    INT       getBaseCount
      000017F8H   SYMBOL    EDATA    INT       FristStart
      WR30        REGSYM    ---      WORD      usConfigValue
      R15         REGSYM    ---      BYTE      ucTestMode
      R14         REGSYM    ---      BYTE      ucScanNum
      WR12        REGSYM    ---      WORD      i
      ---         BLOCKEND  ---      ---       LVL=1
      00FF17F1H   LINE      ECODE    ---       #1757
      00FF17F3H   LINE      ECODE    ---       #1758
      00FF17F3H   LINE      ECODE    ---       #1765
      00FF17F3H   LINE      ECODE    ---       #1766
      00FF17F3H   LINE      ECODE    ---       #1767
      00FF17F6H   LINE      ECODE    ---       #1768
      00FF17F9H   LINE      ECODE    ---       #1771
      00FF1805H   LINE      ECODE    ---       #1774
      00FF1805H   LINE      ECODE    ---       #1775
      00FF1816H   LINE      ECODE    ---       #1776
      00FF1823H   LINE      ECODE    ---       #1780
      00FF1832H   LINE      ECODE    ---       #1781
      00FF1836H   LINE      ECODE    ---       #1783
      00FF183AH   LINE      ECODE    ---       #1784
      00FF1848H   LINE      ECODE    ---       #1785
      00FF1855H   LINE      ECODE    ---       #1787
      00FF1864H   LINE      ECODE    ---       #1791
      00FF186DH   LINE      ECODE    ---       #1794
      00FF1875H   LINE      ECODE    ---       #1796
      00FF187DH   LINE      ECODE    ---       #1799
      00FF1885H   LINE      ECODE    ---       #1800
      00FF188DH   LINE      ECODE    ---       #1802
      00FF1892H   LINE      ECODE    ---       #1805
      00FF1895H   LINE      ECODE    ---       #1806
      00FF1898H   LINE      ECODE    ---       #1807
      00FF189CH   LINE      ECODE    ---       #1850
      00FF189FH   LINE      ECODE    ---       #1855
      00FF18A2H   LINE      ECODE    ---       #1856
      00FF18A4H   LINE      ECODE    ---       #1858
      00FF18B0H   LINE      ECODE    ---       #1859
      00FF18B8H   LINE      ECODE    ---       #1860
      00FF18BBH   LINE      ECODE    ---       #1863
      00FF18BFH   LINE      ECODE    ---       #1865
      00FF18C5H   LINE      ECODE    ---       #1866
      00FF18CAH   LINE      ECODE    ---       #1867
      00FF18D6H   LINE      ECODE    ---       #1869
      00FF18DFH   LINE      ECODE    ---       #1870
      00FF18EAH   LINE      ECODE    ---       #1872
      00FF18FFH   LINE      ECODE    ---       #1873
      00FF190BH   LINE      ECODE    ---       #1874
      00FF190EH   LINE      ECODE    ---       #1877
      00FF1915H   LINE      ECODE    ---       #1879
      00FF1921H   LINE      ECODE    ---       #1881
      00FF1924H   LINE      ECODE    ---       #1882
      00FF1927H   LINE      ECODE    ---       #1885
      00FF1930H   LINE      ECODE    ---       #1886
      00FF1930H   LINE      ECODE    ---       #1887
      00FF1933H   LINE      ECODE    ---       #1891
      00FF1937H   LINE      ECODE    ---       #1893
      00FF1937H   LINE      ECODE    ---       #1894
      00FF1937H   LINE      ECODE    ---       #1895
      00FF193BH   LINE      ECODE    ---       #1898
      00FF193FH   LINE      ECODE    ---       #1900
      00FF1947H   LINE      ECODE    ---       #1902
      00FF1950H   LINE      ECODE    ---       #1903
      ---         BLOCKEND  ---      ---       LVL=0

      00FF1953H   BLOCK     ECODE    ---       LVL=0
L251 LINKER/LOCATER V4.65.0.0                                                         05/26/2017  20:22:53  PAGE 40


      000017FAH   SYMBOL    EDATA    INT       FristStart
      00FF1953H   LINE      ECODE    ---       #1912
      00FF1953H   LINE      ECODE    ---       #1913
      00FF1953H   LINE      ECODE    ---       #1917
      00FF1953H   LINE      ECODE    ---       #1918
      00FF1964H   LINE      ECODE    ---       #1919
      00FF1971H   LINE      ECODE    ---       #1921
      00FF1979H   LINE      ECODE    ---       #1922
      00FF1981H   LINE      ECODE    ---       #1923
      00FF1989H   LINE      ECODE    ---       #1924
      00FF1991H   LINE      ECODE    ---       #1925
      00FF1999H   LINE      ECODE    ---       #1926
      00FF19A1H   LINE      ECODE    ---       #1932
      00FF19B6H   LINE      ECODE    ---       #1935
      00FF19BEH   LINE      ECODE    ---       #1937
      00FF19C2H   LINE      ECODE    ---       #1939
      00FF19C7H   LINE      ECODE    ---       #1944
      00FF19CAH   LINE      ECODE    ---       #1946
      00FF19D7H   LINE      ECODE    ---       #1948
      00FF19DBH   LINE      ECODE    ---       #1950
      00FF19E0H   LINE      ECODE    ---       #1952
      00FF19E6H   LINE      ECODE    ---       #1954
      00FF19F9H   LINE      ECODE    ---       #1956
      00FF1A01H   LINE      ECODE    ---       #1958
      00FF1A05H   LINE      ECODE    ---       #1960
      00FF1A0DH   LINE      ECODE    ---       #1961
      00FF1A15H   LINE      ECODE    ---       #1962
      00FF1A15H   LINE      ECODE    ---       #1964
      00FF1A1FH   LINE      ECODE    ---       #1965
      00FF1A2DH   LINE      ECODE    ---       #1966
      ---         BLOCKEND  ---      ---       LVL=0

      00FF1A2EH   BLOCK     ECODE    ---       LVL=0
      00FF1A2EH   LINE      ECODE    ---       #1974
      00FF1A2EH   LINE      ECODE    ---       #1993
      00FF1A38H   LINE      ECODE    ---       #1996
      00FF1A38H   LINE      ECODE    ---       #1998
      00FF1A38H   LINE      ECODE    ---       #2002
      00FF1A3CH   LINE      ECODE    ---       #2003
      00FF1A3CH   LINE      ECODE    ---       #2006
      00FF1A4DH   LINE      ECODE    ---       #2007
      00FF1A5AH   LINE      ECODE    ---       #2010
      00FF1A5FH   LINE      ECODE    ---       #2011
      00FF1A63H   LINE      ECODE    ---       #2012
      00FF1A69H   LINE      ECODE    ---       #2015
      00FF1A6DH   LINE      ECODE    ---       #2018
      00FF1A73H   LINE      ECODE    ---       #2021
      00FF1A7BH   LINE      ECODE    ---       #2024
      00FF1A85H   LINE      ECODE    ---       #2026
      00FF1A8DH   LINE      ECODE    ---       #2027
      00FF1A95H   LINE      ECODE    ---       #2029
      00FF1A9DH   LINE      ECODE    ---       #2034
      00FF1AA1H   LINE      ECODE    ---       #2036
      00FF1AA7H   LINE      ECODE    ---       #2038
      00FF1AACH   LINE      ECODE    ---       #2040
      00FF1AB4H   LINE      ECODE    ---       #2042
      00FF1AB8H   LINE      ECODE    ---       #2044
      00FF1ABCH   LINE      ECODE    ---       #2047
      00FF1AC4H   LINE      ECODE    ---       #2048
      00FF1AC8H   LINE      ECODE    ---       #2049
      00FF1AD0H   LINE      ECODE    ---       #2053
      00FF1ADCH   LINE      ECODE    ---       #2054
      00FF1AE0H   LINE      ECODE    ---       #2097
      00FF1AECH   LINE      ECODE    ---       #2098
      ---         BLOCKEND  ---      ---       LVL=0
L251 LINKER/LOCATER V4.65.0.0                                                         05/26/2017  20:22:53  PAGE 41



      00FF1AEEH   BLOCK     ECODE    ---       LVL=0
      00FF1AF0H   BLOCK     ECODE    NEAR LAB  LVL=1
      000017FCH   SYMBOL    EDATA    INT       getBaseCount
      000017FEH   SYMBOL    EDATA    INT       FristStart
      WR30        REGSYM    ---      WORD      usConfigValue
      R13         REGSYM    ---      BYTE      ucTabId
      R15         REGSYM    ---      BYTE      ucTestMode
      R14         REGSYM    ---      BYTE      ucScanNum
      R10         REGSYM    ---      BYTE      ucScanMode
      WR12        REGSYM    ---      WORD      i
      ---         BLOCKEND  ---      ---       LVL=1
      00FF1AEEH   LINE      ECODE    ---       #2108
      00FF1AF0H   LINE      ECODE    ---       #2109
      00FF1AF0H   LINE      ECODE    ---       #2113
      00FF1AF0H   LINE      ECODE    ---       #2114
      00FF1AF3H   LINE      ECODE    ---       #2115
      00FF1AF6H   LINE      ECODE    ---       #2116
      00FF1AF9H   LINE      ECODE    ---       #2117
      00FF1AFBH   LINE      ECODE    ---       #2120
      00FF1AFBH   LINE      ECODE    ---       #2122
      00FF1AFBH   LINE      ECODE    ---       #2126
      00FF1AFFH   LINE      ECODE    ---       #2127
      00FF1AFFH   LINE      ECODE    ---       #2129
      00FF1B09H   LINE      ECODE    ---       #2131
      00FF1B09H   LINE      ECODE    ---       #2132
      00FF1B1AH   LINE      ECODE    ---       #2133
      00FF1B27H   LINE      ECODE    ---       #2137
      00FF1B36H   LINE      ECODE    ---       #2138
      00FF1B3AH   LINE      ECODE    ---       #2140
      00FF1B3EH   LINE      ECODE    ---       #2141
      00FF1B4CH   LINE      ECODE    ---       #2142
      00FF1B59H   LINE      ECODE    ---       #2144
      00FF1B68H   LINE      ECODE    ---       #2148
      00FF1B6FH   LINE      ECODE    ---       #2150
      00FF1B78H   LINE      ECODE    ---       #2152
      00FF1B80H   LINE      ECODE    ---       #2154
      00FF1B88H   LINE      ECODE    ---       #2155
      00FF1B90H   LINE      ECODE    ---       #2156
      00FF1B98H   LINE      ECODE    ---       #2158
      00FF1B9DH   LINE      ECODE    ---       #2161
      00FF1BA0H   LINE      ECODE    ---       #2162
      00FF1BA3H   LINE      ECODE    ---       #2163
      00FF1BA7H   LINE      ECODE    ---       #2167
      00FF1BAAH   LINE      ECODE    ---       #2171
      00FF1BADH   LINE      ECODE    ---       #2172
      00FF1BAFH   LINE      ECODE    ---       #2174
      00FF1BBBH   LINE      ECODE    ---       #2175
      00FF1BC3H   LINE      ECODE    ---       #2176
      00FF1BC6H   LINE      ECODE    ---       #2179
      00FF1BCAH   LINE      ECODE    ---       #2181
      00FF1BD0H   LINE      ECODE    ---       #2182
      00FF1BD5H   LINE      ECODE    ---       #2183
      00FF1BE1H   LINE      ECODE    ---       #2185
      00FF1BEAH   LINE      ECODE    ---       #2186
      00FF1BF5H   LINE      ECODE    ---       #2188
      00FF1C0AH   LINE      ECODE    ---       #2189
      00FF1C16H   LINE      ECODE    ---       #2190
      00FF1C19H   LINE      ECODE    ---       #2194
      00FF1C20H   LINE      ECODE    ---       #2196
      00FF1C2CH   LINE      ECODE    ---       #2198
      00FF1C2FH   LINE      ECODE    ---       #2199
      00FF1C32H   LINE      ECODE    ---       #2202
      00FF1C3BH   LINE      ECODE    ---       #2203
      00FF1C3BH   LINE      ECODE    ---       #2204
L251 LINKER/LOCATER V4.65.0.0                                                         05/26/2017  20:22:53  PAGE 42


      00FF1C3EH   LINE      ECODE    ---       #2207
      00FF1C42H   LINE      ECODE    ---       #2208
      00FF1C42H   LINE      ECODE    ---       #2210
      00FF1C42H   LINE      ECODE    ---       #2212
      00FF1C46H   LINE      ECODE    ---       #2217
      00FF1C4EH   LINE      ECODE    ---       #2218
      00FF1C5AH   LINE      ECODE    ---       #2220
      ---         BLOCKEND  ---      ---       LVL=0

      00FF1C5DH   BLOCK     ECODE    ---       LVL=0
      00001800H   SYMBOL    EDATA    INT       FristStart
      00FF1C5DH   LINE      ECODE    ---       #2229
      00FF1C5DH   LINE      ECODE    ---       #2230
      00FF1C5DH   LINE      ECODE    ---       #2235
      00FF1C5DH   LINE      ECODE    ---       #2236
      00FF1C6EH   LINE      ECODE    ---       #2237
      00FF1C7BH   LINE      ECODE    ---       #2244
      00FF1C83H   LINE      ECODE    ---       #2245
      00FF1C8BH   LINE      ECODE    ---       #2246
      00FF1C93H   LINE      ECODE    ---       #2247
      00FF1C9BH   LINE      ECODE    ---       #2248
      00FF1CA3H   LINE      ECODE    ---       #2249
      00FF1CABH   LINE      ECODE    ---       #2250
      00FF1CB3H   LINE      ECODE    ---       #2253
      00FF1CBBH   LINE      ECODE    ---       #2255
      00FF1CBFH   LINE      ECODE    ---       #2301
      00FF1CD2H   LINE      ECODE    ---       #2310
      00FF1CDAH   LINE      ECODE    ---       #2312
      00FF1CDEH   LINE      ECODE    ---       #2314
      00FF1CE3H   LINE      ECODE    ---       #2320
      00FF1CE6H   LINE      ECODE    ---       #2322
      00FF1CF3H   LINE      ECODE    ---       #2324
      00FF1CF7H   LINE      ECODE    ---       #2326
      00FF1CFCH   LINE      ECODE    ---       #2337
      00FF1D02H   LINE      ECODE    ---       #2338
      00FF1D1CH   LINE      ECODE    ---       #2344
      00FF1D24H   LINE      ECODE    ---       #2346
      00FF1D28H   LINE      ECODE    ---       #2347
      00FF1D2CH   LINE      ECODE    ---       #2348
      00FF1D30H   LINE      ECODE    ---       #2352
      00FF1D38H   LINE      ECODE    ---       #2353
      00FF1D40H   LINE      ECODE    ---       #2354
      00FF1D40H   LINE      ECODE    ---       #2356
      00FF1D4AH   LINE      ECODE    ---       #2357
      00FF1D58H   LINE      ECODE    ---       #2363
      ---         BLOCKEND  ---      ---       LVL=0

      00FF1D59H   BLOCK     ECODE    ---       LVL=0
      00001802H   SYMBOL    EDATA    INT       FristStart
      00FF1D59H   LINE      ECODE    ---       #2372
      00FF1D59H   LINE      ECODE    ---       #2373
      00FF1D59H   LINE      ECODE    ---       #2377
      00FF1D5DH   LINE      ECODE    ---       #2380
      00FF1D5DH   LINE      ECODE    ---       #2381
      00FF1D6EH   LINE      ECODE    ---       #2382
      00FF1D7BH   LINE      ECODE    ---       #2390
      00FF1D7FH   LINE      ECODE    ---       #2392
      00FF1D96H   LINE      ECODE    ---       #2393
      00FF1DADH   LINE      ECODE    ---       #2394
      00FF1DC4H   LINE      ECODE    ---       #2396
      00FF1DD5H   LINE      ECODE    ---       #2398
      00FF1DE1H   LINE      ECODE    ---       #2400
      00FF1DE9H   LINE      ECODE    ---       #2401
      00FF1DF1H   LINE      ECODE    ---       #2402
      00FF1DF9H   LINE      ECODE    ---       #2406
L251 LINKER/LOCATER V4.65.0.0                                                         05/26/2017  20:22:53  PAGE 43


      00FF1DFEH   LINE      ECODE    ---       #2408
      00FF1E01H   LINE      ECODE    ---       #2410
      00FF1E0EH   LINE      ECODE    ---       #2412
      00FF1E14H   LINE      ECODE    ---       #2413
      00FF1E18H   LINE      ECODE    ---       #2414
      00FF1E2FH   LINE      ECODE    ---       #2415
      00FF1E46H   LINE      ECODE    ---       #2416
      00FF1E5DH   LINE      ECODE    ---       #2417
      00FF1E69H   LINE      ECODE    ---       #2419
      00FF1E6DH   LINE      ECODE    ---       #2421
      00FF1E72H   LINE      ECODE    ---       #2423
      00FF1E78H   LINE      ECODE    ---       #2425
      00FF1E80H   LINE      ECODE    ---       #2426
      00FF1E84H   LINE      ECODE    ---       #2427
      00FF1E8CH   LINE      ECODE    ---       #2429
      00FF1E94H   LINE      ECODE    ---       #2431
      00FF1E9EH   LINE      ECODE    ---       #2433
      00FF1E9EH   LINE      ECODE    ---       #2435
      00FF1EA8H   LINE      ECODE    ---       #2436
      00FF1EB9H   LINE      ECODE    ---       #2438
      ---         BLOCKEND  ---      ---       LVL=0

      00FF1EBAH   BLOCK     ECODE    ---       LVL=0
      00FF1EBAH   LINE      ECODE    ---       #2447
      00FF1EBAH   LINE      ECODE    ---       #2466
      00FF1EC4H   LINE      ECODE    ---       #2470
      00FF1EC4H   LINE      ECODE    ---       #2472
      00FF1EC4H   LINE      ECODE    ---       #2476
      00FF1EC8H   LINE      ECODE    ---       #2477
      00FF1EC8H   LINE      ECODE    ---       #2480
      00FF1ED9H   LINE      ECODE    ---       #2481
      00FF1EE6H   LINE      ECODE    ---       #2484
      00FF1EEBH   LINE      ECODE    ---       #2485
      00FF1EEFH   LINE      ECODE    ---       #2486
      00FF1EF5H   LINE      ECODE    ---       #2489
      00FF1EFEH   LINE      ECODE    ---       #2492
      00FF1F04H   LINE      ECODE    ---       #2495
      00FF1F0EH   LINE      ECODE    ---       #2498
      00FF1F16H   LINE      ECODE    ---       #2500
      00FF1F1EH   LINE      ECODE    ---       #2501
      00FF1F26H   LINE      ECODE    ---       #2503
      00FF1F2EH   LINE      ECODE    ---       #2508
      00FF1F32H   LINE      ECODE    ---       #2510
      00FF1F38H   LINE      ECODE    ---       #2512
      00FF1F3DH   LINE      ECODE    ---       #2514
      00FF1F45H   LINE      ECODE    ---       #2516
      00FF1F49H   LINE      ECODE    ---       #2518
      00FF1F4DH   LINE      ECODE    ---       #2521
      00FF1F55H   LINE      ECODE    ---       #2522
      00FF1F59H   LINE      ECODE    ---       #2523
      00FF1F61H   LINE      ECODE    ---       #2527
      00FF1F6DH   LINE      ECODE    ---       #2528
      00FF1F71H   LINE      ECODE    ---       #2569
      00FF1F7DH   LINE      ECODE    ---       #2570
      ---         BLOCKEND  ---      ---       LVL=0

      00FF1F7FH   BLOCK     ECODE    ---       LVL=0
      WR30        REGSYM    ---      WORD      usConfigValue
      R14         REGSYM    ---      BYTE      usStartFlag
      R8          REGSYM    ---      BYTE      ucScanMode
      R15         REGSYM    ---      BYTE      ucRtcMode
      00FF1F7FH   LINE      ECODE    ---       #2580
      00FF1F7FH   LINE      ECODE    ---       #2581
      00FF1F7FH   LINE      ECODE    ---       #2583
      00FF1F82H   LINE      ECODE    ---       #2584
L251 LINKER/LOCATER V4.65.0.0                                                         05/26/2017  20:22:53  PAGE 44


      00FF1F85H   LINE      ECODE    ---       #2585
      00FF1F88H   LINE      ECODE    ---       #2587
      00FF1F88H   LINE      ECODE    ---       #2589
      00FF1F88H   LINE      ECODE    ---       #2593
      00FF1F8CH   LINE      ECODE    ---       #2594
      00FF1F8CH   LINE      ECODE    ---       #2596
      00FF1F8FH   LINE      ECODE    ---       #2600
      00FF1F9EH   LINE      ECODE    ---       #2601
      00FF1FA2H   LINE      ECODE    ---       #2603
      00FF1FA6H   LINE      ECODE    ---       #2604
      00FF1FB4H   LINE      ECODE    ---       #2605
      00FF1FC1H   LINE      ECODE    ---       #2607
      00FF1FCCH   LINE      ECODE    ---       #2610
      00FF1FD5H   LINE      ECODE    ---       #2616
      00FF1FD8H   LINE      ECODE    ---       #2617
      00FF1FDEH   LINE      ECODE    ---       #2620
      00FF1FE1H   LINE      ECODE    ---       #2621
      00FF1FE4H   LINE      ECODE    ---       #2622
      00FF1FE8H   LINE      ECODE    ---       #2625
      00FF1FF4H   LINE      ECODE    ---       #2626
      00FF1FF4H   LINE      ECODE    ---       #2627
      00FF2005H   LINE      ECODE    ---       #2628
      00FF2012H   LINE      ECODE    ---       #2631
      00FF2020H   LINE      ECODE    ---       #2633
      00FF2024H   LINE      ECODE    ---       #2635
      00FF2026H   LINE      ECODE    ---       #2636
      00FF202EH   LINE      ECODE    ---       #2637
      00FF2030H   LINE      ECODE    ---       #2638
      00FF2038H   LINE      ECODE    ---       #2639
      00FF203AH   LINE      ECODE    ---       #2640
      00FF2042H   LINE      ECODE    ---       #2644
      00FF2045H   LINE      ECODE    ---       #2646
      00FF2051H   LINE      ECODE    ---       #2648
      00FF2059H   LINE      ECODE    ---       #2650
      00FF205DH   LINE      ECODE    ---       #2651
      00FF2062H   LINE      ECODE    ---       #2652
      00FF2068H   LINE      ECODE    ---       #2653
      00FF206CH   LINE      ECODE    ---       #2654
      00FF2070H   LINE      ECODE    ---       #2657
      00FF2076H   LINE      ECODE    ---       #2666
      00FF2079H   LINE      ECODE    ---       #2667
      00FF207CH   LINE      ECODE    ---       #2669
      00FF2083H   LINE      ECODE    ---       #2672
      00FF2089H   LINE      ECODE    ---       #2673
      00FF208BH   LINE      ECODE    ---       #2674
      00FF2093H   LINE      ECODE    ---       #2675
      00FF2095H   LINE      ECODE    ---       #2676
      00FF209CH   LINE      ECODE    ---       #2678
      00FF209FH   LINE      ECODE    ---       #2679
      00FF20A2H   LINE      ECODE    ---       #2680
      00FF20A5H   LINE      ECODE    ---       #2683
      00FF20A8H   LINE      ECODE    ---       #2684
      00FF20A8H   LINE      ECODE    ---       #2685
      00FF20A8H   LINE      ECODE    ---       #2686
      00FF20A8H   LINE      ECODE    ---       #2691
      00FF20ABH   LINE      ECODE    ---       #2692
      00FF20AEH   LINE      ECODE    ---       #2693
      00FF20B1H   LINE      ECODE    ---       #2696
      00FF20B7H   LINE      ECODE    ---       #2697
      00FF20BAH   LINE      ECODE    ---       #2698
      00FF20BDH   LINE      ECODE    ---       #2699
      00FF20C0H   LINE      ECODE    ---       #2703
      00FF20CFH   LINE      ECODE    ---       #2704
      00FF20D4H   LINE      ECODE    ---       #2706
      00FF20D6H   LINE      ECODE    ---       #2707
L251 LINKER/LOCATER V4.65.0.0                                                         05/26/2017  20:22:53  PAGE 45


      00FF20DAH   LINE      ECODE    ---       #2708
      00FF20DDH   LINE      ECODE    ---       #2709
      00FF20E0H   LINE      ECODE    ---       #2711
      00FF20E7H   LINE      ECODE    ---       #2713
      00FF20EAH   LINE      ECODE    ---       #2714
      00FF20EAH   LINE      ECODE    ---       #2716
      00FF20F2H   LINE      ECODE    ---       #2718
      00FF20FEH   LINE      ECODE    ---       #2719
      00FF2118H   LINE      ECODE    ---       #2720
      00FF212DH   LINE      ECODE    ---       #2722
      00FF2135H   LINE      ECODE    ---       #2723
      00FF2146H   LINE      ECODE    ---       #2725
      00FF2159H   LINE      ECODE    ---       #2726
      00FF2161H   LINE      ECODE    ---       #2727
      00FF2167H   LINE      ECODE    ---       #2728
      00FF2167H   LINE      ECODE    ---       #2730
      00FF2170H   LINE      ECODE    ---       #2732
      00FF2183H   LINE      ECODE    ---       #2733
      00FF218BH   LINE      ECODE    ---       #2734
      00FF218BH   LINE      ECODE    ---       #2736
      00FF2190H   LINE      ECODE    ---       #2737
      00FF2194H   LINE      ECODE    ---       #2738
      00FF21A0H   LINE      ECODE    ---       #2740
      00FF21A4H   LINE      ECODE    ---       #2742
      00FF21A9H   LINE      ECODE    ---       #2743
      00FF21AFH   LINE      ECODE    ---       #2744
      00FF21B3H   LINE      ECODE    ---       #2746
      00FF21BBH   LINE      ECODE    ---       #2747
      ---         BLOCKEND  ---      ---       LVL=0

      00FF21BDH   BLOCK     ECODE    ---       LVL=0
      00FF21BFH   BLOCK     ECODE    NEAR LAB  LVL=1
      00001804H   SYMBOL    EDATA    INT       getBaseCount
      00001806H   SYMBOL    EDATA    INT       FristStart
      WR30        REGSYM    ---      WORD      usConfigValue
      R13         REGSYM    ---      BYTE      ucTabId
      R15         REGSYM    ---      BYTE      ucTestMode
      R14         REGSYM    ---      BYTE      ucScanNum
      WR12        REGSYM    ---      WORD      i
      ---         BLOCKEND  ---      ---       LVL=1
      00FF21BDH   LINE      ECODE    ---       #2759
      00FF21BFH   LINE      ECODE    ---       #2760
      00FF21BFH   LINE      ECODE    ---       #2764
      00FF21BFH   LINE      ECODE    ---       #2765
      00FF21C2H   LINE      ECODE    ---       #2766
      00FF21C5H   LINE      ECODE    ---       #2767
      00FF21C8H   LINE      ECODE    ---       #2768
      00FF21C8H   LINE      ECODE    ---       #2771
      00FF21D3H   LINE      ECODE    ---       #2773
      00FF21D3H   LINE      ECODE    ---       #2774
      00FF21E4H   LINE      ECODE    ---       #2775
      00FF21F1H   LINE      ECODE    ---       #2779
      00FF2200H   LINE      ECODE    ---       #2780
      00FF2204H   LINE      ECODE    ---       #2782
      00FF2208H   LINE      ECODE    ---       #2783
      00FF2216H   LINE      ECODE    ---       #2784
      00FF2223H   LINE      ECODE    ---       #2786
      00FF2232H   LINE      ECODE    ---       #2790
      00FF223BH   LINE      ECODE    ---       #2794
      00FF223BH   LINE      ECODE    ---       #2796
      00FF223BH   LINE      ECODE    ---       #2801
      00FF223FH   LINE      ECODE    ---       #2802
      00FF2251H   LINE      ECODE    ---       #2803
      00FF2251H   LINE      ECODE    ---       #2805
      00FF225AH   LINE      ECODE    ---       #2807
L251 LINKER/LOCATER V4.65.0.0                                                         05/26/2017  20:22:53  PAGE 46


      00FF2262H   LINE      ECODE    ---       #2808
      00FF226AH   LINE      ECODE    ---       #2810
      00FF226FH   LINE      ECODE    ---       #2813
      00FF2272H   LINE      ECODE    ---       #2814
      00FF2275H   LINE      ECODE    ---       #2815
      00FF2279H   LINE      ECODE    ---       #2818
      00FF227CH   LINE      ECODE    ---       #2822
      00FF227FH   LINE      ECODE    ---       #2823
      00FF2281H   LINE      ECODE    ---       #2825
      00FF228DH   LINE      ECODE    ---       #2826
      00FF2295H   LINE      ECODE    ---       #2827
      00FF2298H   LINE      ECODE    ---       #2830
      00FF229CH   LINE      ECODE    ---       #2832
      00FF229EH   LINE      ECODE    ---       #2834
      00FF22A4H   LINE      ECODE    ---       #2835
      00FF22A9H   LINE      ECODE    ---       #2836
      00FF22B5H   LINE      ECODE    ---       #2838
      00FF22BEH   LINE      ECODE    ---       #2839
      00FF22C9H   LINE      ECODE    ---       #2841
      00FF22DEH   LINE      ECODE    ---       #2842
      00FF22EAH   LINE      ECODE    ---       #2843
      00FF22EDH   LINE      ECODE    ---       #2846
      00FF22F4H   LINE      ECODE    ---       #2848
      00FF2300H   LINE      ECODE    ---       #2850
      00FF2303H   LINE      ECODE    ---       #2851
      00FF2306H   LINE      ECODE    ---       #2854
      00FF230FH   LINE      ECODE    ---       #2855
      00FF230FH   LINE      ECODE    ---       #2856
      00FF2312H   LINE      ECODE    ---       #2859
      00FF2316H   LINE      ECODE    ---       #2860
      00FF2316H   LINE      ECODE    ---       #2861
      00FF2316H   LINE      ECODE    ---       #2863
      00FF231AH   LINE      ECODE    ---       #2864
      00FF2325H   LINE      ECODE    ---       #2870
      00FF232DH   LINE      ECODE    ---       #2871
      00FF2339H   LINE      ECODE    ---       #2873
      ---         BLOCKEND  ---      ---       LVL=0

      00FF233CH   BLOCK     ECODE    ---       LVL=0
      00FF233CH   LINE      ECODE    ---       #2885
      00FF233CH   LINE      ECODE    ---       #2886
      00FF233CH   LINE      ECODE    ---       #2889
      00FF2348H   LINE      ECODE    ---       #2891
      00FF2348H   LINE      ECODE    ---       #2892
      00FF2359H   LINE      ECODE    ---       #2893
      00FF2366H   LINE      ECODE    ---       #2895
      00FF236EH   LINE      ECODE    ---       #2896
      00FF2376H   LINE      ECODE    ---       #2898
      00FF237EH   LINE      ECODE    ---       #2942
      00FF2383H   LINE      ECODE    ---       #2944
      00FF2383H   LINE      ECODE    ---       #2946
      00FF238FH   LINE      ECODE    ---       #2949
      00FF2397H   LINE      ECODE    ---       #2952
      00FF23AAH   LINE      ECODE    ---       #2954
      00FF23B6H   LINE      ECODE    ---       #2955
      00FF23BEH   LINE      ECODE    ---       #2956
      00FF23C0H   LINE      ECODE    ---       #2957
      00FF23C3H   LINE      ECODE    ---       #2958
      00FF23C9H   LINE      ECODE    ---       #2960
      00FF23CBH   LINE      ECODE    ---       #2961
      00FF23DEH   LINE      ECODE    ---       #2962
      00FF23DEH   LINE      ECODE    ---       #2964
      00FF23E7H   LINE      ECODE    ---       #2966
      00FF23F3H   LINE      ECODE    ---       #2967
      00FF23FBH   LINE      ECODE    ---       #2968
L251 LINKER/LOCATER V4.65.0.0                                                         05/26/2017  20:22:53  PAGE 47


      00FF23FDH   LINE      ECODE    ---       #2969
      00FF2400H   LINE      ECODE    ---       #2970
      00FF2406H   LINE      ECODE    ---       #2972
      00FF2408H   LINE      ECODE    ---       #2973
      00FF241BH   LINE      ECODE    ---       #2974
      00FF241BH   LINE      ECODE    ---       #2976
      00FF2425H   LINE      ECODE    ---       #2977
      ---         BLOCKEND  ---      ---       LVL=0

      00FF2428H   BLOCK     ECODE    ---       LVL=0
      00FF2428H   LINE      ECODE    ---       #2980
      00FF2428H   LINE      ECODE    ---       #2981
      00FF2428H   LINE      ECODE    ---       #2984
      00FF2428H   LINE      ECODE    ---       #2985
      00FF2439H   LINE      ECODE    ---       #2986
      00FF2446H   LINE      ECODE    ---       #2988
      00FF244EH   LINE      ECODE    ---       #2989
      00FF2456H   LINE      ECODE    ---       #2991
      00FF2462H   LINE      ECODE    ---       #2994
      00FF2467H   LINE      ECODE    ---       #2996
      00FF2467H   LINE      ECODE    ---       #2998
      00FF246DH   LINE      ECODE    ---       #3001
      00FF247DH   LINE      ECODE    ---       #3002
      00FF2481H   LINE      ECODE    ---       #3004
      00FF2487H   LINE      ECODE    ---       #3005
      00FF248CH   LINE      ECODE    ---       #3007
      00FF2490H   LINE      ECODE    ---       #3008
      00FF2494H   LINE      ECODE    ---       #3010
      00FF2498H   LINE      ECODE    ---       #3011
      00FF249CH   LINE      ECODE    ---       #3013
      00FF24A0H   LINE      ECODE    ---       #3016
      00FF24B7H   LINE      ECODE    ---       #3017
      00FF24CEH   LINE      ECODE    ---       #3020
      ---         BLOCKEND  ---      ---       LVL=0

      00FF24D0H   BLOCK     ECODE    ---       LVL=0
      00FF24D0H   LINE      ECODE    ---       #3024
      00FF24D0H   LINE      ECODE    ---       #3025
      00FF24D0H   LINE      ECODE    ---       #3028
      00FF24DCH   LINE      ECODE    ---       #3030
      00FF24DCH   LINE      ECODE    ---       #3031
      00FF24EDH   LINE      ECODE    ---       #3032
      00FF24FAH   LINE      ECODE    ---       #3034
      00FF2502H   LINE      ECODE    ---       #3035
      00FF250AH   LINE      ECODE    ---       #3036
      00FF2512H   LINE      ECODE    ---       #3039
      00FF2517H   LINE      ECODE    ---       #3041
      00FF2517H   LINE      ECODE    ---       #3043
      00FF251EH   LINE      ECODE    ---       #3046
      00FF2526H   LINE      ECODE    ---       #3049
      00FF2539H   LINE      ECODE    ---       #3051
      00FF2545H   LINE      ECODE    ---       #3052
      00FF254DH   LINE      ECODE    ---       #3053
      00FF254FH   LINE      ECODE    ---       #3057
      00FF2555H   LINE      ECODE    ---       #3058
      00FF2557H   LINE      ECODE    ---       #3059
      00FF256DH   LINE      ECODE    ---       #3061
      ---         BLOCKEND  ---      ---       LVL=0

      00FF256FH   BLOCK     ECODE    ---       LVL=0
      00FF256FH   LINE      ECODE    ---       #3066
      00FF256FH   LINE      ECODE    ---       #3067
      00FF256FH   LINE      ECODE    ---       #3070
      00FF257BH   LINE      ECODE    ---       #3072
      00FF257BH   LINE      ECODE    ---       #3073
L251 LINKER/LOCATER V4.65.0.0                                                         05/26/2017  20:22:53  PAGE 48


      00FF258CH   LINE      ECODE    ---       #3074
      00FF2599H   LINE      ECODE    ---       #3076
      00FF25A1H   LINE      ECODE    ---       #3077
      00FF25A9H   LINE      ECODE    ---       #3078
      00FF25B1H   LINE      ECODE    ---       #3079
      00FF25B9H   LINE      ECODE    ---       #3080
      00FF25BFH   LINE      ECODE    ---       #3082
      00FF25C4H   LINE      ECODE    ---       #3084
      00FF25C4H   LINE      ECODE    ---       #3086
      00FF25CFH   LINE      ECODE    ---       #3088
      00FF25D7H   LINE      ECODE    ---       #3091
      00FF25E7H   LINE      ECODE    ---       #3092
      00FF25EBH   LINE      ECODE    ---       #3094
      00FF25F1H   LINE      ECODE    ---       #3095
      00FF25F6H   LINE      ECODE    ---       #3097
      00FF25FAH   LINE      ECODE    ---       #3099
      00FF2606H   LINE      ECODE    ---       #3100
      00FF260EH   LINE      ECODE    ---       #3101
      00FF2610H   LINE      ECODE    ---       #3102
      00FF2613H   LINE      ECODE    ---       #3105
      00FF2619H   LINE      ECODE    ---       #3106
      00FF261BH   LINE      ECODE    ---       #3107
      00FF262AH   LINE      ECODE    ---       #3109
      00FF262DH   LINE      ECODE    ---       #3110
      00FF2635H   LINE      ECODE    ---       #3113
      00FF263DH   LINE      ECODE    ---       #3116
      00FF2650H   LINE      ECODE    ---       #3118
      00FF265CH   LINE      ECODE    ---       #3119
      00FF2664H   LINE      ECODE    ---       #3120
      00FF2666H   LINE      ECODE    ---       #3121
      00FF2669H   LINE      ECODE    ---       #3124
      00FF266FH   LINE      ECODE    ---       #3125
      00FF2671H   LINE      ECODE    ---       #3126
      00FF2684H   LINE      ECODE    ---       #3128
      00FF2684H   LINE      ECODE    ---       #3130
      00FF268EH   LINE      ECODE    ---       #3131
      ---         BLOCKEND  ---      ---       LVL=0

      00FF2691H   BLOCK     ECODE    ---       LVL=0
      00FF2691H   LINE      ECODE    ---       #3135
      00FF2691H   LINE      ECODE    ---       #3136
      00FF2691H   LINE      ECODE    ---       #3139
      00FF269DH   LINE      ECODE    ---       #3141
      00FF269DH   LINE      ECODE    ---       #3142
      00FF26AEH   LINE      ECODE    ---       #3143
      00FF26BBH   LINE      ECODE    ---       #3145
      00FF26C3H   LINE      ECODE    ---       #3146
      00FF26CBH   LINE      ECODE    ---       #3147
      00FF26D3H   LINE      ECODE    ---       #3150
      00FF26D8H   LINE      ECODE    ---       #3152
      00FF26D8H   LINE      ECODE    ---       #3154
      00FF26DFH   LINE      ECODE    ---       #3157
      00FF26E7H   LINE      ECODE    ---       #3161
      00FF26FAH   LINE      ECODE    ---       #3163
      00FF2706H   LINE      ECODE    ---       #3164
      00FF270EH   LINE      ECODE    ---       #3165
      00FF2710H   LINE      ECODE    ---       #3166
      00FF2713H   LINE      ECODE    ---       #3169
      00FF2719H   LINE      ECODE    ---       #3170
      00FF271BH   LINE      ECODE    ---       #3171
      00FF2735H   LINE      ECODE    ---       #3172
      ---         BLOCKEND  ---      ---       LVL=0

      00FF2737H   BLOCK     ECODE    ---       LVL=0
      00FF2737H   LINE      ECODE    ---       #3176
L251 LINKER/LOCATER V4.65.0.0                                                         05/26/2017  20:22:53  PAGE 49


      00FF2737H   LINE      ECODE    ---       #3177
      00FF2737H   LINE      ECODE    ---       #3180
      00FF2743H   LINE      ECODE    ---       #3182
      00FF2743H   LINE      ECODE    ---       #3183
      00FF2754H   LINE      ECODE    ---       #3184
      00FF2761H   LINE      ECODE    ---       #3186
      00FF2766H   LINE      ECODE    ---       #3188
      00FF2766H   LINE      ECODE    ---       #3190
      00FF276DH   LINE      ECODE    ---       #3196
      00FF2780H   LINE      ECODE    ---       #3198
      00FF2784H   LINE      ECODE    ---       #3200
      00FF2790H   LINE      ECODE    ---       #3201
      00FF2798H   LINE      ECODE    ---       #3202
      00FF279AH   LINE      ECODE    ---       #3203
      00FF279DH   LINE      ECODE    ---       #3204
      00FF27A0H   LINE      ECODE    ---       #3205
      00FF27A3H   LINE      ECODE    ---       #3206
      00FF27A6H   LINE      ECODE    ---       #3207
      00FF27AAH   LINE      ECODE    ---       #3209
      00FF27B2H   LINE      ECODE    ---       #3210
      00FF27BAH   LINE      ECODE    ---       #3212
      00FF27C2H   LINE      ECODE    ---       #3213
      00FF27CAH   LINE      ECODE    ---       #3214
      00FF27D2H   LINE      ECODE    ---       #3215
      00FF27DAH   LINE      ECODE    ---       #3217
      00FF27E2H   LINE      ECODE    ---       #3221
      00FF27EAH   LINE      ECODE    ---       #3223
      00FF27F0H   LINE      ECODE    ---       #3225
      00FF27F2H   LINE      ECODE    ---       #3226
      00FF280CH   LINE      ECODE    ---       #3227
      ---         BLOCKEND  ---      ---       LVL=0

      00FF280FH   BLOCK     ECODE    ---       LVL=0
      00001808H   SYMBOL    EDATA    INT       getBaseCount
      0000180AH   SYMBOL    EDATA    INT       FristStart
      00FF280FH   LINE      ECODE    ---       #3238
      00FF280FH   LINE      ECODE    ---       #3239
      00FF280FH   LINE      ECODE    ---       #3243
      00FF280FH   LINE      ECODE    ---       #3245
      00FF280FH   LINE      ECODE    ---       #3246
      00FF2820H   LINE      ECODE    ---       #3247
      00FF282DH   LINE      ECODE    ---       #3249
      00FF2835H   LINE      ECODE    ---       #3250
      00FF283DH   LINE      ECODE    ---       #3251
      00FF2845H   LINE      ECODE    ---       #3261
      00FF284DH   LINE      ECODE    ---       #3262
      00FF2853H   LINE      ECODE    ---       #3266
      00FF285BH   LINE      ECODE    ---       #3267
      00FF2863H   LINE      ECODE    ---       #3268
      00FF286BH   LINE      ECODE    ---       #3269
      00FF2873H   LINE      ECODE    ---       #3270
      00FF287BH   LINE      ECODE    ---       #3271
      00FF2883H   LINE      ECODE    ---       #3272
      00FF288BH   LINE      ECODE    ---       #3273
      00FF2893H   LINE      ECODE    ---       #3274
      00FF289BH   LINE      ECODE    ---       #3282
      00FF289FH   LINE      ECODE    ---       #3284
      00FF28A2H   LINE      ECODE    ---       #3285
      00FF28A5H   LINE      ECODE    ---       #3286
      00FF28ADH   LINE      ECODE    ---       #3287
      00FF28B5H   LINE      ECODE    ---       #3290
      00FF28CAH   LINE      ECODE    ---       #3292
      00FF28CFH   LINE      ECODE    ---       #3294
      00FF28CFH   LINE      ECODE    ---       #3296
      00FF28DAH   LINE      ECODE    ---       #3298
L251 LINKER/LOCATER V4.65.0.0                                                         05/26/2017  20:22:53  PAGE 50


      00FF28E2H   LINE      ECODE    ---       #3301
      00FF28F2H   LINE      ECODE    ---       #3302
      00FF28F6H   LINE      ECODE    ---       #3304
      00FF28FCH   LINE      ECODE    ---       #3305
      00FF2901H   LINE      ECODE    ---       #3307
      00FF2905H   LINE      ECODE    ---       #3311
      00FF2908H   LINE      ECODE    ---       #3312
      00FF2910H   LINE      ECODE    ---       #3315
      00FF291DH   LINE      ECODE    ---       #3318
      00FF2930H   LINE      ECODE    ---       #3319
      00FF2930H   LINE      ECODE    ---       #3322
      00FF2938H   LINE      ECODE    ---       #3323
      00FF2938H   LINE      ECODE    ---       #3329
      00FF2942H   LINE      ECODE    ---       #3330
      ---         BLOCKEND  ---      ---       LVL=0

      00FF2944H   BLOCK     ECODE    ---       LVL=0
      00FF2944H   LINE      ECODE    ---       #3333
      00FF2944H   LINE      ECODE    ---       #3336
      00FF294CH   LINE      ECODE    ---       #3338
      00FF294CH   LINE      ECODE    ---       #3341
      00FF2954H   LINE      ECODE    ---       #3343
      00FF2958H   LINE      ECODE    ---       #3346
      00FF296AH   LINE      ECODE    ---       #3350
      00FF296FH   LINE      ECODE    ---       #3352
      00FF2979H   LINE      ECODE    ---       #3353
      ---         BLOCKEND  ---      ---       LVL=0

      00FF297BH   BLOCK     ECODE    ---       LVL=0
      WR14        REGSYM    ---      WORD      i
      WR12        REGSYM    ---      WORD      ReadValue
      00FF297BH   LINE      ECODE    ---       #3363
      00FF297BH   LINE      ECODE    ---       #3364
      00FF297BH   LINE      ECODE    ---       #3368
      00FF298EH   LINE      ECODE    ---       #3372
      00FF2990H   LINE      ECODE    ---       #3374
      00FF299AH   LINE      ECODE    ---       #3376
      00FF29A0H   LINE      ECODE    ---       #3377
      00FF29B2H   LINE      ECODE    ---       #3378
      00FF29BAH   LINE      ECODE    ---       #3379
      ---         BLOCKEND  ---      ---       LVL=0

      00FF29BCH   BLOCK     ECODE    ---       LVL=0
      WR12        REGSYM    ---      WORD      addr
      WR28        REGSYM    ---      WORD      mask0
      WR30        REGSYM    ---      WORD      mask1
      00FF29C4H   BLOCK     ECODE    NEAR LAB  LVL=1
      WR22        REGSYM    ---      WORD      tmp
      WR24        REGSYM    ---      WORD      cnt_back
      WR26        REGSYM    ---      WORD      cnt
      WR14        REGSYM    ---      WORD      BackUp
      00000020H.1 SYMBOL    BIT      BIT       flag
      ---         BLOCKEND  ---      ---       LVL=1
      00FF29BCH   LINE      ECODE    ---       #3389
      00FF29C4H   LINE      ECODE    ---       #3390
      00FF29C4H   LINE      ECODE    ---       #3397
      00FF29C6H   LINE      ECODE    ---       #3398
      00FF29D3H   LINE      ECODE    ---       #3399
      00FF29D5H   LINE      ECODE    ---       #3401
      00FF29D7H   LINE      ECODE    ---       #3402
      00FF29D9H   LINE      ECODE    ---       #3403
      00FF29DBH   LINE      ECODE    ---       #3405
      00FF29E8H   LINE      ECODE    ---       #3406
      00FF29F5H   LINE      ECODE    ---       #3407
      00FF29F9H   LINE      ECODE    ---       #3409
L251 LINKER/LOCATER V4.65.0.0                                                         05/26/2017  20:22:53  PAGE 51


      00FF2A06H   LINE      ECODE    ---       #3410
      00FF2A1BH   LINE      ECODE    ---       #3411
      00FF2A23H   LINE      ECODE    ---       #3412
      00FF2A25H   LINE      ECODE    ---       #3413
      00FF2A27H   LINE      ECODE    ---       #3414
      00FF2A27H   LINE      ECODE    ---       #3415
      00FF2A29H   LINE      ECODE    ---       #3416
      00FF2A31H   LINE      ECODE    ---       #3417
      00FF2A34H   LINE      ECODE    ---       #3419
      00FF2A43H   LINE      ECODE    ---       #3420
      00FF2A43H   LINE      ECODE    ---       #3421
      00FF2A50H   LINE      ECODE    ---       #3422
      ---         BLOCKEND  ---      ---       LVL=0

      00FF2A53H   BLOCK     ECODE    ---       LVL=0
      R14         REGSYM    ---      BYTE      i
      R15         REGSYM    ---      BYTE      ucLen
      WR12        REGSYM    ---      WORD      usAddr
      00002778H   SYMBOL    EDATA    ---       Buf
      00FF2A53H   LINE      ECODE    ---       #3431
      00FF2A53H   LINE      ECODE    ---       #3432
      00FF2A53H   LINE      ECODE    ---       #3438
      00FF2A55H   LINE      ECODE    ---       #3440
      00FF2A61H   LINE      ECODE    ---       #3443
      00FF2A67H   LINE      ECODE    ---       #3445
      00FF2A6AH   LINE      ECODE    ---       #3446
      00FF2A70H   LINE      ECODE    ---       #3447
      00FF2A84H   LINE      ECODE    ---       #3448
      00FF2A88H   LINE      ECODE    ---       #3450
      00FF2A94H   LINE      ECODE    ---       #3452
      00FF2AA8H   LINE      ECODE    ---       #3453
      00FF2AAEH   LINE      ECODE    ---       #3456
      00FF2AB2H   LINE      ECODE    ---       #3457
      00FF2AB5H   LINE      ECODE    ---       #3458
      00FF2ACBH   LINE      ECODE    ---       #3459
      00FF2ACFH   LINE      ECODE    ---       #3461
      00FF2ADBH   LINE      ECODE    ---       #3463
      00FF2AEFH   LINE      ECODE    ---       #3464
      00FF2AF5H   LINE      ECODE    ---       #3467
      00FF2AF9H   LINE      ECODE    ---       #3468
      00FF2B03H   LINE      ECODE    ---       #3469
      00FF2B17H   LINE      ECODE    ---       #3470
      00FF2B1BH   LINE      ECODE    ---       #3472
      00FF2B27H   LINE      ECODE    ---       #3474
      00FF2B3BH   LINE      ECODE    ---       #3475
      00FF2B41H   LINE      ECODE    ---       #3477
      00FF2B4DH   LINE      ECODE    ---       #3479
      00FF2B59H   LINE      ECODE    ---       #3480
      00FF2B5CH   LINE      ECODE    ---       #3481
      00FF2B60H   LINE      ECODE    ---       #3482
      00FF2B64H   LINE      ECODE    ---       #3484
      00FF2B66H   LINE      ECODE    ---       #3485
      00FF2B72H   LINE      ECODE    ---       #3486
      00FF2B78H   LINE      ECODE    ---       #3488
      00FF2B7EH   LINE      ECODE    ---       #3489
      00FF2B81H   LINE      ECODE    ---       #3490
      00FF2B85H   LINE      ECODE    ---       #3492
      00FF2B87H   LINE      ECODE    ---       #3493
      00FF2B93H   LINE      ECODE    ---       #3494
      00FF2B99H   LINE      ECODE    ---       #3497
      00FF2BA3H   LINE      ECODE    ---       #3498
      00FF2BA9H   LINE      ECODE    ---       #3499
      00FF2BADH   LINE      ECODE    ---       #3501
      00FF2BAFH   LINE      ECODE    ---       #3502
      00FF2BBBH   LINE      ECODE    ---       #3503
L251 LINKER/LOCATER V4.65.0.0                                                         05/26/2017  20:22:53  PAGE 52


      00FF2BC1H   LINE      ECODE    ---       #3504
      00FF2BCDH   LINE      ECODE    ---       #3505
      00FF2BD9H   LINE      ECODE    ---       #3506
      ---         BLOCKEND  ---      ---       LVL=0

      00FF2BDBH   BLOCK     ECODE    ---       LVL=0
      R12         REGSYM    ---      BYTE      i
      R13         REGSYM    ---      BYTE      ucLen
      WR14        REGSYM    ---      WORD      usAddr
      0000388BH   SYMBOL    EDATA    ---       Buf
      00FF2BDBH   LINE      ECODE    ---       #3516
      00FF2BDBH   LINE      ECODE    ---       #3517
      00FF2BDBH   LINE      ECODE    ---       #3523
      00FF2BDDH   LINE      ECODE    ---       #3525
      00FF2BE9H   LINE      ECODE    ---       #3527
      00FF2BEDH   LINE      ECODE    ---       #3528
      00FF2BF0H   LINE      ECODE    ---       #3532
      00FF2BF6H   LINE      ECODE    ---       #3533
      00FF2C0EH   LINE      ECODE    ---       #3534
      00FF2C12H   LINE      ECODE    ---       #3536
      00FF2C1EH   LINE      ECODE    ---       #3538
      00FF2C32H   LINE      ECODE    ---       #3539
      00FF2C38H   LINE      ECODE    ---       #3541
      00FF2C44H   LINE      ECODE    ---       #3543
      00FF2C50H   LINE      ECODE    ---       #3544
      00FF2C54H   LINE      ECODE    ---       #3546
      00FF2C60H   LINE      ECODE    ---       #3547
      00FF2C62H   LINE      ECODE    ---       #3548
      00FF2C68H   LINE      ECODE    ---       #3549
      00FF2C74H   LINE      ECODE    ---       #3554
      00FF2C7AH   LINE      ECODE    ---       #3556
      00FF2C8EH   LINE      ECODE    ---       #3557
      00FF2C92H   LINE      ECODE    ---       #3559
      00FF2C9EH   LINE      ECODE    ---       #3561
      00FF2CB2H   LINE      ECODE    ---       #3562
      00FF2CB8H   LINE      ECODE    ---       #3564
      00FF2CC4H   LINE      ECODE    ---       #3566
      00FF2CD0H   LINE      ECODE    ---       #3567
      00FF2CD4H   LINE      ECODE    ---       #3568
      00FF2CD8H   LINE      ECODE    ---       #3570
      00FF2CE4H   LINE      ECODE    ---       #3571
      00FF2CE6H   LINE      ECODE    ---       #3572
      00FF2CECH   LINE      ECODE    ---       #3573
      00FF2CF8H   LINE      ECODE    ---       #3578
      00FF2CFEH   LINE      ECODE    ---       #3580
      00FF2D12H   LINE      ECODE    ---       #3581
      00FF2D16H   LINE      ECODE    ---       #3583
      00FF2D22H   LINE      ECODE    ---       #3585
      00FF2D36H   LINE      ECODE    ---       #3586
      00FF2D3CH   LINE      ECODE    ---       #3588
      00FF2D48H   LINE      ECODE    ---       #3590
      00FF2D54H   LINE      ECODE    ---       #3591
      00FF2D58H   LINE      ECODE    ---       #3592
      00FF2D5CH   LINE      ECODE    ---       #3594
      00FF2D68H   LINE      ECODE    ---       #3595
      00FF2D6AH   LINE      ECODE    ---       #3596
      00FF2D70H   LINE      ECODE    ---       #3597
      00FF2D7CH   LINE      ECODE    ---       #3601
      00FF2D81H   LINE      ECODE    ---       #3603
      00FF2D95H   LINE      ECODE    ---       #3604
      00FF2D99H   LINE      ECODE    ---       #3606
      00FF2DA5H   LINE      ECODE    ---       #3608
      00FF2DB9H   LINE      ECODE    ---       #3609
      00FF2DBFH   LINE      ECODE    ---       #3611
      00FF2DCBH   LINE      ECODE    ---       #3613
L251 LINKER/LOCATER V4.65.0.0                                                         05/26/2017  20:22:53  PAGE 53


      00FF2DD7H   LINE      ECODE    ---       #3614
      00FF2DDBH   LINE      ECODE    ---       #3615
      00FF2DDFH   LINE      ECODE    ---       #3617
      00FF2DEBH   LINE      ECODE    ---       #3618
      00FF2DEDH   LINE      ECODE    ---       #3619
      00FF2DF3H   LINE      ECODE    ---       #3620
      00FF2DFFH   LINE      ECODE    ---       #3621
      00FF2E0BH   LINE      ECODE    ---       #3623
      ---         BLOCKEND  ---      ---       LVL=0

      00FF2E0DH   BLOCK     ECODE    ---       LVL=0
      R12         REGSYM    ---      BYTE      i
      R13         REGSYM    ---      BYTE      ucLen
      WR14        REGSYM    ---      WORD      usAddr
      00003B13H   SYMBOL    EDATA    ---       Buf
      00FF2E0DH   LINE      ECODE    ---       #3634
      00FF2E0DH   LINE      ECODE    ---       #3635
      00FF2E0DH   LINE      ECODE    ---       #3641
      00FF2E11H   LINE      ECODE    ---       #3642
      00FF2E14H   LINE      ECODE    ---       #3644
      00FF2E16H   LINE      ECODE    ---       #3646
      00FF2E22H   LINE      ECODE    ---       #3649
      00FF2E27H   LINE      ECODE    ---       #3651
      00FF2E35H   LINE      ECODE    ---       #3652
      00FF2E4DH   LINE      ECODE    ---       #3653
      00FF2E51H   LINE      ECODE    ---       #3655
      00FF2E5DH   LINE      ECODE    ---       #3657
      00FF2E71H   LINE      ECODE    ---       #3658
      00FF2E77H   LINE      ECODE    ---       #3660
      00FF2E83H   LINE      ECODE    ---       #3662
      00FF2E87H   LINE      ECODE    ---       #3663
      00FF2E95H   LINE      ECODE    ---       #3664
      00FF2EA9H   LINE      ECODE    ---       #3665
      00FF2EADH   LINE      ECODE    ---       #3667
      00FF2EB9H   LINE      ECODE    ---       #3669
      00FF2ECDH   LINE      ECODE    ---       #3670
      00FF2ED3H   LINE      ECODE    ---       #3672
      00FF2EDFH   LINE      ECODE    ---       #3674
      00FF2EE3H   LINE      ECODE    ---       #3675
      00FF2EF1H   LINE      ECODE    ---       #3676
      00FF2F05H   LINE      ECODE    ---       #3677
      00FF2F09H   LINE      ECODE    ---       #3679
      00FF2F15H   LINE      ECODE    ---       #3681
      00FF2F29H   LINE      ECODE    ---       #3682
      00FF2F2FH   LINE      ECODE    ---       #3684
      00FF2F3BH   LINE      ECODE    ---       #3686
      00FF2F3FH   LINE      ECODE    ---       #3687
      00FF2F4DH   LINE      ECODE    ---       #3688
      00FF2F61H   LINE      ECODE    ---       #3689
      00FF2F65H   LINE      ECODE    ---       #3691
      00FF2F71H   LINE      ECODE    ---       #3693
      00FF2F85H   LINE      ECODE    ---       #3694
      00FF2F8BH   LINE      ECODE    ---       #3696
      00FF2F97H   LINE      ECODE    ---       #3699
      00FF2FA3H   LINE      ECODE    ---       #3700
      00FF2FA7H   LINE      ECODE    ---       #3701
      00FF2FABH   LINE      ECODE    ---       #3703
      00FF2FADH   LINE      ECODE    ---       #3704
      00FF2FB9H   LINE      ECODE    ---       #3705
      00FF2FBFH   LINE      ECODE    ---       #3706
      00FF2FCBH   LINE      ECODE    ---       #3708
      00FF2FCFH   LINE      ECODE    ---       #3709
      00FF2FD3H   LINE      ECODE    ---       #3711
      00FF2FD5H   LINE      ECODE    ---       #3712
      00FF2FE1H   LINE      ECODE    ---       #3713
L251 LINKER/LOCATER V4.65.0.0                                                         05/26/2017  20:22:53  PAGE 54


      00FF2FE7H   LINE      ECODE    ---       #3714
      00FF2FF3H   LINE      ECODE    ---       #3716
      00FF2FF7H   LINE      ECODE    ---       #3717
      00FF2FFBH   LINE      ECODE    ---       #3719
      00FF2FFDH   LINE      ECODE    ---       #3720
      00FF3009H   LINE      ECODE    ---       #3721
      00FF300FH   LINE      ECODE    ---       #3722
      00FF301BH   LINE      ECODE    ---       #3725
      00FF301FH   LINE      ECODE    ---       #3726
      00FF3023H   LINE      ECODE    ---       #3728
      00FF3025H   LINE      ECODE    ---       #3729
      00FF3031H   LINE      ECODE    ---       #3730
      00FF303DH   LINE      ECODE    ---       #3731
      00FF3049H   LINE      ECODE    ---       #3732
      00FF3055H   LINE      ECODE    ---       #3733
      ---         BLOCKEND  ---      ---       LVL=0

      00FF3057H   BLOCK     ECODE    ---       LVL=0
      R15         REGSYM    ---      BYTE      i
      00003F1FH   SYMBOL    EDATA    ---       Buf
      00FF3057H   LINE      ECODE    ---       #3743
      00FF3057H   LINE      ECODE    ---       #3744
      00FF3057H   LINE      ECODE    ---       #3749
      00FF3063H   LINE      ECODE    ---       #3750
      00FF3067H   LINE      ECODE    ---       #3770
      00FF3073H   LINE      ECODE    ---       #3771
      00FF3089H   LINE      ECODE    ---       #3772
      00FF308BH   LINE      ECODE    ---       #3774
      00FF30A7H   LINE      ECODE    ---       #3775
      00FF30AEH   LINE      ECODE    ---       #3778
      00FF30BCH   LINE      ECODE    ---       #3779
      00FF30CAH   LINE      ECODE    ---       #3780
      00FF30D8H   LINE      ECODE    ---       #3781
      00FF30E6H   LINE      ECODE    ---       #3782
      00FF30F4H   LINE      ECODE    ---       #3783
      00FF3102H   LINE      ECODE    ---       #3784
      00FF3110H   LINE      ECODE    ---       #3785
      00FF311EH   LINE      ECODE    ---       #3786
      00FF312CH   LINE      ECODE    ---       #3787
      00FF313AH   LINE      ECODE    ---       #3788
      00FF3148H   LINE      ECODE    ---       #3789
      00FF3156H   LINE      ECODE    ---       #3790
      00FF3164H   LINE      ECODE    ---       #3791
      00FF3172H   LINE      ECODE    ---       #3792
      00FF3180H   LINE      ECODE    ---       #3793
      00FF318EH   LINE      ECODE    ---       #3794
      00FF319CH   LINE      ECODE    ---       #3795
      00FF31AAH   LINE      ECODE    ---       #3796
      00FF31B8H   LINE      ECODE    ---       #3797
      00FF31C6H   LINE      ECODE    ---       #3798
      00FF31D4H   LINE      ECODE    ---       #3799
      00FF31E2H   LINE      ECODE    ---       #3800
      00FF31F0H   LINE      ECODE    ---       #3801
      00FF31FEH   LINE      ECODE    ---       #3802
      00FF320CH   LINE      ECODE    ---       #3803
      00FF321AH   LINE      ECODE    ---       #3804
      00FF3228H   LINE      ECODE    ---       #3805
      00FF3236H   LINE      ECODE    ---       #3806
      00FF3244H   LINE      ECODE    ---       #3807
      00FF3252H   LINE      ECODE    ---       #3808
      00FF3260H   LINE      ECODE    ---       #3809
      00FF3270H   LINE      ECODE    ---       #3810
      00FF327EH   LINE      ECODE    ---       #3811
      00FF328CH   LINE      ECODE    ---       #3812
      00FF329AH   LINE      ECODE    ---       #3813
L251 LINKER/LOCATER V4.65.0.0                                                         05/26/2017  20:22:53  PAGE 55


      00FF32A8H   LINE      ECODE    ---       #3814
      00FF32B6H   LINE      ECODE    ---       #3815
      00FF32C4H   LINE      ECODE    ---       #3816
      00FF32D2H   LINE      ECODE    ---       #3817
      00FF32E0H   LINE      ECODE    ---       #3818
      00FF32EEH   LINE      ECODE    ---       #3819
      00FF32FCH   LINE      ECODE    ---       #3820
      00FF330AH   LINE      ECODE    ---       #3821
      00FF3318H   LINE      ECODE    ---       #3822
      00FF3326H   LINE      ECODE    ---       #3823
      00FF3334H   LINE      ECODE    ---       #3824
      00FF3342H   LINE      ECODE    ---       #3825
      00FF3350H   LINE      ECODE    ---       #3826
      00FF335EH   LINE      ECODE    ---       #3827
      00FF336CH   LINE      ECODE    ---       #3828
      00FF337AH   LINE      ECODE    ---       #3829
      00FF3388H   LINE      ECODE    ---       #3830
      00FF3396H   LINE      ECODE    ---       #3831
      00FF33A4H   LINE      ECODE    ---       #3832
      00FF33B2H   LINE      ECODE    ---       #3833
      00FF33C0H   LINE      ECODE    ---       #3834
      00FF33CEH   LINE      ECODE    ---       #3835
      00FF33DCH   LINE      ECODE    ---       #3836
      00FF33EAH   LINE      ECODE    ---       #3837
      00FF33F8H   LINE      ECODE    ---       #3838
      00FF3406H   LINE      ECODE    ---       #3839
      00FF3414H   LINE      ECODE    ---       #3840
      00FF3422H   LINE      ECODE    ---       #3842
      00FF3430H   LINE      ECODE    ---       #3843
      00FF343EH   LINE      ECODE    ---       #3844
      00FF344CH   LINE      ECODE    ---       #3845
      00FF345AH   LINE      ECODE    ---       #3846
      00FF3468H   LINE      ECODE    ---       #3847
      00FF3476H   LINE      ECODE    ---       #3848
      00FF3482H   LINE      ECODE    ---       #3849
      00FF3490H   LINE      ECODE    ---       #3850
      00FF349EH   LINE      ECODE    ---       #3851
      00FF34ACH   LINE      ECODE    ---       #3852
      00FF34BAH   LINE      ECODE    ---       #3853
      00FF34C8H   LINE      ECODE    ---       #3854
      00FF34D6H   LINE      ECODE    ---       #3855
      00FF34E4H   LINE      ECODE    ---       #3856
      00FF34F2H   LINE      ECODE    ---       #3857
      00FF3500H   LINE      ECODE    ---       #3858
      00FF350EH   LINE      ECODE    ---       #3859
      00FF351CH   LINE      ECODE    ---       #3860
      00FF352AH   LINE      ECODE    ---       #3861
      00FF3538H   LINE      ECODE    ---       #3862
      00FF3546H   LINE      ECODE    ---       #3863
      00FF3554H   LINE      ECODE    ---       #3864
      00FF3562H   LINE      ECODE    ---       #3865
      00FF3570H   LINE      ECODE    ---       #3868
      00FF357CH   LINE      ECODE    ---       #3869
      ---         BLOCKEND  ---      ---       LVL=0

      00FF357EH   BLOCK     ECODE    ---       LVL=0
      00FF357EH   LINE      ECODE    ---       #3879
      00FF357EH   LINE      ECODE    ---       #3881
      00FF3588H   LINE      ECODE    ---       #3883
      00FF358DH   LINE      ECODE    ---       #3884
      00FF3595H   LINE      ECODE    ---       #3885
      00FF3597H   LINE      ECODE    ---       #3886
      00FF35A1H   LINE      ECODE    ---       #3895
      00FF35A8H   LINE      ECODE    ---       #3897
      00FF35AEH   LINE      ECODE    ---       #3898
L251 LINKER/LOCATER V4.65.0.0                                                         05/26/2017  20:22:53  PAGE 56


      00FF35B6H   LINE      ECODE    ---       #3900
      00FF35B8H   LINE      ECODE    ---       #3903
      00FF35BEH   LINE      ECODE    ---       #3905
      00FF35CAH   LINE      ECODE    ---       #3906
      00FF35CAH   LINE      ECODE    ---       #3908
      00FF35CAH   LINE      ECODE    ---       #3909
      ---         BLOCKEND  ---      ---       LVL=0

      00FF35DDH   BLOCK     ECODE    ---       LVL=0
      R15         REGSYM    ---      BYTE      ucFlag
      00FF35DDH   LINE      ECODE    ---       #3920
      00FF35DDH   LINE      ECODE    ---       #3921
      00FF35DDH   LINE      ECODE    ---       #3924
      00FF35E0H   LINE      ECODE    ---       #3926
      00FF35E4H   LINE      ECODE    ---       #3933
      00FF35E8H   LINE      ECODE    ---       #3935
      00FF35ECH   LINE      ECODE    ---       #3937
      00FF35F0H   LINE      ECODE    ---       #3939
      00FF35FAH   LINE      ECODE    ---       #3941
      00FF35FAH   LINE      ECODE    ---       #3943
      00FF3601H   LINE      ECODE    ---       #3946
      00FF3608H   LINE      ECODE    ---       #3948
      00FF360DH   LINE      ECODE    ---       #3950
      00FF3611H   LINE      ECODE    ---       #3951
      00FF3613H   LINE      ECODE    ---       #3976
      00FF3613H   LINE      ECODE    ---       #3977
      00FF3621H   LINE      ECODE    ---       #3979
      00FF3621H   LINE      ECODE    ---       #3981
      00FF362DH   LINE      ECODE    ---       #3988
      00FF3631H   LINE      ECODE    ---       #3989
      00FF3633H   LINE      ECODE    ---       #3991
      00FF3633H   LINE      ECODE    ---       #3993
      00FF363FH   LINE      ECODE    ---       #3996
      00FF3643H   LINE      ECODE    ---       #3997
      00FF3645H   LINE      ECODE    ---       #3999
      00FF3645H   LINE      ECODE    ---       #4001
      00FF3651H   LINE      ECODE    ---       #4008
      00FF3655H   LINE      ECODE    ---       #4012
      ---         BLOCKEND  ---      ---       LVL=0

      ---         MODULE    ---      ---       FlowUpgrade
      000000B6H   SFRSYM    DATA     BYTE      RTCCON1
      000000BFH   SFRSYM    DATA     BYTE      CGUCON8
      000000CEH   SFRSYM    DATA     BYTE      CGUCON6
      000000CDH   SFRSYM    DATA     BYTE      CGUCON5
      000000CCH   SFRSYM    DATA     BYTE      CGUCON4
      000000CBH   SFRSYM    DATA     BYTE      CGUCON3
      000000CAH   SFRSYM    DATA     BYTE      CGUCON2
      000000C8H   SFRSYM    DATA     BYTE      CGUCON1
      000000C9H   SFRSYM    DATA     BYTE      CGUCON0
      000000D9H   SFRSYM    DATA     BYTE      MEMBIST_ERRMAP2
      000000D8H   SFRSYM    DATA     BYTE      MEMBIST_ERRMAP1
      000000B0H   SFRSYM    DATA     BYTE      ANACON9
      000000A0H   SFRSYM    DATA     BYTE      ANACON8
      000000D5H   SFRSYM    DATA     BYTE      MEMBIST_FINISH2
      000000C7H   SFRSYM    DATA     BYTE      ANACON7
      000000D4H   SFRSYM    DATA     BYTE      MEMBIST_FINISH1
      000000E9H   SFRSYM    DATA     BYTE      SFTRST
      000000EEH   SFRSYM    DATA     BYTE      P1SEL
      000000C3H   SFRSYM    DATA     BYTE      ANACON3
      000000ECH   SFRSYM    DATA     BYTE      P0SEL
      000000C2H   SFRSYM    DATA     BYTE      ANACON2
      000000C1H   SFRSYM    DATA     BYTE      ANACON1
      000000EDH   SFRSYM    DATA     BYTE      P1MOD
      00000098H   SFRSYM    DATA     BYTE      SYSCON
L251 LINKER/LOCATER V4.65.0.0                                                         05/26/2017  20:22:53  PAGE 57


      000000ADH   SFRSYM    DATA     BYTE      P1DIR
      000000EBH   SFRSYM    DATA     BYTE      P0MOD
      000000ACH   SFRSYM    DATA     BYTE      P0DIR
      00000094H   SFRSYM    DATA     BYTE      P1BUF
      00000080H   SFRSYM    DATA     BYTE      P0BUF
      000000E4H   SFRSYM    DATA     BYTE      TESTCON3
      000000E3H   SFRSYM    DATA     BYTE      TESTCON2
      000000E5H   SFRSYM    DATA     BYTE      IWKSTA
      0000009AH   SFRSYM    DATA     BYTE      WDTREL
      000000E2H   SFRSYM    DATA     BYTE      TESTCON1
      000000E1H   SFRSYM    DATA     BYTE      TESTCON0
      00000099H   SFRSYM    DATA     BYTE      WDTCON
      000000C0H   SFRSYM    DATA     BYTE      AIF
      000000E8H   SFRSYM    DATA     BYTE      AIE
      000000BDH   SFRSYM    DATA     BYTE      FT_EN_REG
      0000009EH   SFRSYM    DATA     BYTE      RTCCON
      000000FEH   SFRSYM    DATA     BYTE      LED_EN
      000000B9H   SFRSYM    DATA     BYTE      CNTCON
      000000D7H   SFRSYM    DATA     BYTE      MEMBIST_FAIL2
      000000D6H   SFRSYM    DATA     BYTE      MEMBIST_FAIL1
      000000D3H   SFRSYM    DATA     BYTE      MEMBIST_EN2
      000000D2H   SFRSYM    DATA     BYTE      MEMBIST_EN1
      0000009BH   SFRSYM    DATA     BYTE      TDIV
      000000EFH   SFRSYM    DATA     BYTE      XDP_STA
      00000088H   SFRSYM    DATA     BYTE      TCON
      00000089H   SFRSYM    DATA     BYTE      TMOD
      000000A7H   SFRSYM    DATA     BYTE      SPI0CON5
      000000B2H   SFRSYM    DATA     BYTE      SPI1CON4
      000000B1H   SFRSYM    DATA     BYTE      SPI1CON3
      000000A5H   SFRSYM    DATA     BYTE      SPI0CON3
      000000B4H   SFRSYM    DATA     BYTE      SPI1CON2
      000000EAH   SFRSYM    DATA     BYTE      ANACON
      00000087H   SFRSYM    DATA     BYTE      PCON
      000000A3H   SFRSYM    DATA     BYTE      SPI0CON2
      000000DAH   SFRSYM    DATA     BYTE      DSV_CON
      000000F8H   SFRSYM    DATA     BYTE      AIPL
      00000095H   SFRSYM    DATA     BYTE      I2CSEL
      000000F5H   SFRSYM    DATA     BYTE      SSCG_CON0
      000000F7H   SFRSYM    DATA     BYTE      AIPH
      000000FDH   SFRSYM    DATA     BYTE      I2C_STATE
      00000090H   SFRSYM    DATA     BYTE      I2CCON
      000000A9H   SFRSYM    DATA     BYTE      UARTCON
      000000B8H   SFRSYM    DATA     BYTE      IPL0
      000000B7H   SFRSYM    DATA     BYTE      IPH0
      000000DFH   SFRSYM    DATA     BYTE      IEN1
      000000A8H   SFRSYM    DATA     BYTE      IEN0
      00000093H   SFRSYM    DATA     BYTE      I2CSTOP
      000000B3H   SFRSYM    DATA     BYTE      SPI1CON
      000000A2H   SFRSYM    DATA     BYTE      SPI0CON

      ---         MODULE    ---      ---       FlowWork
      00FEE8FDH   PUBLIC    ECODE    ---       FlowWork?
      000000B6H   SFRSYM    DATA     BYTE      RTCCON1
      000000BFH   SFRSYM    DATA     BYTE      CGUCON8
      000000CEH   SFRSYM    DATA     BYTE      CGUCON6
      000000CDH   SFRSYM    DATA     BYTE      CGUCON5
      000000CCH   SFRSYM    DATA     BYTE      CGUCON4
      000000CBH   SFRSYM    DATA     BYTE      CGUCON3
      000000CAH   SFRSYM    DATA     BYTE      CGUCON2
      000000C8H   SFRSYM    DATA     BYTE      CGUCON1
      000000C9H   SFRSYM    DATA     BYTE      CGUCON0
      000000D9H   SFRSYM    DATA     BYTE      MEMBIST_ERRMAP2
      000000D8H   SFRSYM    DATA     BYTE      MEMBIST_ERRMAP1
      000000B0H   SFRSYM    DATA     BYTE      ANACON9
      000000A0H   SFRSYM    DATA     BYTE      ANACON8
L251 LINKER/LOCATER V4.65.0.0                                                         05/26/2017  20:22:53  PAGE 58


      000000D5H   SFRSYM    DATA     BYTE      MEMBIST_FINISH2
      000000C7H   SFRSYM    DATA     BYTE      ANACON7
      000000D4H   SFRSYM    DATA     BYTE      MEMBIST_FINISH1
      000000E9H   SFRSYM    DATA     BYTE      SFTRST
      000000EEH   SFRSYM    DATA     BYTE      P1SEL
      000000C3H   SFRSYM    DATA     BYTE      ANACON3
      000000ECH   SFRSYM    DATA     BYTE      P0SEL
      000000C2H   SFRSYM    DATA     BYTE      ANACON2
      000000C1H   SFRSYM    DATA     BYTE      ANACON1
      000000EDH   SFRSYM    DATA     BYTE      P1MOD
      00000098H   SFRSYM    DATA     BYTE      SYSCON
      000000ADH   SFRSYM    DATA     BYTE      P1DIR
      000000EBH   SFRSYM    DATA     BYTE      P0MOD
      000000ACH   SFRSYM    DATA     BYTE      P0DIR
      00000094H   SFRSYM    DATA     BYTE      P1BUF
      00000080H   SFRSYM    DATA     BYTE      P0BUF
      000000E4H   SFRSYM    DATA     BYTE      TESTCON3
      000000E3H   SFRSYM    DATA     BYTE      TESTCON2
      000000E5H   SFRSYM    DATA     BYTE      IWKSTA
      0000009AH   SFRSYM    DATA     BYTE      WDTREL
      000000E2H   SFRSYM    DATA     BYTE      TESTCON1
      000000E1H   SFRSYM    DATA     BYTE      TESTCON0
      00000099H   SFRSYM    DATA     BYTE      WDTCON
      000000C0H   SFRSYM    DATA     BYTE      AIF
      000000E8H   SFRSYM    DATA     BYTE      AIE
      000000BDH   SFRSYM    DATA     BYTE      FT_EN_REG
      0000009EH   SFRSYM    DATA     BYTE      RTCCON
      000000FEH   SFRSYM    DATA     BYTE      LED_EN
      000000B9H   SFRSYM    DATA     BYTE      CNTCON
      000000D7H   SFRSYM    DATA     BYTE      MEMBIST_FAIL2
      000000D6H   SFRSYM    DATA     BYTE      MEMBIST_FAIL1
      000000D3H   SFRSYM    DATA     BYTE      MEMBIST_EN2
      000000D2H   SFRSYM    DATA     BYTE      MEMBIST_EN1
      0000009BH   SFRSYM    DATA     BYTE      TDIV
      000000EFH   SFRSYM    DATA     BYTE      XDP_STA
      00000088H   SFRSYM    DATA     BYTE      TCON
      00000089H   SFRSYM    DATA     BYTE      TMOD
      000000A7H   SFRSYM    DATA     BYTE      SPI0CON5
      000000B2H   SFRSYM    DATA     BYTE      SPI1CON4
      000000B1H   SFRSYM    DATA     BYTE      SPI1CON3
      000000A5H   SFRSYM    DATA     BYTE      SPI0CON3
      000000B4H   SFRSYM    DATA     BYTE      SPI1CON2
      000000EAH   SFRSYM    DATA     BYTE      ANACON
      00000087H   SFRSYM    DATA     BYTE      PCON
      000000A3H   SFRSYM    DATA     BYTE      SPI0CON2
      000000DAH   SFRSYM    DATA     BYTE      DSV_CON
      000000F8H   SFRSYM    DATA     BYTE      AIPL
      00000095H   SFRSYM    DATA     BYTE      I2CSEL
      000000F5H   SFRSYM    DATA     BYTE      SSCG_CON0
      000000F7H   SFRSYM    DATA     BYTE      AIPH
      000000FDH   SFRSYM    DATA     BYTE      I2C_STATE
      00000090H   SFRSYM    DATA     BYTE      I2CCON
      000000A9H   SFRSYM    DATA     BYTE      UARTCON
      000000B8H   SFRSYM    DATA     BYTE      IPL0
      000000B7H   SFRSYM    DATA     BYTE      IPH0
      000000DFH   SFRSYM    DATA     BYTE      IEN1
      000000A8H   SFRSYM    DATA     BYTE      IEN0
      00000093H   SFRSYM    DATA     BYTE      I2CSTOP
      000000B3H   SFRSYM    DATA     BYTE      SPI1CON
      000000A2H   SFRSYM    DATA     BYTE      SPI0CON

      00FEE8FDH   BLOCK     ECODE    ---       LVL=0
      00FEE8FDH   LINE      ECODE    ---       #53
      00FEE8FDH   LINE      ECODE    ---       #55
      ---         BLOCKEND  ---      ---       LVL=0
L251 LINKER/LOCATER V4.65.0.0                                                         05/26/2017  20:22:53  PAGE 59



      ---         MODULE    ---      ---       CfgAutoTune
      000000B6H   SFRSYM    DATA     BYTE      RTCCON1
      000000BFH   SFRSYM    DATA     BYTE      CGUCON8
      000000CEH   SFRSYM    DATA     BYTE      CGUCON6
      000000CDH   SFRSYM    DATA     BYTE      CGUCON5
      000000CCH   SFRSYM    DATA     BYTE      CGUCON4
      000000CBH   SFRSYM    DATA     BYTE      CGUCON3
      000000CAH   SFRSYM    DATA     BYTE      CGUCON2
      000000C8H   SFRSYM    DATA     BYTE      CGUCON1
      000000C9H   SFRSYM    DATA     BYTE      CGUCON0
      000000D9H   SFRSYM    DATA     BYTE      MEMBIST_ERRMAP2
      000000D8H   SFRSYM    DATA     BYTE      MEMBIST_ERRMAP1
      000000B0H   SFRSYM    DATA     BYTE      ANACON9
      000000A0H   SFRSYM    DATA     BYTE      ANACON8
      000000D5H   SFRSYM    DATA     BYTE      MEMBIST_FINISH2
      000000C7H   SFRSYM    DATA     BYTE      ANACON7
      000000D4H   SFRSYM    DATA     BYTE      MEMBIST_FINISH1
      000000E9H   SFRSYM    DATA     BYTE      SFTRST
      000000EEH   SFRSYM    DATA     BYTE      P1SEL
      000000C3H   SFRSYM    DATA     BYTE      ANACON3
      000000ECH   SFRSYM    DATA     BYTE      P0SEL
      000000C2H   SFRSYM    DATA     BYTE      ANACON2
      000000C1H   SFRSYM    DATA     BYTE      ANACON1
      000000EDH   SFRSYM    DATA     BYTE      P1MOD
      00000098H   SFRSYM    DATA     BYTE      SYSCON
      000000ADH   SFRSYM    DATA     BYTE      P1DIR
      000000EBH   SFRSYM    DATA     BYTE      P0MOD
      000000ACH   SFRSYM    DATA     BYTE      P0DIR
      00000094H   SFRSYM    DATA     BYTE      P1BUF
      00000080H   SFRSYM    DATA     BYTE      P0BUF
      000000E4H   SFRSYM    DATA     BYTE      TESTCON3
      000000E3H   SFRSYM    DATA     BYTE      TESTCON2
      000000E5H   SFRSYM    DATA     BYTE      IWKSTA
      0000009AH   SFRSYM    DATA     BYTE      WDTREL
      000000E2H   SFRSYM    DATA     BYTE      TESTCON1
      000000E1H   SFRSYM    DATA     BYTE      TESTCON0
      00000099H   SFRSYM    DATA     BYTE      WDTCON
      000000C0H   SFRSYM    DATA     BYTE      AIF
      000000E8H   SFRSYM    DATA     BYTE      AIE
      000000BDH   SFRSYM    DATA     BYTE      FT_EN_REG
      0000009EH   SFRSYM    DATA     BYTE      RTCCON
      000000FEH   SFRSYM    DATA     BYTE      LED_EN
      000000B9H   SFRSYM    DATA     BYTE      CNTCON
      000000D7H   SFRSYM    DATA     BYTE      MEMBIST_FAIL2
      000000D6H   SFRSYM    DATA     BYTE      MEMBIST_FAIL1
      000000D3H   SFRSYM    DATA     BYTE      MEMBIST_EN2
      000000D2H   SFRSYM    DATA     BYTE      MEMBIST_EN1
      0000009BH   SFRSYM    DATA     BYTE      TDIV
      000000EFH   SFRSYM    DATA     BYTE      XDP_STA
      00000088H   SFRSYM    DATA     BYTE      TCON
      00000089H   SFRSYM    DATA     BYTE      TMOD
      000000A7H   SFRSYM    DATA     BYTE      SPI0CON5
      000000B2H   SFRSYM    DATA     BYTE      SPI1CON4
      000000B1H   SFRSYM    DATA     BYTE      SPI1CON3
      000000A5H   SFRSYM    DATA     BYTE      SPI0CON3
      000000B4H   SFRSYM    DATA     BYTE      SPI1CON2
      000000EAH   SFRSYM    DATA     BYTE      ANACON
      00000087H   SFRSYM    DATA     BYTE      PCON
      000000A3H   SFRSYM    DATA     BYTE      SPI0CON2
      000000DAH   SFRSYM    DATA     BYTE      DSV_CON
      000000F8H   SFRSYM    DATA     BYTE      AIPL
      00000095H   SFRSYM    DATA     BYTE      I2CSEL
      000000F5H   SFRSYM    DATA     BYTE      SSCG_CON0
      000000F7H   SFRSYM    DATA     BYTE      AIPH
L251 LINKER/LOCATER V4.65.0.0                                                         05/26/2017  20:22:53  PAGE 60


      000000FDH   SFRSYM    DATA     BYTE      I2C_STATE
      00000090H   SFRSYM    DATA     BYTE      I2CCON
      000000A9H   SFRSYM    DATA     BYTE      UARTCON
      000000B8H   SFRSYM    DATA     BYTE      IPL0
      000000B7H   SFRSYM    DATA     BYTE      IPH0
      000000DFH   SFRSYM    DATA     BYTE      IEN1
      000000A8H   SFRSYM    DATA     BYTE      IEN0
      00000093H   SFRSYM    DATA     BYTE      I2CSTOP
      000000B3H   SFRSYM    DATA     BYTE      SPI1CON
      000000A2H   SFRSYM    DATA     BYTE      SPI0CON

      ---         MODULE    ---      ---       AppSysCtrl
      00FEFDACH   PUBLIC    ECODE    ---       DrvLcdRunInit?
      00FEFDAFH   PUBLIC    ECODE    ---       DrvPowerInit?
      00FEFDB0H   PUBLIC    ECODE    ---       AppSysInit?
      000000B6H   SFRSYM    DATA     BYTE      RTCCON1
      000000BFH   SFRSYM    DATA     BYTE      CGUCON8
      000000CEH   SFRSYM    DATA     BYTE      CGUCON6
      000000CDH   SFRSYM    DATA     BYTE      CGUCON5
      000000CCH   SFRSYM    DATA     BYTE      CGUCON4
      000000CBH   SFRSYM    DATA     BYTE      CGUCON3
      000000CAH   SFRSYM    DATA     BYTE      CGUCON2
      000000C8H   SFRSYM    DATA     BYTE      CGUCON1
      000000C9H   SFRSYM    DATA     BYTE      CGUCON0
      000000D9H   SFRSYM    DATA     BYTE      MEMBIST_ERRMAP2
      000000D8H   SFRSYM    DATA     BYTE      MEMBIST_ERRMAP1
      000000B0H   SFRSYM    DATA     BYTE      ANACON9
      000000A0H   SFRSYM    DATA     BYTE      ANACON8
      000000D5H   SFRSYM    DATA     BYTE      MEMBIST_FINISH2
      000000C7H   SFRSYM    DATA     BYTE      ANACON7
      000000D4H   SFRSYM    DATA     BYTE      MEMBIST_FINISH1
      000000E9H   SFRSYM    DATA     BYTE      SFTRST
      000000EEH   SFRSYM    DATA     BYTE      P1SEL
      000000C3H   SFRSYM    DATA     BYTE      ANACON3
      000000ECH   SFRSYM    DATA     BYTE      P0SEL
      000000C2H   SFRSYM    DATA     BYTE      ANACON2
      000000C1H   SFRSYM    DATA     BYTE      ANACON1
      000000EDH   SFRSYM    DATA     BYTE      P1MOD
      00000098H   SFRSYM    DATA     BYTE      SYSCON
      000000ADH   SFRSYM    DATA     BYTE      P1DIR
      000000EBH   SFRSYM    DATA     BYTE      P0MOD
      000000ACH   SFRSYM    DATA     BYTE      P0DIR
      00000094H   SFRSYM    DATA     BYTE      P1BUF
      00000080H   SFRSYM    DATA     BYTE      P0BUF
      000000E4H   SFRSYM    DATA     BYTE      TESTCON3
      000000E3H   SFRSYM    DATA     BYTE      TESTCON2
      000000E5H   SFRSYM    DATA     BYTE      IWKSTA
      0000009AH   SFRSYM    DATA     BYTE      WDTREL
      000000E2H   SFRSYM    DATA     BYTE      TESTCON1
      000000E1H   SFRSYM    DATA     BYTE      TESTCON0
      00000099H   SFRSYM    DATA     BYTE      WDTCON
      000000C0H   SFRSYM    DATA     BYTE      AIF
      000000E8H   SFRSYM    DATA     BYTE      AIE
      000000BDH   SFRSYM    DATA     BYTE      FT_EN_REG
      0000009EH   SFRSYM    DATA     BYTE      RTCCON
      000000FEH   SFRSYM    DATA     BYTE      LED_EN
      000000B9H   SFRSYM    DATA     BYTE      CNTCON
      000000D7H   SFRSYM    DATA     BYTE      MEMBIST_FAIL2
      000000D6H   SFRSYM    DATA     BYTE      MEMBIST_FAIL1
      000000D3H   SFRSYM    DATA     BYTE      MEMBIST_EN2
      000000D2H   SFRSYM    DATA     BYTE      MEMBIST_EN1
      0000009BH   SFRSYM    DATA     BYTE      TDIV
      000000EFH   SFRSYM    DATA     BYTE      XDP_STA
      00000088H   SFRSYM    DATA     BYTE      TCON
      00000089H   SFRSYM    DATA     BYTE      TMOD
L251 LINKER/LOCATER V4.65.0.0                                                         05/26/2017  20:22:53  PAGE 61


      000000A7H   SFRSYM    DATA     BYTE      SPI0CON5
      000000B2H   SFRSYM    DATA     BYTE      SPI1CON4
      000000B1H   SFRSYM    DATA     BYTE      SPI1CON3
      000000A5H   SFRSYM    DATA     BYTE      SPI0CON3
      000000B4H   SFRSYM    DATA     BYTE      SPI1CON2
      000000EAH   SFRSYM    DATA     BYTE      ANACON
      00000087H   SFRSYM    DATA     BYTE      PCON
      000000A3H   SFRSYM    DATA     BYTE      SPI0CON2
      000000DAH   SFRSYM    DATA     BYTE      DSV_CON
      000000F8H   SFRSYM    DATA     BYTE      AIPL
      00000095H   SFRSYM    DATA     BYTE      I2CSEL
      000000F5H   SFRSYM    DATA     BYTE      SSCG_CON0
      000000F7H   SFRSYM    DATA     BYTE      AIPH
      000000FDH   SFRSYM    DATA     BYTE      I2C_STATE
      00000090H   SFRSYM    DATA     BYTE      I2CCON
      000000A9H   SFRSYM    DATA     BYTE      UARTCON
      000000A8H.4 SFRSYM    DATA     BIT       ES
      000000B8H   SFRSYM    DATA     BYTE      IPL0
      000000B7H   SFRSYM    DATA     BYTE      IPH0
      000000DFH   SFRSYM    DATA     BYTE      IEN1
      000000A8H   SFRSYM    DATA     BYTE      IEN0
      00000093H   SFRSYM    DATA     BYTE      I2CSTOP
      000000A8H.7 SFRSYM    DATA     BIT       EA
      000000B3H   SFRSYM    DATA     BYTE      SPI1CON
      000000A2H   SFRSYM    DATA     BYTE      SPI0CON

      00FEFDACH   BLOCK     ECODE    ---       LVL=0
      00FEFDACH   LINE      ECODE    ---       #62
      00FEFDACH   LINE      ECODE    ---       #65
      00FEFDAEH   LINE      ECODE    ---       #66
      ---         BLOCKEND  ---      ---       LVL=0

      00FEFDAFH   BLOCK     ECODE    ---       LVL=0
      00FEFDAFH   LINE      ECODE    ---       #68
      00FEFDAFH   LINE      ECODE    ---       #71
      ---         BLOCKEND  ---      ---       LVL=0

      00FEFDB0H   BLOCK     ECODE    ---       LVL=0
      00FEFDB0H   LINE      ECODE    ---       #73
      00FEFDB0H   LINE      ECODE    ---       #75
      00FEFDB4H   LINE      ECODE    ---       #77
      00FEFDB9H   LINE      ECODE    ---       #79
      00FEFDBDH   LINE      ECODE    ---       #81
      00FEFDC1H   LINE      ECODE    ---       #83
      00FEFDC5H   LINE      ECODE    ---       #85
      00FEFDD2H   LINE      ECODE    ---       #87
      00FEFDD6H   LINE      ECODE    ---       #89
      00FEFDDAH   LINE      ECODE    ---       #91
      00FEFDDCH   LINE      ECODE    ---       #93
      00FEFDE0H   LINE      ECODE    ---       #95
      ---         BLOCKEND  ---      ---       LVL=0

      ---         MODULE    ---      ---       AppHostComm
      00FEFD80H   PUBLIC    ECODE    ---       ISR_I2C?
      00FEFD98H   PUBLIC    ECODE    ---       ISR_I2C_Stop?
      00FEFC96H   PUBLIC    ECODE    ---       AppHostUpdateHeadState?
      00FEFC5AH   PUBLIC    ECODE    ---       AppHandleSwitch2STDI2C?
      00FEFD07H   PUBLIC    ECODE    ---       AppHostRegRead?
      00FEFD9FH   PUBLIC    ECODE    ---       AppHostCommInit?
      00FEFC28H   PUBLIC    ECODE    ---       AppAnswerSwitch2STDI2C?
      00FEFD2BH   PUBLIC    ECODE    ---       AppHostRegWrite?
      00003FCDH   PUBLIC    EDATA    ---       g_unPanelParam
      00000079H   PUBLIC    DATA     BYTE      g_ucI2cDataAddr
      000000B6H   SFRSYM    DATA     BYTE      RTCCON1
      000000BFH   SFRSYM    DATA     BYTE      CGUCON8
L251 LINKER/LOCATER V4.65.0.0                                                         05/26/2017  20:22:53  PAGE 62


      000000CEH   SFRSYM    DATA     BYTE      CGUCON6
      000000CDH   SFRSYM    DATA     BYTE      CGUCON5
      000000CCH   SFRSYM    DATA     BYTE      CGUCON4
      000000CBH   SFRSYM    DATA     BYTE      CGUCON3
      000000CAH   SFRSYM    DATA     BYTE      CGUCON2
      000000C8H   SFRSYM    DATA     BYTE      CGUCON1
      000000C9H   SFRSYM    DATA     BYTE      CGUCON0
      000000D9H   SFRSYM    DATA     BYTE      MEMBIST_ERRMAP2
      000000D8H   SFRSYM    DATA     BYTE      MEMBIST_ERRMAP1
      000000B0H   SFRSYM    DATA     BYTE      ANACON9
      000000A0H   SFRSYM    DATA     BYTE      ANACON8
      000000D5H   SFRSYM    DATA     BYTE      MEMBIST_FINISH2
      000000C7H   SFRSYM    DATA     BYTE      ANACON7
      000000D4H   SFRSYM    DATA     BYTE      MEMBIST_FINISH1
      000000E9H   SFRSYM    DATA     BYTE      SFTRST
      000000EEH   SFRSYM    DATA     BYTE      P1SEL
      000000C3H   SFRSYM    DATA     BYTE      ANACON3
      000000ECH   SFRSYM    DATA     BYTE      P0SEL
      000000C2H   SFRSYM    DATA     BYTE      ANACON2
      000000C1H   SFRSYM    DATA     BYTE      ANACON1
      000000EDH   SFRSYM    DATA     BYTE      P1MOD
      00000098H   SFRSYM    DATA     BYTE      SYSCON
      000000ADH   SFRSYM    DATA     BYTE      P1DIR
      000000EBH   SFRSYM    DATA     BYTE      P0MOD
      000000ACH   SFRSYM    DATA     BYTE      P0DIR
      00000094H   SFRSYM    DATA     BYTE      P1BUF
      00000080H   SFRSYM    DATA     BYTE      P0BUF
      00000090H.1 SFRSYM    DATA     BIT       I2CTI
      00000090H   SFRSYM    DATA     BIT       I2CRI
      000000E4H   SFRSYM    DATA     BYTE      TESTCON3
      000000E3H   SFRSYM    DATA     BYTE      TESTCON2
      000000E5H   SFRSYM    DATA     BYTE      IWKSTA
      0000009AH   SFRSYM    DATA     BYTE      WDTREL
      000000E2H   SFRSYM    DATA     BYTE      TESTCON1
      000000E1H   SFRSYM    DATA     BYTE      TESTCON0
      00000099H   SFRSYM    DATA     BYTE      WDTCON
      000000C0H   SFRSYM    DATA     BYTE      AIF
      000000E8H   SFRSYM    DATA     BYTE      AIE
      000000BDH   SFRSYM    DATA     BYTE      FT_EN_REG
      0000009EH   SFRSYM    DATA     BYTE      RTCCON
      000000FEH   SFRSYM    DATA     BYTE      LED_EN
      000000B9H   SFRSYM    DATA     BYTE      CNTCON
      000000D7H   SFRSYM    DATA     BYTE      MEMBIST_FAIL2
      000000D6H   SFRSYM    DATA     BYTE      MEMBIST_FAIL1
      000000D3H   SFRSYM    DATA     BYTE      MEMBIST_EN2
      000000D2H   SFRSYM    DATA     BYTE      MEMBIST_EN1
      0000009BH   SFRSYM    DATA     BYTE      TDIV
      00000093H   SFRSYM    DATA     BIT       I2CSTP
      000000EFH   SFRSYM    DATA     BYTE      XDP_STA
      00000088H   SFRSYM    DATA     BYTE      TCON
      00000089H   SFRSYM    DATA     BYTE      TMOD
      000000A7H   SFRSYM    DATA     BYTE      SPI0CON5
      000000B2H   SFRSYM    DATA     BYTE      SPI1CON4
      000000B1H   SFRSYM    DATA     BYTE      SPI1CON3
      000000A5H   SFRSYM    DATA     BYTE      SPI0CON3
      000000B4H   SFRSYM    DATA     BYTE      SPI1CON2
      000000EAH   SFRSYM    DATA     BYTE      ANACON
      00000087H   SFRSYM    DATA     BYTE      PCON
      000000A3H   SFRSYM    DATA     BYTE      SPI0CON2
      000000DAH   SFRSYM    DATA     BYTE      DSV_CON
      000000F8H   SFRSYM    DATA     BYTE      AIPL
      00000095H   SFRSYM    DATA     BYTE      I2CSEL
      000000F5H   SFRSYM    DATA     BYTE      SSCG_CON0
      000000F7H   SFRSYM    DATA     BYTE      AIPH
      000000FDH   SFRSYM    DATA     BYTE      I2C_STATE
L251 LINKER/LOCATER V4.65.0.0                                                         05/26/2017  20:22:53  PAGE 63


      00000090H   SFRSYM    DATA     BYTE      I2CCON
      000000A9H   SFRSYM    DATA     BYTE      UARTCON
      00000091H   SFRSYM    DATA     BYTE      I2CBUF
      000000B8H   SFRSYM    DATA     BYTE      IPL0
      000000B7H   SFRSYM    DATA     BYTE      IPH0
      000000DFH   SFRSYM    DATA     BYTE      IEN1
      000000A8H   SFRSYM    DATA     BYTE      IEN0
      00000093H   SFRSYM    DATA     BYTE      I2CSTOP
      000000B3H   SFRSYM    DATA     BYTE      SPI1CON
      000000A2H   SFRSYM    DATA     BYTE      SPI0CON
      00FEFD53H   SYMBOL    ECODE    ---       HostCommProc
      00FEFCD2H   SYMBOL    ECODE    ---       AppReadRegMapDataNormal
      00FEFCBCH   SYMBOL    ECODE    ---       AppWriteRegMapDataNormal
      00FEFD46H   SYMBOL    ECODE    ---       CommInitHostCommCtrl
      00004029H   SYMBOL    EDATA    INT       g_ucSwitch2STDI2C
      00000078H   SYMBOL    DATA     BYTE      s_ucI2cWrByteIdx

      00FEFC28H   BLOCK     ECODE    ---       LVL=0
      R11         REGSYM    ---      BYTE      ucAddr
      00FF0007H   SYMBOL    CODE     ---       bufCmd
      0000402BH   SYMBOL    EDATA    BYTE      bufIdx
      R10         REGSYM    ---      BYTE      cmdByte
      00FEFC28H   LINE      ECODE    ---       #81
      00FEFC28H   LINE      ECODE    ---       #82
      00FEFC28H   LINE      ECODE    ---       #87
      00FEFC2BH   LINE      ECODE    ---       #89
      00FEFC30H   LINE      ECODE    ---       #90
      00FEFC30H   LINE      ECODE    ---       #92
      00FEFC41H   LINE      ECODE    ---       #93
      00FEFC46H   LINE      ECODE    ---       #94
      00FEFC49H   LINE      ECODE    ---       #96
      00FEFC4EH   LINE      ECODE    ---       #97
      00FEFC54H   LINE      ECODE    ---       #98
      00FEFC54H   LINE      ECODE    ---       #99
      00FEFC57H   LINE      ECODE    ---       #101
      00FEFC59H   LINE      ECODE    ---       #102
      ---         BLOCKEND  ---      ---       LVL=0

      00FEFC5AH   BLOCK     ECODE    ---       LVL=0
      R11         REGSYM    ---      BYTE      ucAddr
      R7          REGSYM    ---      BYTE      ucData
      00FEFC5AH   LINE      ECODE    ---       #111
      00FEFC5AH   LINE      ECODE    ---       #113
      00FEFC62H   LINE      ECODE    ---       #115
      00FEFC6AH   LINE      ECODE    ---       #117
      00FEFC6EH   LINE      ECODE    ---       #119
      00FEFC76H   LINE      ECODE    ---       #120
      00FEFC78H   LINE      ECODE    ---       #121
      00FEFC78H   LINE      ECODE    ---       #123
      00FEFC82H   LINE      ECODE    ---       #125
      00FEFC86H   LINE      ECODE    ---       #127
      00FEFC8AH   LINE      ECODE    ---       #128
      00FEFC8CH   LINE      ECODE    ---       #131
      00FEFC92H   LINE      ECODE    ---       #132
      00FEFC92H   LINE      ECODE    ---       #133
      00FEFC92H   LINE      ECODE    ---       #134
      00FEFC95H   LINE      ECODE    ---       #135
      ---         BLOCKEND  ---      ---       LVL=0

      00FEFC96H   BLOCK     ECODE    ---       LVL=0
      R11         REGSYM    ---      BYTE      NewRegHeader
      R11         REGSYM    ---      BYTE      DeviceMode
      00FEFC96H   LINE      ECODE    ---       #155
      00FEFC96H   LINE      ECODE    ---       #156
      00FEFC96H   LINE      ECODE    ---       #159
L251 LINKER/LOCATER V4.65.0.0                                                         05/26/2017  20:22:53  PAGE 64


      00FEFC9AH   LINE      ECODE    ---       #162
      00FEFC9DH   LINE      ECODE    ---       #164
      00FEFCA0H   LINE      ECODE    ---       #166
      00FEFCA2H   LINE      ECODE    ---       #167
      00FEFCA4H   LINE      ECODE    ---       #168
      00FEFCA9H   LINE      ECODE    ---       #170
      00FEFCAFH   LINE      ECODE    ---       #171
      00FEFCB0H   LINE      ECODE    ---       #176
      00FEFCB6H   LINE      ECODE    ---       #177
      00FEFCBBH   LINE      ECODE    ---       #178
      00FEFCBBH   LINE      ECODE    ---       #179
      ---         BLOCKEND  ---      ---       LVL=0

      00FEFCBCH   BLOCK     ECODE    ---       LVL=0
      R11         REGSYM    ---      BYTE      ucAddr
      R7          REGSYM    ---      BYTE      ucData
      00FEFCBCH   LINE      ECODE    ---       #189
      00FEFCBCH   LINE      ECODE    ---       #192
      00FEFCBEH   LINE      ECODE    ---       #194
      00FEFCC4H   LINE      ECODE    ---       #195
      00FEFCC5H   LINE      ECODE    ---       #198
      00FEFCCDH   LINE      ECODE    ---       #200
      00FEFCD1H   LINE      ECODE    ---       #201
      00FEFCD1H   LINE      ECODE    ---       #204
      00FEFCD1H   LINE      ECODE    ---       #207
      00FEFCD1H   LINE      ECODE    ---       #210
      00FEFCD1H   LINE      ECODE    ---       #213
      00FEFCD1H   LINE      ECODE    ---       #217
      00FEFCD1H   LINE      ECODE    ---       #218
      ---         BLOCKEND  ---      ---       LVL=0

      00FEFCD2H   BLOCK     ECODE    ---       LVL=0
      R11         REGSYM    ---      BYTE      ucAddr
      00FEFCD2H   LINE      ECODE    ---       #227
      00FEFCD2H   LINE      ECODE    ---       #230
      00FEFCD4H   LINE      ECODE    ---       #232
      00FEFCD9H   LINE      ECODE    ---       #233
      00FEFCD9H   LINE      ECODE    ---       #257
      00FEFCE1H   LINE      ECODE    ---       #259
      00FEFCE6H   LINE      ECODE    ---       #260
      00FEFCE6H   LINE      ECODE    ---       #261
      00FEFCF0H   LINE      ECODE    ---       #263
      00FEFCF7H   LINE      ECODE    ---       #264
      00FEFCF7H   LINE      ECODE    ---       #268
      00FEFCFAH   LINE      ECODE    ---       #270
      00FEFCFFH   LINE      ECODE    ---       #271
      00FEFCFFH   LINE      ECODE    ---       #272
      00FEFD02H   LINE      ECODE    ---       #275
      00FEFD04H   LINE      ECODE    ---       #276
      00FEFD04H   LINE      ECODE    ---       #279
      00FEFD06H   LINE      ECODE    ---       #280
      00FEFD06H   LINE      ECODE    ---       #281
      ---         BLOCKEND  ---      ---       LVL=0

      00FEFD07H   BLOCK     ECODE    ---       LVL=0
      R7          REGSYM    ---      BYTE      addr
      00FEFD09H   BLOCK     ECODE    NEAR LAB  LVL=1
      R11         REGSYM    ---      BYTE      myDeviceMode
      R10         REGSYM    ---      BYTE      ch
      ---         BLOCKEND  ---      ---       LVL=1
      00FEFD07H   LINE      ECODE    ---       #290
      00FEFD09H   LINE      ECODE    ---       #291
      00FEFD09H   LINE      ECODE    ---       #293
      00FEFD0BH   LINE      ECODE    ---       #295
      00FEFD12H   LINE      ECODE    ---       #296
L251 LINKER/LOCATER V4.65.0.0                                                         05/26/2017  20:22:53  PAGE 65


      00FEFD14H   LINE      ECODE    ---       #298
      00FEFD1BH   LINE      ECODE    ---       #299
      00FEFD1DH   LINE      ECODE    ---       #300
      00FEFD20H   LINE      ECODE    ---       #302
      00FEFD28H   LINE      ECODE    ---       #303
      00FEFD28H   LINE      ECODE    ---       #307
      00FEFD28H   LINE      ECODE    ---       #308
      00FEFD2AH   LINE      ECODE    ---       #309
      ---         BLOCKEND  ---      ---       LVL=0

      00FEFD2BH   BLOCK     ECODE    ---       LVL=0
      R6          REGSYM    ---      BYTE      addr
      R7          REGSYM    ---      BYTE      ch
      00FEFD2DH   BLOCK     ECODE    NEAR LAB  LVL=1
      R11         REGSYM    ---      BYTE      myDeviceMode
      ---         BLOCKEND  ---      ---       LVL=1
      00FEFD2BH   LINE      ECODE    ---       #319
      00FEFD2DH   LINE      ECODE    ---       #320
      00FEFD2DH   LINE      ECODE    ---       #323
      00FEFD34H   LINE      ECODE    ---       #324
      00FEFD36H   LINE      ECODE    ---       #326
      00FEFD3BH   LINE      ECODE    ---       #327
      00FEFD3CH   LINE      ECODE    ---       #328
      00FEFD3FH   LINE      ECODE    ---       #330
      00FEFD45H   LINE      ECODE    ---       #331
      00FEFD45H   LINE      ECODE    ---       #335
      00FEFD45H   LINE      ECODE    ---       #336
      ---         BLOCKEND  ---      ---       LVL=0

      00FEFD46H   BLOCK     ECODE    ---       LVL=0
      00FEFD46H   LINE      ECODE    ---       #345
      00FEFD46H   LINE      ECODE    ---       #347
      00FEFD49H   LINE      ECODE    ---       #348
      00FEFD4CH   LINE      ECODE    ---       #349
      00FEFD52H   LINE      ECODE    ---       #350
      ---         BLOCKEND  ---      ---       LVL=0

      00FEFD53H   BLOCK     ECODE    ---       LVL=0
      R7          REGSYM    ---      BYTE      tmp
      00FEFD53H   LINE      ECODE    ---       #360
      00FEFD53H   LINE      ECODE    ---       #361
      00FEFD53H   LINE      ECODE    ---       #365
      00FEFD56H   LINE      ECODE    ---       #367
      00FEFD58H   LINE      ECODE    ---       #369
      00FEFD5CH   LINE      ECODE    ---       #371
      00FEFD5FH   LINE      ECODE    ---       #373
      00FEFD63H   LINE      ECODE    ---       #375
      00FEFD63H   LINE      ECODE    ---       #376
      00FEFD65H   LINE      ECODE    ---       #377
      00FEFD65H   LINE      ECODE    ---       #380
      00FEFD68H   LINE      ECODE    ---       #381
      00FEFD6EH   LINE      ECODE    ---       #382
      00FEFD70H   LINE      ECODE    ---       #383
      00FEFD70H   LINE      ECODE    ---       #384
      00FEFD70H   LINE      ECODE    ---       #387
      00FEFD73H   LINE      ECODE    ---       #389
      00FEFD75H   LINE      ECODE    ---       #390
      00FEFD77H   LINE      ECODE    ---       #391
      00FEFD7FH   LINE      ECODE    ---       #392
      ---         BLOCKEND  ---      ---       LVL=0

      00FEFD80H   BLOCK     ECODE    ---       LVL=0
      00FEFD80H   LINE      ECODE    ---       #402
      00FEFD8AH   LINE      ECODE    ---       #404
      00FEFD8DH   LINE      ECODE    ---       #405
L251 LINKER/LOCATER V4.65.0.0                                                         05/26/2017  20:22:53  PAGE 66


      ---         BLOCKEND  ---      ---       LVL=0

      00FEFD98H   BLOCK     ECODE    ---       LVL=0
      00FEFD98H   LINE      ECODE    ---       #414
      00FEFD98H   LINE      ECODE    ---       #416
      00FEFD9BH   LINE      ECODE    ---       #417
      00FEFD9EH   LINE      ECODE    ---       #418
      ---         BLOCKEND  ---      ---       LVL=0

      00FEFD9FH   BLOCK     ECODE    ---       LVL=0
      00FEFD9FH   LINE      ECODE    ---       #427
      00FEFD9FH   LINE      ECODE    ---       #430
      00FEFDA4H   LINE      ECODE    ---       #437
      00FEFDA8H   LINE      ECODE    ---       #438
      00FEFDABH   LINE      ECODE    ---       #439
      ---         BLOCKEND  ---      ---       LVL=0

      ---         MODULE    ---      ---       AppVersion_Lib
      000000B6H   SFRSYM    DATA     BYTE      RTCCON1
      000000BFH   SFRSYM    DATA     BYTE      CGUCON8
      000000CEH   SFRSYM    DATA     BYTE      CGUCON6
      000000CDH   SFRSYM    DATA     BYTE      CGUCON5
      000000CCH   SFRSYM    DATA     BYTE      CGUCON4
      000000CBH   SFRSYM    DATA     BYTE      CGUCON3
      000000CAH   SFRSYM    DATA     BYTE      CGUCON2
      000000C8H   SFRSYM    DATA     BYTE      CGUCON1
      000000C9H   SFRSYM    DATA     BYTE      CGUCON0
      000000D9H   SFRSYM    DATA     BYTE      MEMBIST_ERRMAP2
      000000D8H   SFRSYM    DATA     BYTE      MEMBIST_ERRMAP1
      000000B0H   SFRSYM    DATA     BYTE      ANACON9
      000000A0H   SFRSYM    DATA     BYTE      ANACON8
      000000D5H   SFRSYM    DATA     BYTE      MEMBIST_FINISH2
      000000C7H   SFRSYM    DATA     BYTE      ANACON7
      000000D4H   SFRSYM    DATA     BYTE      MEMBIST_FINISH1
      000000E9H   SFRSYM    DATA     BYTE      SFTRST
      000000EEH   SFRSYM    DATA     BYTE      P1SEL
      000000C3H   SFRSYM    DATA     BYTE      ANACON3
      000000ECH   SFRSYM    DATA     BYTE      P0SEL
      000000C2H   SFRSYM    DATA     BYTE      ANACON2
      000000C1H   SFRSYM    DATA     BYTE      ANACON1
      000000EDH   SFRSYM    DATA     BYTE      P1MOD
      00000098H   SFRSYM    DATA     BYTE      SYSCON
      000000ADH   SFRSYM    DATA     BYTE      P1DIR
      000000EBH   SFRSYM    DATA     BYTE      P0MOD
      000000ACH   SFRSYM    DATA     BYTE      P0DIR
      00000094H   SFRSYM    DATA     BYTE      P1BUF
      00000080H   SFRSYM    DATA     BYTE      P0BUF
      000000E4H   SFRSYM    DATA     BYTE      TESTCON3
      000000E3H   SFRSYM    DATA     BYTE      TESTCON2
      000000E5H   SFRSYM    DATA     BYTE      IWKSTA
      0000009AH   SFRSYM    DATA     BYTE      WDTREL
      000000E2H   SFRSYM    DATA     BYTE      TESTCON1
      000000E1H   SFRSYM    DATA     BYTE      TESTCON0
      00000099H   SFRSYM    DATA     BYTE      WDTCON
      000000C0H   SFRSYM    DATA     BYTE      AIF
      000000E8H   SFRSYM    DATA     BYTE      AIE
      000000BDH   SFRSYM    DATA     BYTE      FT_EN_REG
      0000009EH   SFRSYM    DATA     BYTE      RTCCON
      000000FEH   SFRSYM    DATA     BYTE      LED_EN
      000000B9H   SFRSYM    DATA     BYTE      CNTCON
      000000D7H   SFRSYM    DATA     BYTE      MEMBIST_FAIL2
      000000D6H   SFRSYM    DATA     BYTE      MEMBIST_FAIL1
      000000D3H   SFRSYM    DATA     BYTE      MEMBIST_EN2
      000000D2H   SFRSYM    DATA     BYTE      MEMBIST_EN1
      0000009BH   SFRSYM    DATA     BYTE      TDIV
L251 LINKER/LOCATER V4.65.0.0                                                         05/26/2017  20:22:53  PAGE 67


      000000EFH   SFRSYM    DATA     BYTE      XDP_STA
      00000088H   SFRSYM    DATA     BYTE      TCON
      00000089H   SFRSYM    DATA     BYTE      TMOD
      000000A7H   SFRSYM    DATA     BYTE      SPI0CON5
      000000B2H   SFRSYM    DATA     BYTE      SPI1CON4
      000000B1H   SFRSYM    DATA     BYTE      SPI1CON3
      000000A5H   SFRSYM    DATA     BYTE      SPI0CON3
      000000B4H   SFRSYM    DATA     BYTE      SPI1CON2
      000000EAH   SFRSYM    DATA     BYTE      ANACON
      00000087H   SFRSYM    DATA     BYTE      PCON
      000000A3H   SFRSYM    DATA     BYTE      SPI0CON2
      000000DAH   SFRSYM    DATA     BYTE      DSV_CON
      000000F8H   SFRSYM    DATA     BYTE      AIPL
      00000095H   SFRSYM    DATA     BYTE      I2CSEL
      000000F5H   SFRSYM    DATA     BYTE      SSCG_CON0
      000000F7H   SFRSYM    DATA     BYTE      AIPH
      000000FDH   SFRSYM    DATA     BYTE      I2C_STATE
      00000090H   SFRSYM    DATA     BYTE      I2CCON
      000000A9H   SFRSYM    DATA     BYTE      UARTCON
      000000B8H   SFRSYM    DATA     BYTE      IPL0
      000000B7H   SFRSYM    DATA     BYTE      IPH0
      000000DFH   SFRSYM    DATA     BYTE      IEN1
      000000A8H   SFRSYM    DATA     BYTE      IEN0
      00000093H   SFRSYM    DATA     BYTE      I2CSTOP
      000000B3H   SFRSYM    DATA     BYTE      SPI1CON
      000000A2H   SFRSYM    DATA     BYTE      SPI0CON

      ---         MODULE    ---      ---       AppParameter
      0000402CH   PUBLIC    EDATA    ---       g_stSysParam
      000000B6H   SFRSYM    DATA     BYTE      RTCCON1
      000000BFH   SFRSYM    DATA     BYTE      CGUCON8
      000000CEH   SFRSYM    DATA     BYTE      CGUCON6
      000000CDH   SFRSYM    DATA     BYTE      CGUCON5
      000000CCH   SFRSYM    DATA     BYTE      CGUCON4
      000000CBH   SFRSYM    DATA     BYTE      CGUCON3
      000000CAH   SFRSYM    DATA     BYTE      CGUCON2
      000000C8H   SFRSYM    DATA     BYTE      CGUCON1
      000000C9H   SFRSYM    DATA     BYTE      CGUCON0
      000000D9H   SFRSYM    DATA     BYTE      MEMBIST_ERRMAP2
      000000D8H   SFRSYM    DATA     BYTE      MEMBIST_ERRMAP1
      000000B0H   SFRSYM    DATA     BYTE      ANACON9
      000000A0H   SFRSYM    DATA     BYTE      ANACON8
      000000D5H   SFRSYM    DATA     BYTE      MEMBIST_FINISH2
      000000C7H   SFRSYM    DATA     BYTE      ANACON7
      000000D4H   SFRSYM    DATA     BYTE      MEMBIST_FINISH1
      000000E9H   SFRSYM    DATA     BYTE      SFTRST
      000000EEH   SFRSYM    DATA     BYTE      P1SEL
      000000C3H   SFRSYM    DATA     BYTE      ANACON3
      000000ECH   SFRSYM    DATA     BYTE      P0SEL
      000000C2H   SFRSYM    DATA     BYTE      ANACON2
      000000C1H   SFRSYM    DATA     BYTE      ANACON1
      000000EDH   SFRSYM    DATA     BYTE      P1MOD
      00000098H   SFRSYM    DATA     BYTE      SYSCON
      000000ADH   SFRSYM    DATA     BYTE      P1DIR
      000000EBH   SFRSYM    DATA     BYTE      P0MOD
      000000ACH   SFRSYM    DATA     BYTE      P0DIR
      00000094H   SFRSYM    DATA     BYTE      P1BUF
      00000080H   SFRSYM    DATA     BYTE      P0BUF
      000000E4H   SFRSYM    DATA     BYTE      TESTCON3
      000000E3H   SFRSYM    DATA     BYTE      TESTCON2
      000000E5H   SFRSYM    DATA     BYTE      IWKSTA
      0000009AH   SFRSYM    DATA     BYTE      WDTREL
      000000E2H   SFRSYM    DATA     BYTE      TESTCON1
      000000E1H   SFRSYM    DATA     BYTE      TESTCON0
      00000099H   SFRSYM    DATA     BYTE      WDTCON
L251 LINKER/LOCATER V4.65.0.0                                                         05/26/2017  20:22:53  PAGE 68


      000000C0H   SFRSYM    DATA     BYTE      AIF
      000000E8H   SFRSYM    DATA     BYTE      AIE
      000000BDH   SFRSYM    DATA     BYTE      FT_EN_REG
      0000009EH   SFRSYM    DATA     BYTE      RTCCON
      000000FEH   SFRSYM    DATA     BYTE      LED_EN
      000000B9H   SFRSYM    DATA     BYTE      CNTCON
      000000D7H   SFRSYM    DATA     BYTE      MEMBIST_FAIL2
      000000D6H   SFRSYM    DATA     BYTE      MEMBIST_FAIL1
      000000D3H   SFRSYM    DATA     BYTE      MEMBIST_EN2
      000000D2H   SFRSYM    DATA     BYTE      MEMBIST_EN1
      0000009BH   SFRSYM    DATA     BYTE      TDIV
      000000EFH   SFRSYM    DATA     BYTE      XDP_STA
      00000088H   SFRSYM    DATA     BYTE      TCON
      00000089H   SFRSYM    DATA     BYTE      TMOD
      000000A7H   SFRSYM    DATA     BYTE      SPI0CON5
      000000B2H   SFRSYM    DATA     BYTE      SPI1CON4
      000000B1H   SFRSYM    DATA     BYTE      SPI1CON3
      000000A5H   SFRSYM    DATA     BYTE      SPI0CON3
      000000B4H   SFRSYM    DATA     BYTE      SPI1CON2
      000000EAH   SFRSYM    DATA     BYTE      ANACON
      00000087H   SFRSYM    DATA     BYTE      PCON
      000000A3H   SFRSYM    DATA     BYTE      SPI0CON2
      000000DAH   SFRSYM    DATA     BYTE      DSV_CON
      000000F8H   SFRSYM    DATA     BYTE      AIPL
      00000095H   SFRSYM    DATA     BYTE      I2CSEL
      000000F5H   SFRSYM    DATA     BYTE      SSCG_CON0
      000000F7H   SFRSYM    DATA     BYTE      AIPH
      000000FDH   SFRSYM    DATA     BYTE      I2C_STATE
      00000090H   SFRSYM    DATA     BYTE      I2CCON
      000000A9H   SFRSYM    DATA     BYTE      UARTCON
      000000B8H   SFRSYM    DATA     BYTE      IPL0
      000000B7H   SFRSYM    DATA     BYTE      IPH0
      000000DFH   SFRSYM    DATA     BYTE      IEN1
      000000A8H   SFRSYM    DATA     BYTE      IEN0
      00000093H   SFRSYM    DATA     BYTE      I2CSTOP
      000000B3H   SFRSYM    DATA     BYTE      SPI1CON
      000000A2H   SFRSYM    DATA     BYTE      SPI0CON

      ---         MODULE    ---      ---       DrvSysCtrl
      00FEFA84H   PUBLIC    ECODE    ---       DrvSwReset?
      00FEFA39H   PUBLIC    ECODE    ---       DrvSysClkInit?
      00FEFA71H   PUBLIC    ECODE    ---       DrvSysPortInit?
      00FEFAEBH   PUBLIC    ECODE    ---       Drv_Rtc_Init?
      00FEFAA4H   PUBLIC    ECODE    ---       DelayMs?
      00FEFA88H   PUBLIC    ECODE    ---       DelayUs?
      00FEFAC3H   PUBLIC    ECODE    ---       DrvIntPriority?
      00FEFB28H   PUBLIC    ECODE    ---       Exint0_IRQHandler?
      00FEFBE9H   PUBLIC    ECODE    ---       Exint1_IRQHandler?
      00FEFA49H   PUBLIC    ECODE    ---       DrvSysPwrSel?
      00000020H.2 PUBLIC    BIT      BIT       g_bRtcTimeFlg
      000040F4H   PUBLIC    EDATA    BYTE      g_ucINT0src
      000040F5H   PUBLIC    EDATA    BYTE      g_ucFramTime
      000040F6H   PUBLIC    EDATA    BYTE      g_ucFramCnt
      000040F7H   PUBLIC    EDATA    BYTE      g_ucSysClk
      000000B6H   SFRSYM    DATA     BYTE      RTCCON1
      000000E5H   SFRSYM    DATA     BIT       RTC_CNT_INT
      000000BFH   SFRSYM    DATA     BYTE      CGUCON8
      000000E5H.2 SFRSYM    DATA     BIT       ASM_MON_INT
      000000CEH   SFRSYM    DATA     BYTE      CGUCON6
      000000CDH   SFRSYM    DATA     BYTE      CGUCON5
      000000CCH   SFRSYM    DATA     BYTE      CGUCON4
      000000CBH   SFRSYM    DATA     BYTE      CGUCON3
      000000CAH   SFRSYM    DATA     BYTE      CGUCON2
      0000009EH.2 SFRSYM    DATA     BIT       RTC_INT_EN_CPU
      000000C8H   SFRSYM    DATA     BYTE      CGUCON1
L251 LINKER/LOCATER V4.65.0.0                                                         05/26/2017  20:22:53  PAGE 69


      000000C9H   SFRSYM    DATA     BYTE      CGUCON0
      0000009EH   SFRSYM    DATA     BIT       RTC_WP
      000000D9H   SFRSYM    DATA     BYTE      MEMBIST_ERRMAP2
      000000D8H   SFRSYM    DATA     BYTE      MEMBIST_ERRMAP1
      000000B8H.2 SFRSYM    DATA     BIT       IPLX1
      000000CAH   SFRSYM    DATA     BIT       RTC_32K_EN
      000000B8H   SFRSYM    DATA     BIT       IPLX0
      0000009EH.6 SFRSYM    DATA     BIT       RTC_INT_EN_ASM
      000000B0H   SFRSYM    DATA     BYTE      ANACON9
      000000B7H.2 SFRSYM    DATA     BIT       IPHX1
      000000A0H   SFRSYM    DATA     BYTE      ANACON8
      000000D5H   SFRSYM    DATA     BYTE      MEMBIST_FINISH2
      000000E5H.5 SFRSYM    DATA     BIT       LCD_LVD_WK_INT
      000000B7H   SFRSYM    DATA     BIT       IPHX0
      000000B8H.1 SFRSYM    DATA     BIT       IPLT0
      000000C7H   SFRSYM    DATA     BYTE      ANACON7
      000000D4H   SFRSYM    DATA     BYTE      MEMBIST_FINISH1
      000000E9H   SFRSYM    DATA     BYTE      SFTRST
      000000EEH   SFRSYM    DATA     BYTE      P1SEL
      000000B7H.1 SFRSYM    DATA     BIT       IPHT0
      000000C3H   SFRSYM    DATA     BYTE      ANACON3
      000000ECH   SFRSYM    DATA     BYTE      P0SEL
      000000C2H   SFRSYM    DATA     BYTE      ANACON2
      000000B8H.6 SFRSYM    DATA     BIT       Uart_IPL
      000000C1H   SFRSYM    DATA     BYTE      ANACON1
      000000EDH   SFRSYM    DATA     BYTE      P1MOD
      000000CEH   SFRSYM    DATA     BIT       CLK_WP
      00000098H   SFRSYM    DATA     BYTE      SYSCON
      000000ADH   SFRSYM    DATA     BYTE      P1DIR
      000000EBH   SFRSYM    DATA     BYTE      P0MOD
      000000ACH   SFRSYM    DATA     BYTE      P0DIR
      000000E5H.6 SFRSYM    DATA     BIT       LCD_ESD_WK_INT
      000000B7H.6 SFRSYM    DATA     BIT       Uart_IPH
      00000094H   SFRSYM    DATA     BYTE      P1BUF
      00000080H   SFRSYM    DATA     BYTE      P0BUF
      0000009CH   SFRSYM    DATA     BYTE      RTCIVL
      000000E4H   SFRSYM    DATA     BYTE      TESTCON3
      000000E5H.1 SFRSYM    DATA     BIT       I2C_MON_INT
      000000E3H   SFRSYM    DATA     BYTE      TESTCON2
      000000E5H   SFRSYM    DATA     BYTE      IWKSTA
      000000CDH.3 SFRSYM    DATA     BIT       LCD_RELOAD_FLASH_WKEN
      0000009AH   SFRSYM    DATA     BYTE      WDTREL
      000000E2H   SFRSYM    DATA     BYTE      TESTCON1
      000000E1H   SFRSYM    DATA     BYTE      TESTCON0
      0000009DH   SFRSYM    DATA     BYTE      RTCIVH
      00000087H.1 SFRSYM    DATA     BIT       CORE_STOP
      00000099H   SFRSYM    DATA     BYTE      WDTCON
      000000C0H   SFRSYM    DATA     BYTE      AIF
      000000E8H   SFRSYM    DATA     BYTE      AIE
      00000088H.2 SFRSYM    DATA     BIT       IT1
      000000A8H.2 SFRSYM    DATA     BIT       EX1
      000000BDH   SFRSYM    DATA     BYTE      FT_EN_REG
      0000009EH   SFRSYM    DATA     BYTE      RTCCON
      000000A8H.5 SFRSYM    DATA     BIT       ET2
      000000FEH   SFRSYM    DATA     BYTE      LED_EN
      000000B9H   SFRSYM    DATA     BYTE      CNTCON
      000000CDH   SFRSYM    DATA     BIT       RTC_CNT_WKEN
      000000D7H   SFRSYM    DATA     BYTE      MEMBIST_FAIL2
      000000CDH.2 SFRSYM    DATA     BIT       ASM_MON_WKEN
      000000D6H   SFRSYM    DATA     BYTE      MEMBIST_FAIL1
      000000E5H.3 SFRSYM    DATA     BIT       LCD_RELOAD_FLASH
      000000D3H   SFRSYM    DATA     BYTE      MEMBIST_EN2
      000000D2H   SFRSYM    DATA     BYTE      MEMBIST_EN1
      0000009BH   SFRSYM    DATA     BYTE      TDIV
      000000B6H   SFRSYM    DATA     BIT       LCD_START_EN
L251 LINKER/LOCATER V4.65.0.0                                                         05/26/2017  20:22:53  PAGE 70


      000000EFH   SFRSYM    DATA     BYTE      XDP_STA
      000000CDH.4 SFRSYM    DATA     BIT       LCD_TIM_WKEN
      00000088H   SFRSYM    DATA     BYTE      TCON
      00000089H   SFRSYM    DATA     BYTE      TMOD
      000000A7H   SFRSYM    DATA     BYTE      SPI0CON5
      000000B2H   SFRSYM    DATA     BYTE      SPI1CON4
      000000E5H.4 SFRSYM    DATA     BIT       LCD_GPIO_WK_INT
      000000B1H   SFRSYM    DATA     BYTE      SPI1CON3
      000000A5H   SFRSYM    DATA     BYTE      SPI0CON3
      000000B4H   SFRSYM    DATA     BYTE      SPI1CON2
      000000EAH   SFRSYM    DATA     BYTE      ANACON
      000000CDH.5 SFRSYM    DATA     BIT       LCD_LVD_WKEN
      00000087H   SFRSYM    DATA     BYTE      PCON
      000000A3H   SFRSYM    DATA     BYTE      SPI0CON2
      000000CAH.7 SFRSYM    DATA     BIT       CLKEN_500K
      000000DAH   SFRSYM    DATA     BYTE      DSV_CON
      000000F8H   SFRSYM    DATA     BIT       I2C_STOP_IPL
      0000009EH.4 SFRSYM    DATA     BIT       RTC_CLR
      00000087H   SFRSYM    DATA     BIT       CORE_IDLE
      000000F7H   SFRSYM    DATA     BIT       I2C_STOP_IPH
      000000CDH.6 SFRSYM    DATA     BIT       LCD_ESD_WKEN
      000000F8H   SFRSYM    DATA     BYTE      AIPL
      000000CCH.6 SFRSYM    DATA     BIT       WDT_500K_EN
      00000095H   SFRSYM    DATA     BYTE      I2CSEL
      0000009EH.5 SFRSYM    DATA     BIT       RTC_START_STA
      000000C9H.5 SFRSYM    DATA     BIT       EN_32K
      000000F5H   SFRSYM    DATA     BYTE      SSCG_CON0
      000000F7H   SFRSYM    DATA     BYTE      AIPH
      000000C8H.7 SFRSYM    DATA     BIT       SYSCKEN
      000000FDH   SFRSYM    DATA     BYTE      I2C_STATE
      000000CDH.1 SFRSYM    DATA     BIT       I2C_MON_WKEN
      00000090H   SFRSYM    DATA     BYTE      I2CCON
      000000A9H   SFRSYM    DATA     BYTE      UARTCON
      000000C9H.6 SFRSYM    DATA     BIT       STANDBY
      000000B8H   SFRSYM    DATA     BYTE      IPL0
      000000B7H   SFRSYM    DATA     BYTE      IPH0
      000000B6H.1 SFRSYM    DATA     BIT       LCD_SRC_SEL_L
      000000DFH   SFRSYM    DATA     BYTE      IEN1
      000000A8H   SFRSYM    DATA     BYTE      IEN0
      000000CBH   SFRSYM    DATA     BIT       RTCCKEN
      0000009EH.1 SFRSYM    DATA     BIT       RTC_AUTO_MODE
      000000B6H.2 SFRSYM    DATA     BIT       LCD_SRC_SEL_H
      00000093H   SFRSYM    DATA     BYTE      I2CSTOP
      000000A8H.7 SFRSYM    DATA     BIT       EA
      000000B8H.5 SFRSYM    DATA     BIT       I2C_IPL
      000000B7H.5 SFRSYM    DATA     BIT       I2C_IPH
      000000B3H   SFRSYM    DATA     BYTE      SPI1CON
      000000A2H   SFRSYM    DATA     BYTE      SPI0CON

      00FEFA39H   BLOCK     ECODE    ---       LVL=0
      R11         REGSYM    ---      BYTE      ucDiv
      00FEFA39H   LINE      ECODE    ---       #68
      00FEFA39H   LINE      ECODE    ---       #70
      00FEFA3EH   LINE      ECODE    ---       #73
      00FEFA40H   LINE      ECODE    ---       #74
      00FEFA40H   LINE      ECODE    ---       #77
      00FEFA42H   LINE      ECODE    ---       #80
      00FEFA45H   LINE      ECODE    ---       #81
      00FEFA48H   LINE      ECODE    ---       #82
      ---         BLOCKEND  ---      ---       LVL=0

      00FEFA49H   BLOCK     ECODE    ---       LVL=0
      R11         REGSYM    ---      BYTE      pmode
      00FEFA49H   LINE      ECODE    ---       #91
      00FEFA49H   LINE      ECODE    ---       #94
L251 LINKER/LOCATER V4.65.0.0                                                         05/26/2017  20:22:53  PAGE 71


      00FEFA4BH   LINE      ECODE    ---       #96
      00FEFA4EH   LINE      ECODE    ---       #97
      00FEFA50H   LINE      ECODE    ---       #98
      00FEFA50H   LINE      ECODE    ---       #101
      00FEFA53H   LINE      ECODE    ---       #103
      00FEFA56H   LINE      ECODE    ---       #104
      00FEFA59H   LINE      ECODE    ---       #105
      00FEFA5CH   LINE      ECODE    ---       #106
      00FEFA5EH   LINE      ECODE    ---       #107
      00FEFA5EH   LINE      ECODE    ---       #110
      00FEFA61H   LINE      ECODE    ---       #112
      00FEFA64H   LINE      ECODE    ---       #113
      00FEFA67H   LINE      ECODE    ---       #114
      00FEFA6AH   LINE      ECODE    ---       #115
      00FEFA6CH   LINE      ECODE    ---       #116
      00FEFA6CH   LINE      ECODE    ---       #117
      00FEFA6DH   LINE      ECODE    ---       #118
      00FEFA6EH   LINE      ECODE    ---       #119
      00FEFA6FH   LINE      ECODE    ---       #120
      00FEFA70H   LINE      ECODE    ---       #121
      ---         BLOCKEND  ---      ---       LVL=0

      00FEFA71H   BLOCK     ECODE    ---       LVL=0
      00FEFA71H   LINE      ECODE    ---       #130
      00FEFA71H   LINE      ECODE    ---       #140
      00FEFA74H   LINE      ECODE    ---       #141
      00FEFA77H   LINE      ECODE    ---       #142
      00FEFA7AH   LINE      ECODE    ---       #143
      00FEFA7DH   LINE      ECODE    ---       #144
      00FEFA80H   LINE      ECODE    ---       #145
      00FEFA83H   LINE      ECODE    ---       #147
      ---         BLOCKEND  ---      ---       LVL=0

      00FEFA84H   BLOCK     ECODE    ---       LVL=0
      00FEFA84H   LINE      ECODE    ---       #172
      00FEFA84H   LINE      ECODE    ---       #174
      00FEFA87H   LINE      ECODE    ---       #175
      ---         BLOCKEND  ---      ---       LVL=0

      00FEFA88H   BLOCK     ECODE    ---       LVL=0
      R10         REGSYM    ---      BYTE      ucDlyCnt
      00FEFA88H   LINE      ECODE    ---       #186
      00FEFA8AH   LINE      ECODE    ---       #192
      00FEFA8CH   LINE      ECODE    ---       #195
      00FEFA8DH   LINE      ECODE    ---       #196
      00FEFA8EH   LINE      ECODE    ---       #197
      00FEFA8FH   LINE      ECODE    ---       #198
      00FEFA90H   LINE      ECODE    ---       #200
      00FEFA91H   LINE      ECODE    ---       #201
      00FEFA92H   LINE      ECODE    ---       #202
      00FEFA93H   LINE      ECODE    ---       #203
      00FEFA94H   LINE      ECODE    ---       #205
      00FEFA95H   LINE      ECODE    ---       #206
      00FEFA96H   LINE      ECODE    ---       #207
      00FEFA97H   LINE      ECODE    ---       #208
      00FEFA98H   LINE      ECODE    ---       #210
      00FEFA99H   LINE      ECODE    ---       #211
      00FEFA9AH   LINE      ECODE    ---       #212
      00FEFA9BH   LINE      ECODE    ---       #214
      00FEFAA3H   LINE      ECODE    ---       #215
      ---         BLOCKEND  ---      ---       LVL=0

      00FEFAA4H   BLOCK     ECODE    ---       LVL=0
      WR8         REGSYM    ---      WORD      ucDlyCnt
      00FEFAA4H   LINE      ECODE    ---       #224
L251 LINKER/LOCATER V4.65.0.0                                                         05/26/2017  20:22:53  PAGE 72


      00FEFAA6H   LINE      ECODE    ---       #226
      00FEFAA8H   LINE      ECODE    ---       #228
      00FEFAAEH   LINE      ECODE    ---       #229
      00FEFAB2H   LINE      ECODE    ---       #230
      00FEFAB6H   LINE      ECODE    ---       #231
      00FEFABAH   LINE      ECODE    ---       #232
      00FEFAC2H   LINE      ECODE    ---       #233
      ---         BLOCKEND  ---      ---       LVL=0

      00FEFAC3H   BLOCK     ECODE    ---       LVL=0
      00FEFAC3H   LINE      ECODE    ---       #243
      00FEFAC3H   LINE      ECODE    ---       #247
      00FEFAC6H   LINE      ECODE    ---       #248
      00FEFAC9H   LINE      ECODE    ---       #249
      00FEFACCH   LINE      ECODE    ---       #250
      00FEFACFH   LINE      ECODE    ---       #253
      00FEFAD2H   LINE      ECODE    ---       #254
      00FEFAD4H   LINE      ECODE    ---       #257
      00FEFAD7H   LINE      ECODE    ---       #258
      00FEFAD9H   LINE      ECODE    ---       #260
      00FEFADCH   LINE      ECODE    ---       #261
      00FEFADEH   LINE      ECODE    ---       #264
      00FEFAE1H   LINE      ECODE    ---       #265
      00FEFAE3H   LINE      ECODE    ---       #267
      00FEFAE5H   LINE      ECODE    ---       #271
      00FEFAE8H   LINE      ECODE    ---       #272
      00FEFAEAH   LINE      ECODE    ---       #277
      ---         BLOCKEND  ---      ---       LVL=0

      00FEFAEBH   BLOCK     ECODE    ---       LVL=0
      R11         REGSYM    ---      BYTE      ucMode
      00FEFAEBH   LINE      ECODE    ---       #280
      00FEFAEBH   LINE      ECODE    ---       #284
      00FEFAEEH   LINE      ECODE    ---       #285
      00FEFAF1H   LINE      ECODE    ---       #286
      00FEFAF4H   LINE      ECODE    ---       #289
      00FEFAF7H   LINE      ECODE    ---       #292
      00FEFAFAH   LINE      ECODE    ---       #293
      00FEFAFDH   LINE      ECODE    ---       #296
      00FEFB00H   LINE      ECODE    ---       #297
      00FEFB03H   LINE      ECODE    ---       #299
      00FEFB05H   LINE      ECODE    ---       #301
      00FEFB08H   LINE      ECODE    ---       #302
      00FEFB0BH   LINE      ECODE    ---       #303
      00FEFB0DH   LINE      ECODE    ---       #306
      00FEFB10H   LINE      ECODE    ---       #307
      00FEFB13H   LINE      ECODE    ---       #308
      00FEFB16H   LINE      ECODE    ---       #309
      00FEFB16H   LINE      ECODE    ---       #313
      00FEFB19H   LINE      ECODE    ---       #314
      00FEFB1CH   LINE      ECODE    ---       #317
      00FEFB1EH   LINE      ECODE    ---       #319
      00FEFB21H   LINE      ECODE    ---       #320
      00FEFB23H   LINE      ECODE    ---       #321
      00FEFB25H   LINE      ECODE    ---       #328
      00FEFB27H   LINE      ECODE    ---       #329
      ---         BLOCKEND  ---      ---       LVL=0

      00FEFB28H   BLOCK     ECODE    ---       LVL=0
      00FEFB28H   LINE      ECODE    ---       #340
      00FEFB3CH   LINE      ECODE    ---       #342
      00FEFB42H   LINE      ECODE    ---       #344
      00FEFB46H   LINE      ECODE    ---       #346
      00FEFB4AH   LINE      ECODE    ---       #348
      00FEFB56H   LINE      ECODE    ---       #349
L251 LINKER/LOCATER V4.65.0.0                                                         05/26/2017  20:22:53  PAGE 73


      00FEFB5CH   LINE      ECODE    ---       #350
      00FEFB5FH   LINE      ECODE    ---       #351
      00FEFB5FH   LINE      ECODE    ---       #354
      00FEFB63H   LINE      ECODE    ---       #356
      00FEFB67H   LINE      ECODE    ---       #358
      00FEFB6DH   LINE      ECODE    ---       #359
      00FEFB70H   LINE      ECODE    ---       #360
      00FEFB70H   LINE      ECODE    ---       #363
      00FEFB74H   LINE      ECODE    ---       #365
      00FEFB78H   LINE      ECODE    ---       #367
      00FEFB7BH   LINE      ECODE    ---       #368
      00FEFB7BH   LINE      ECODE    ---       #371
      00FEFB7FH   LINE      ECODE    ---       #373
      00FEFB83H   LINE      ECODE    ---       #375
      00FEFB86H   LINE      ECODE    ---       #376
      00FEFB86H   LINE      ECODE    ---       #378
      00FEFB8AH   LINE      ECODE    ---       #380
      00FEFB8EH   LINE      ECODE    ---       #384
      00FEFB98H   LINE      ECODE    ---       #389
      00FEFB98H   LINE      ECODE    ---       #391
      00FEFB9CH   LINE      ECODE    ---       #393
      00FEFBA0H   LINE      ECODE    ---       #396
      00FEFBAAH   LINE      ECODE    ---       #400
      00FEFBAAH   LINE      ECODE    ---       #403
      00FEFBAEH   LINE      ECODE    ---       #405
      00FEFBB2H   LINE      ECODE    ---       #407
      00FEFBB5H   LINE      ECODE    ---       #408
      00FEFBC1H   LINE      ECODE    ---       #409
      00FEFBC1H   LINE      ECODE    ---       #411
      00FEFBD4H   LINE      ECODE    ---       #412
      ---         BLOCKEND  ---      ---       LVL=0

      00FEFBE9H   BLOCK     ECODE    ---       LVL=0
      00FEFBE9H   LINE      ECODE    ---       #421
      00FEFBFDH   LINE      ECODE    ---       #423
      00FEFC01H   LINE      ECODE    ---       #425
      00FEFC04H   LINE      ECODE    ---       #426
      00FEFC07H   LINE      ECODE    ---       #429
      00FEFC13H   LINE      ECODE    ---       #430
      ---         BLOCKEND  ---      ---       LVL=0

      ---         MODULE    ---      ---       DrvHostComm
      00FEE8D1H   PUBLIC    ECODE    ---       DrvHostCommInit?
      000000B6H   SFRSYM    DATA     BYTE      RTCCON1
      000000BFH   SFRSYM    DATA     BYTE      CGUCON8
      000000CEH   SFRSYM    DATA     BYTE      CGUCON6
      000000CDH   SFRSYM    DATA     BYTE      CGUCON5
      000000CCH   SFRSYM    DATA     BYTE      CGUCON4
      000000CBH   SFRSYM    DATA     BYTE      CGUCON3
      000000CAH   SFRSYM    DATA     BYTE      CGUCON2
      000000C8H   SFRSYM    DATA     BYTE      CGUCON1
      000000C9H   SFRSYM    DATA     BYTE      CGUCON0
      000000D9H   SFRSYM    DATA     BYTE      MEMBIST_ERRMAP2
      000000D8H   SFRSYM    DATA     BYTE      MEMBIST_ERRMAP1
      000000B0H   SFRSYM    DATA     BYTE      ANACON9
      000000A0H   SFRSYM    DATA     BYTE      ANACON8
      000000D5H   SFRSYM    DATA     BYTE      MEMBIST_FINISH2
      000000C7H   SFRSYM    DATA     BYTE      ANACON7
      000000D4H   SFRSYM    DATA     BYTE      MEMBIST_FINISH1
      000000E9H   SFRSYM    DATA     BYTE      SFTRST
      000000EEH   SFRSYM    DATA     BYTE      P1SEL
      000000C3H   SFRSYM    DATA     BYTE      ANACON3
      000000ECH   SFRSYM    DATA     BYTE      P0SEL
      000000C2H   SFRSYM    DATA     BYTE      ANACON2
      000000C1H   SFRSYM    DATA     BYTE      ANACON1
L251 LINKER/LOCATER V4.65.0.0                                                         05/26/2017  20:22:53  PAGE 74


      000000EDH   SFRSYM    DATA     BYTE      P1MOD
      00000098H   SFRSYM    DATA     BYTE      SYSCON
      000000ADH   SFRSYM    DATA     BYTE      P1DIR
      000000EBH   SFRSYM    DATA     BYTE      P0MOD
      000000C8H.6 SFRSYM    DATA     BIT       I2CCKEN
      000000ACH   SFRSYM    DATA     BYTE      P0DIR
      00000094H   SFRSYM    DATA     BYTE      P1BUF
      00000080H   SFRSYM    DATA     BYTE      P0BUF
      00000090H.1 SFRSYM    DATA     BIT       I2CTI
      00000092H   SFRSYM    DATA     BYTE      I2CADDR
      00000090H   SFRSYM    DATA     BIT       I2CRI
      000000E4H   SFRSYM    DATA     BYTE      TESTCON3
      000000C0H   SFRSYM    DATA     BIT       I2C_STOP_IF
      000000E3H   SFRSYM    DATA     BYTE      TESTCON2
      000000E5H   SFRSYM    DATA     BYTE      IWKSTA
      000000E8H   SFRSYM    DATA     BIT       I2C_STOP_EI
      0000009AH   SFRSYM    DATA     BYTE      WDTREL
      000000E2H   SFRSYM    DATA     BYTE      TESTCON1
      000000E1H   SFRSYM    DATA     BYTE      TESTCON0
      00000099H   SFRSYM    DATA     BYTE      WDTCON
      000000C0H   SFRSYM    DATA     BYTE      AIF
      000000E8H   SFRSYM    DATA     BYTE      AIE
      000000BDH   SFRSYM    DATA     BYTE      FT_EN_REG
      0000009EH   SFRSYM    DATA     BYTE      RTCCON
      000000A8H.5 SFRSYM    DATA     BIT       ET2
      000000FEH   SFRSYM    DATA     BYTE      LED_EN
      000000B9H   SFRSYM    DATA     BYTE      CNTCON
      000000D7H   SFRSYM    DATA     BYTE      MEMBIST_FAIL2
      000000D6H   SFRSYM    DATA     BYTE      MEMBIST_FAIL1
      000000D3H   SFRSYM    DATA     BYTE      MEMBIST_EN2
      000000D2H   SFRSYM    DATA     BYTE      MEMBIST_EN1
      0000009BH   SFRSYM    DATA     BYTE      TDIV
      000000EFH   SFRSYM    DATA     BYTE      XDP_STA
      00000088H   SFRSYM    DATA     BYTE      TCON
      00000089H   SFRSYM    DATA     BYTE      TMOD
      000000A7H   SFRSYM    DATA     BYTE      SPI0CON5
      000000B2H   SFRSYM    DATA     BYTE      SPI1CON4
      000000B1H   SFRSYM    DATA     BYTE      SPI1CON3
      000000A5H   SFRSYM    DATA     BYTE      SPI0CON3
      000000B4H   SFRSYM    DATA     BYTE      SPI1CON2
      000000EAH   SFRSYM    DATA     BYTE      ANACON
      00000087H   SFRSYM    DATA     BYTE      PCON
      000000A3H   SFRSYM    DATA     BYTE      SPI0CON2
      000000DAH   SFRSYM    DATA     BYTE      DSV_CON
      000000F8H   SFRSYM    DATA     BYTE      AIPL
      00000095H   SFRSYM    DATA     BYTE      I2CSEL
      000000F5H   SFRSYM    DATA     BYTE      SSCG_CON0
      000000F7H   SFRSYM    DATA     BYTE      AIPH
      000000FDH   SFRSYM    DATA     BYTE      I2C_STATE
      00000090H   SFRSYM    DATA     BYTE      I2CCON
      000000A9H   SFRSYM    DATA     BYTE      UARTCON
      00000091H   SFRSYM    DATA     BYTE      I2CBUF
      000000B8H   SFRSYM    DATA     BYTE      IPL0
      000000B7H   SFRSYM    DATA     BYTE      IPH0
      000000DFH   SFRSYM    DATA     BYTE      IEN1
      000000A8H   SFRSYM    DATA     BYTE      IEN0
      00000093H   SFRSYM    DATA     BYTE      I2CSTOP
      000000A8H.7 SFRSYM    DATA     BIT       EA
      000000B8H.5 SFRSYM    DATA     BIT       I2C_IPL
      000000B7H.5 SFRSYM    DATA     BIT       I2C_IPH
      000000B3H   SFRSYM    DATA     BYTE      SPI1CON
      000000A2H   SFRSYM    DATA     BYTE      SPI0CON

      00FEE8D1H   BLOCK     ECODE    ---       LVL=0
      00FEE8D1H   LINE      ECODE    ---       #51
L251 LINKER/LOCATER V4.65.0.0                                                         05/26/2017  20:22:53  PAGE 75


      00FEE8D1H   LINE      ECODE    ---       #53
      00FEE8D3H   LINE      ECODE    ---       #55
      00FEE8D6H   LINE      ECODE    ---       #56
      00FEE8D8H   LINE      ECODE    ---       #57
      00FEE8DAH   LINE      ECODE    ---       #60
      00FEE8DDH   LINE      ECODE    ---       #63
      00FEE8DFH   LINE      ECODE    ---       #64
      00FEE8E1H   LINE      ECODE    ---       #66
      00FEE8E4H   LINE      ECODE    ---       #67
      00FEE8E6H   LINE      ECODE    ---       #70
      00FEE8E8H   LINE      ECODE    ---       #71
      00FEE8EAH   LINE      ECODE    ---       #73
      ---         BLOCKEND  ---      ---       LVL=0

      ---         MODULE    ---      ---       DrvAfePara
      00FF3965H   PUBLIC    ECODE    ---       DrvAfeEn4mux?
      00FF4665H   PUBLIC    ECODE    ---       DrvMcapSetFir?
      00FF4BFEH   PUBLIC    ECODE    ---       DrvMcapSetDiffMax?
      00FF378AH   PUBLIC    ECODE    ---       DrvAFEGroupSelReg1?
      00FF37EBH   PUBLIC    ECODE    ---       DrvAFEGroupSelReg2?
      00FF5471H   PUBLIC    ECODE    ---       Test_Ca_P1?
      00FF5278H   PUBLIC    ECODE    ---       DrvMcapSetTestMode?
      00FF399AH   PUBLIC    ECODE    ---       DrvGetTabRam?
      00FF54EDH   PUBLIC    ECODE    ---       Test_Ca_P4?
      00FF4C75H   PUBLIC    ECODE    ---       DrvMcapSetRawGain?
      00FF597DH   PUBLIC    ECODE    ---       Test_MCAP_ADC_DATA_VLD?
      00FF5A35H   PUBLIC    ECODE    ---       Test_Debug0?
      00FF5661H   PUBLIC    ECODE    ---       Test_Lcd_Busy?
      00FF5A4CH   PUBLIC    ECODE    ---       Test_Debug1?
      00FF5A6DH   PUBLIC    ECODE    ---       Test_Debug2?
      00FF3872H   PUBLIC    ECODE    ---       DrvInitRptRam?
      00FF5A8FH   PUBLIC    ECODE    ---       Test_Debug3?
      00FF440DH   PUBLIC    ECODE    ---       DrvSetCbDir?
      00FF3BFFH   PUBLIC    ECODE    ---       DrvAfeSetHCBTarget?
      00FF5AAAH   PUBLIC    ECODE    ---       Test_DebugOut?
      00FF3723H   PUBLIC    ECODE    ---       DrvAfeSelTaborRepRam?
      00FF382BH   PUBLIC    ECODE    ---       DrvGetRptRamOrder?
      00FF58C5H   PUBLIC    ECODE    ---       Test_MCAP_DONE?
      00FF55E5H   PUBLIC    ECODE    ---       Test_Lcd_Run?
      00FF5715H   PUBLIC    ECODE    ---       Test_Tp_Scan?
      00FF5388H   PUBLIC    ECODE    ---       Test_CLk32K?
      00FF4457H   PUBLIC    ECODE    ---       DrvGetTabRamCb?
      00FF52DBH   PUBLIC    ECODE    ---       Test_CLk48M?
      00FF4CFBH   PUBLIC    ECODE    ---       DrvMcapSetOverflow?
      00FF5569H   PUBLIC    ECODE    ---       Test_Ca_Rst?
      00FF3C3BH   PUBLIC    ECODE    ---       DrvAfeSetHCBThld?
      00FF38FBH   PUBLIC    ECODE    ---       DrvAfeEnCOF?
      00FF580DH   PUBLIC    ECODE    ---       Test_Tx_Clk?
      00FF38C0H   PUBLIC    ECODE    ---       DrvAfeScanMode?
      00FF3657H   PUBLIC    ECODE    ---       DrvAfeSelACCRam?
      00FF5791H   PUBLIC    ECODE    ---       Test_Tp_Busy?
      00FF504EH   PUBLIC    ECODE    ---       DrvMcapModeInit?
      00FF3C77H   PUBLIC    ECODE    ---       DrvAfeInitBase?
      00FF45C5H   PUBLIC    ECODE    ---       DrvSetTabMonThr?
      00FF38E8H   PUBLIC    ECODE    ---       DrvAfeSofeReset?
      00FF4745H   PUBLIC    ECODE    ---       DrvMcapSetSampleRate?
      00FF36AFH   PUBLIC    ECODE    ---       DebugReadAFEReg?
      00FF51F3H   PUBLIC    ECODE    ---       DrvMcapReadSta?
      00FF4918H   PUBLIC    ECODE    ---       DrvMcapSetSampleInit?
      00FF4963H   PUBLIC    ECODE    ---       DrvMcapSetAnaTiming?
      00FF3B76H   PUBLIC    ECODE    ---       DrvAfeSetBaseTrack?
      00FF4236H   PUBLIC    ECODE    ---       Afe_Change_Tab3?
      00FF4EA4H   PUBLIC    ECODE    ---       DrvMcapSetPara?
      00FF462CH   PUBLIC    ECODE    ---       DrvMcapSetMode?
      00FF3930H   PUBLIC    ECODE    ---       DrvAfeEnRawdataNum?
L251 LINKER/LOCATER V4.65.0.0                                                         05/26/2017  20:22:53  PAGE 76


      00FF3D59H   PUBLIC    ECODE    ---       Afe_Config_Tab0?
      00FF3E89H   PUBLIC    ECODE    ---       Afe_Config_Tab1?
      00FF3FC2H   PUBLIC    ECODE    ---       Afe_Config_Tab2?
      00FF4109H   PUBLIC    ECODE    ---       Afe_Config_Tab3?
      00FF3B1DH   PUBLIC    ECODE    ---       DrvAfeSetOneChannelTestMode?
      00FF3BA0H   PUBLIC    ECODE    ---       DrvAfeSetTabBaseTrack?
      00FF3CDAH   PUBLIC    ECODE    ---       Afe_SetTabCBChEN?
      00FF36F2H   PUBLIC    ECODE    ---       DebugReadAFEOneReg?
      00004086H   PUBLIC    EDATA    ---       g_pMcapData
      000040C6H   PUBLIC    EDATA    ---       g_pAfeTab
      0000001BH   PUBLIC    DATA     ---       g_pMcapPara
      0000001DH   PUBLIC    DATA     ---       g_pAfeTabPara
      000000DAH.6 SFRSYM    DATA     BIT       UART_INH
      000000B6H   SFRSYM    DATA     BYTE      RTCCON1
      000000BFH   SFRSYM    DATA     BYTE      CGUCON8
      000000CFH   SFRSYM    DATA     BYTE      CGUCON7
      000000CEH   SFRSYM    DATA     BYTE      CGUCON6
      000000CDH   SFRSYM    DATA     BYTE      CGUCON5
      000000CCH   SFRSYM    DATA     BYTE      CGUCON4
      000000CBH   SFRSYM    DATA     BYTE      CGUCON3
      000000CAH   SFRSYM    DATA     BYTE      CGUCON2
      000000C8H   SFRSYM    DATA     BYTE      CGUCON1
      000000C9H   SFRSYM    DATA     BYTE      CGUCON0
      000000D9H   SFRSYM    DATA     BYTE      MEMBIST_ERRMAP2
      000000BDH.2 SFRSYM    DATA     BIT       TEST_CLK_EN
      000000D8H   SFRSYM    DATA     BYTE      MEMBIST_ERRMAP1
      000000B0H   SFRSYM    DATA     BYTE      ANACON9
      000000A0H   SFRSYM    DATA     BYTE      ANACON8
      000000D5H   SFRSYM    DATA     BYTE      MEMBIST_FINISH2
      000000C7H   SFRSYM    DATA     BYTE      ANACON7
      000000D4H   SFRSYM    DATA     BYTE      MEMBIST_FINISH1
      000000E9H   SFRSYM    DATA     BYTE      SFTRST
      000000EEH   SFRSYM    DATA     BYTE      P1SEL
      000000C3H   SFRSYM    DATA     BYTE      ANACON3
      000000ECH   SFRSYM    DATA     BYTE      P0SEL
      000000C2H   SFRSYM    DATA     BYTE      ANACON2
      000000C1H   SFRSYM    DATA     BYTE      ANACON1
      000000EDH   SFRSYM    DATA     BYTE      P1MOD
      00000098H   SFRSYM    DATA     BYTE      SYSCON
      000000ADH   SFRSYM    DATA     BYTE      P1DIR
      000000EBH   SFRSYM    DATA     BYTE      P0MOD
      000000ACH   SFRSYM    DATA     BYTE      P0DIR
      00000094H   SFRSYM    DATA     BYTE      P1BUF
      00000080H   SFRSYM    DATA     BYTE      P0BUF
      000000E4H   SFRSYM    DATA     BYTE      TESTCON3
      000000E3H   SFRSYM    DATA     BYTE      TESTCON2
      000000E5H   SFRSYM    DATA     BYTE      IWKSTA
      0000009AH   SFRSYM    DATA     BYTE      WDTREL
      000000E2H   SFRSYM    DATA     BYTE      TESTCON1
      000000C9H.2 SFRSYM    DATA     BIT       PROBE32K_DIG_EN
      000000E1H   SFRSYM    DATA     BYTE      TESTCON0
      00000099H   SFRSYM    DATA     BYTE      WDTCON
      000000C0H   SFRSYM    DATA     BYTE      AIF
      000000E8H   SFRSYM    DATA     BYTE      AIE
      000000BDH   SFRSYM    DATA     BYTE      FT_EN_REG
      0000009EH   SFRSYM    DATA     BYTE      RTCCON
      000000FEH   SFRSYM    DATA     BYTE      LED_EN
      000000B9H   SFRSYM    DATA     BYTE      CNTCON
      000000D7H   SFRSYM    DATA     BYTE      MEMBIST_FAIL2
      000000D6H   SFRSYM    DATA     BYTE      MEMBIST_FAIL1
      000000EAH   SFRSYM    DATA     BIT       GPIO_INT_SEL
      000000E4H.7 SFRSYM    DATA     BIT       TEST_OUT3_EN
      000000E3H.7 SFRSYM    DATA     BIT       TEST_OUT2_EN
      000000E2H.7 SFRSYM    DATA     BIT       TEST_OUT1_EN
      000000E1H.7 SFRSYM    DATA     BIT       TEST_OUT0_EN
L251 LINKER/LOCATER V4.65.0.0                                                         05/26/2017  20:22:53  PAGE 77


      000000BFH.7 SFRSYM    DATA     BIT       SEL_32K_SRC
      000000D3H   SFRSYM    DATA     BYTE      MEMBIST_EN2
      000000D2H   SFRSYM    DATA     BYTE      MEMBIST_EN1
      0000009BH   SFRSYM    DATA     BYTE      TDIV
      000000EFH   SFRSYM    DATA     BYTE      XDP_STA
      00000088H   SFRSYM    DATA     BYTE      TCON
      00000089H   SFRSYM    DATA     BYTE      TMOD
      000000A7H   SFRSYM    DATA     BYTE      SPI0CON5
      000000B2H   SFRSYM    DATA     BYTE      SPI1CON4
      000000C9H   SFRSYM    DATA     BIT       PROBE32K_FROM1M_EN
      000000B1H   SFRSYM    DATA     BYTE      SPI1CON3
      000000A5H   SFRSYM    DATA     BYTE      SPI0CON3
      000000B4H   SFRSYM    DATA     BYTE      SPI1CON2
      000000EAH   SFRSYM    DATA     BYTE      ANACON
      00000087H   SFRSYM    DATA     BYTE      PCON
      000000A3H   SFRSYM    DATA     BYTE      SPI0CON2
      00000098H.5 SFRSYM    DATA     BIT       BUS_SEL
      000000DAH   SFRSYM    DATA     BYTE      DSV_CON
      000000F8H   SFRSYM    DATA     BYTE      AIPL
      000000EAH.2 SFRSYM    DATA     BIT       AFE_RST
      00000095H   SFRSYM    DATA     BYTE      I2CSEL
      000000F5H   SFRSYM    DATA     BYTE      SSCG_CON0
      000000F7H   SFRSYM    DATA     BYTE      AIPH
      000000FDH   SFRSYM    DATA     BYTE      I2C_STATE
      00000090H   SFRSYM    DATA     BYTE      I2CCON
      000000A9H   SFRSYM    DATA     BYTE      UARTCON
      000000C8H.5 SFRSYM    DATA     BIT       XSICKEN
      000000B8H   SFRSYM    DATA     BYTE      IPL0
      000000B7H   SFRSYM    DATA     BYTE      IPH0
      000000DFH   SFRSYM    DATA     BYTE      IEN1
      000000A8H   SFRSYM    DATA     BYTE      IEN0
      00000093H   SFRSYM    DATA     BYTE      I2CSTOP
      000000DAH.5 SFRSYM    DATA     BIT       UART_INL
      000000B3H   SFRSYM    DATA     BYTE      SPI1CON
      000000A2H   SFRSYM    DATA     BYTE      SPI0CON

      00FF3657H   BLOCK     ECODE    ---       LVL=0
      R10         REGSYM    ---      BYTE      ucbit
      00FF3659H   BLOCK     ECODE    NEAR LAB  LVL=1
      WR28        REGSYM    ---      WORD      XSI0RegValue
      WR30        REGSYM    ---      WORD      XSI1RegValue
      ---         BLOCKEND  ---      ---       LVL=1
      00FF3657H   LINE      ECODE    ---       #67
      00FF3659H   LINE      ECODE    ---       #68
      00FF3659H   LINE      ECODE    ---       #69
      00FF3659H   LINE      ECODE    ---       #70
      00FF3659H   LINE      ECODE    ---       #72
      00FF3668H   LINE      ECODE    ---       #73
      00FF3676H   LINE      ECODE    ---       #75
      00FF367AH   LINE      ECODE    ---       #76
      00FF367EH   LINE      ECODE    ---       #78
      00FF3690H   LINE      ECODE    ---       #79
      00FF3692H   LINE      ECODE    ---       #81
      00FF36A0H   LINE      ECODE    ---       #82
      ---         BLOCKEND  ---      ---       LVL=0

      00FF36AFH   BLOCK     ECODE    ---       LVL=0
      00FF36B1H   BLOCK     ECODE    NEAR LAB  LVL=1
      000040F8H   SYMBOL    EDATA    WORD      ReadRegs0
      WR12        REGSYM    ---      WORD      ReadRegs1
      WR14        REGSYM    ---      WORD      addr
      ---         BLOCKEND  ---      ---       LVL=1
      00FF36AFH   LINE      ECODE    ---       #85
      00FF36B1H   LINE      ECODE    ---       #86
      00FF36B1H   LINE      ECODE    ---       #91
L251 LINKER/LOCATER V4.65.0.0                                                         05/26/2017  20:22:53  PAGE 78


      00FF36B3H   LINE      ECODE    ---       #93
      00FF36C2H   LINE      ECODE    ---       #94
      00FF36CEH   LINE      ECODE    ---       #95
      00FF36E7H   LINE      ECODE    ---       #96
      00FF36EFH   LINE      ECODE    ---       #97
      ---         BLOCKEND  ---      ---       LVL=0

      00FF36F2H   BLOCK     ECODE    ---       LVL=0
      WR30        REGSYM    ---      WORD      ucAddr
      00FF36F4H   BLOCK     ECODE    NEAR LAB  LVL=1
      WR8         REGSYM    ---      WORD      ReadRegs0
      WR10        REGSYM    ---      WORD      ReadRegs1
      ---         BLOCKEND  ---      ---       LVL=1
      00FF36F2H   LINE      ECODE    ---       #99
      00FF36F4H   LINE      ECODE    ---       #100
      00FF36F4H   LINE      ECODE    ---       #104
      00FF3701H   LINE      ECODE    ---       #105
      00FF370DH   LINE      ECODE    ---       #107
      00FF3711H   LINE      ECODE    ---       #109
      00FF3714H   LINE      ECODE    ---       #110
      00FF3714H   LINE      ECODE    ---       #113
      00FF3720H   LINE      ECODE    ---       #114
      00FF3722H   LINE      ECODE    ---       #115
      00FF3722H   LINE      ECODE    ---       #116
      ---         BLOCKEND  ---      ---       LVL=0

      00FF3723H   BLOCK     ECODE    ---       LVL=0
      R10         REGSYM    ---      BYTE      RamSelect
      00FF3725H   BLOCK     ECODE    NEAR LAB  LVL=1
      WR28        REGSYM    ---      WORD      XSI0RegValue
      WR30        REGSYM    ---      WORD      XSI1RegValue
      ---         BLOCKEND  ---      ---       LVL=1
      00FF3723H   LINE      ECODE    ---       #125
      00FF3725H   LINE      ECODE    ---       #126
      00FF3725H   LINE      ECODE    ---       #127
      00FF3725H   LINE      ECODE    ---       #128
      00FF3725H   LINE      ECODE    ---       #130
      00FF3734H   LINE      ECODE    ---       #131
      00FF3742H   LINE      ECODE    ---       #133
      00FF3746H   LINE      ECODE    ---       #134
      00FF374AH   LINE      ECODE    ---       #136
      00FF374EH   LINE      ECODE    ---       #138
      00FF374EH   LINE      ECODE    ---       #139
      00FF374EH   LINE      ECODE    ---       #140
      00FF3750H   LINE      ECODE    ---       #141
      00FF3755H   LINE      ECODE    ---       #143
      00FF3759H   LINE      ECODE    ---       #144
      00FF375DH   LINE      ECODE    ---       #145
      00FF375FH   LINE      ECODE    ---       #146
      00FF3764H   LINE      ECODE    ---       #148
      00FF3768H   LINE      ECODE    ---       #149
      00FF376CH   LINE      ECODE    ---       #150
      00FF376CH   LINE      ECODE    ---       #152
      00FF377BH   LINE      ECODE    ---       #153
      ---         BLOCKEND  ---      ---       LVL=0

      00FF378AH   BLOCK     ECODE    ---       LVL=0
      R7          REGSYM    ---      BYTE      ucMux1_GA
      R6          REGSYM    ---      BYTE      ucMux1_GB
      R3          REGSYM    ---      BYTE      ucMux2_GA
      R5          REGSYM    ---      BYTE      ucMux2_GB
      R4          REGSYM    ---      BYTE      ucMux3_GA
      R2          REGSYM    ---      BYTE      ucMux3_GB
      00FF3792H   BLOCK     ECODE    NEAR LAB  LVL=1
      WR30        REGSYM    ---      WORD      usPanelMode
L251 LINKER/LOCATER V4.65.0.0                                                         05/26/2017  20:22:53  PAGE 79


      ---         BLOCKEND  ---      ---       LVL=1
      00FF378AH   LINE      ECODE    ---       #166
      00FF3792H   LINE      ECODE    ---       #167
      00FF3792H   LINE      ECODE    ---       #170
      00FF37D0H   LINE      ECODE    ---       #177
      00FF37DEH   LINE      ECODE    ---       #178
      ---         BLOCKEND  ---      ---       LVL=0

      00FF37EBH   BLOCK     ECODE    ---       LVL=0
      R11         REGSYM    ---      BYTE      ucMux4_GA
      R7          REGSYM    ---      BYTE      ucMux4_GB
      R6          REGSYM    ---      BYTE      ucMux5_GA
      R5          REGSYM    ---      BYTE      ucMux5_GB
      WR30        REGSYM    ---      WORD      usPanelMode
      00FF37EBH   LINE      ECODE    ---       #191
      00FF37EBH   LINE      ECODE    ---       #192
      00FF37EBH   LINE      ECODE    ---       #195
      00FF380FH   LINE      ECODE    ---       #200
      00FF381EH   LINE      ECODE    ---       #201
      ---         BLOCKEND  ---      ---       LVL=0

      00FF382BH   BLOCK     ECODE    ---       LVL=0
      00FF382DH   BLOCK     ECODE    NEAR LAB  LVL=1
      WR14        REGSYM    ---      WORD      j
      00002C90H   SYMBOL    EDATA    ---       ausBaseBuf
      ---         BLOCKEND  ---      ---       LVL=1
      00FF382BH   LINE      ECODE    ---       #214
      00FF382DH   LINE      ECODE    ---       #215
      00FF382DH   LINE      ECODE    ---       #219
      00FF3833H   LINE      ECODE    ---       #221
      00FF384BH   LINE      ECODE    ---       #222
      00FF384DH   LINE      ECODE    ---       #226
      00FF3867H   LINE      ECODE    ---       #228
      00FF386FH   LINE      ECODE    ---       #229
      ---         BLOCKEND  ---      ---       LVL=0

      00FF3872H   BLOCK     ECODE    ---       LVL=0
      WR6         REGSYM    ---      WORD      j
      00002258H   SYMBOL    EDATA    ---       ausBaseBufL
      000024E8H   SYMBOL    EDATA    ---       ausBaseBufR
      00FF3872H   LINE      ECODE    ---       #231
      00FF3872H   LINE      ECODE    ---       #232
      00FF3872H   LINE      ECODE    ---       #238
      00FF3874H   LINE      ECODE    ---       #240
      00FF387EH   LINE      ECODE    ---       #241
      00FF3882H   LINE      ECODE    ---       #242
      00FF388AH   LINE      ECODE    ---       #244
      00FF3890H   LINE      ECODE    ---       #246
      00FF38A8H   LINE      ECODE    ---       #247
      ---         BLOCKEND  ---      ---       LVL=0

      00FF38C0H   BLOCK     ECODE    ---       LVL=0
      R11         REGSYM    ---      BYTE      ucMode
      WR6         REGSYM    ---      WORD      usScantimes
      WR30        REGSYM    ---      WORD      usScanCfg0
      00FF38C0H   LINE      ECODE    ---       #262
      00FF38C0H   LINE      ECODE    ---       #263
      00FF38C0H   LINE      ECODE    ---       #266
      00FF38CCH   LINE      ECODE    ---       #268
      00FF38DBH   LINE      ECODE    ---       #269
      ---         BLOCKEND  ---      ---       LVL=0

      00FF38E8H   BLOCK     ECODE    ---       LVL=0
      00FF38E8H   LINE      ECODE    ---       #279
      00FF38E8H   LINE      ECODE    ---       #281
L251 LINKER/LOCATER V4.65.0.0                                                         05/26/2017  20:22:53  PAGE 80


      00FF38F4H   LINE      ECODE    ---       #282
      00FF38F7H   LINE      ECODE    ---       #283
      00FF38FAH   LINE      ECODE    ---       #284
      ---         BLOCKEND  ---      ---       LVL=0

      00FF38FBH   BLOCK     ECODE    ---       LVL=0
      00FF38FBH   LINE      ECODE    ---       #286
      00FF38FBH   LINE      ECODE    ---       #287
      00FF38FBH   LINE      ECODE    ---       #290
      00FF38FBH   LINE      ECODE    ---       #291
      00FF390CH   LINE      ECODE    ---       #292
      00FF3919H   LINE      ECODE    ---       #294
      ---         BLOCKEND  ---      ---       LVL=0

      00FF3930H   BLOCK     ECODE    ---       LVL=0
      WR30        REGSYM    ---      WORD      ucRptRawdataNum
      00FF3930H   LINE      ECODE    ---       #298
      00FF3932H   LINE      ECODE    ---       #300
      00FF3941H   LINE      ECODE    ---       #301
      00FF394EH   LINE      ECODE    ---       #302
      ---         BLOCKEND  ---      ---       LVL=0

      00FF3965H   BLOCK     ECODE    ---       LVL=0
      00FF3965H   LINE      ECODE    ---       #306
      00FF3965H   LINE      ECODE    ---       #307
      00FF3965H   LINE      ECODE    ---       #310
      00FF3965H   LINE      ECODE    ---       #311
      00FF3976H   LINE      ECODE    ---       #312
      00FF3983H   LINE      ECODE    ---       #314
      ---         BLOCKEND  ---      ---       LVL=0

      00FF399AH   BLOCK     ECODE    ---       LVL=0
      00FF399CH   BLOCK     ECODE    NEAR LAB  LVL=1
      R14         REGSYM    ---      BYTE      i
      R15         REGSYM    ---      BYTE      ucLen
      WR12        REGSYM    ---      WORD      usAddr
      00003C73H   SYMBOL    EDATA    ---       Buf
      ---         BLOCKEND  ---      ---       LVL=1
      00FF399AH   LINE      ECODE    ---       #317
      00FF399CH   LINE      ECODE    ---       #318
      00FF399CH   LINE      ECODE    ---       #324
      00FF39A0H   LINE      ECODE    ---       #325
      00FF39A3H   LINE      ECODE    ---       #327
      00FF39A5H   LINE      ECODE    ---       #330
      00FF39AAH   LINE      ECODE    ---       #332
      00FF39B8H   LINE      ECODE    ---       #333
      00FF39D0H   LINE      ECODE    ---       #334
      00FF39D4H   LINE      ECODE    ---       #336
      00FF39E0H   LINE      ECODE    ---       #338
      00FF39F4H   LINE      ECODE    ---       #339
      00FF39FAH   LINE      ECODE    ---       #341
      00FF3A06H   LINE      ECODE    ---       #343
      00FF3A0AH   LINE      ECODE    ---       #344
      00FF3A18H   LINE      ECODE    ---       #345
      00FF3A2CH   LINE      ECODE    ---       #346
      00FF3A30H   LINE      ECODE    ---       #348
      00FF3A3CH   LINE      ECODE    ---       #350
      00FF3A50H   LINE      ECODE    ---       #351
      00FF3A56H   LINE      ECODE    ---       #353
      00FF3A62H   LINE      ECODE    ---       #355
      00FF3A66H   LINE      ECODE    ---       #356
      00FF3A74H   LINE      ECODE    ---       #357
      00FF3A88H   LINE      ECODE    ---       #358
      00FF3A8CH   LINE      ECODE    ---       #360
      00FF3A98H   LINE      ECODE    ---       #362
L251 LINKER/LOCATER V4.65.0.0                                                         05/26/2017  20:22:53  PAGE 81


      00FF3AACH   LINE      ECODE    ---       #363
      00FF3AB2H   LINE      ECODE    ---       #365
      00FF3ABEH   LINE      ECODE    ---       #367
      00FF3AC2H   LINE      ECODE    ---       #368
      00FF3AD0H   LINE      ECODE    ---       #369
      00FF3AE4H   LINE      ECODE    ---       #370
      00FF3AE8H   LINE      ECODE    ---       #372
      00FF3AF4H   LINE      ECODE    ---       #374
      00FF3B08H   LINE      ECODE    ---       #375
      00FF3B0EH   LINE      ECODE    ---       #377
      00FF3B1AH   LINE      ECODE    ---       #378
      ---         BLOCKEND  ---      ---       LVL=0

      00FF3B1DH   BLOCK     ECODE    ---       LVL=0
      R15         REGSYM    ---      BYTE      ucKeyNum
      WR28        REGSYM    ---      WORD      usTpNum
      R8          REGSYM    ---      BYTE      ucTp_Key_Sel
      00FF3B25H   BLOCK     ECODE    NEAR LAB  LVL=1
      WR30        REGSYM    ---      WORD      Reg
      ---         BLOCKEND  ---      ---       LVL=1
      00FF3B1DH   LINE      ECODE    ---       #394
      00FF3B25H   LINE      ECODE    ---       #395
      00FF3B25H   LINE      ECODE    ---       #398
      00FF3B25H   LINE      ECODE    ---       #400
      00FF3B36H   LINE      ECODE    ---       #401
      00FF3B43H   LINE      ECODE    ---       #403
      00FF3B57H   LINE      ECODE    ---       #405
      00FF3B66H   LINE      ECODE    ---       #406
      00FF3B73H   LINE      ECODE    ---       #407
      ---         BLOCKEND  ---      ---       LVL=0

      00FF3B76H   BLOCK     ECODE    ---       LVL=0
      R11         REGSYM    ---      BYTE      ucBaseMode
      R7          REGSYM    ---      BYTE      ucStep
      WR30        REGSYM    ---      WORD      usBaseTrackReg
      00FF3B76H   LINE      ECODE    ---       #417
      00FF3B76H   LINE      ECODE    ---       #418
      00FF3B76H   LINE      ECODE    ---       #421
      00FF3B84H   LINE      ECODE    ---       #425
      00FF3B93H   LINE      ECODE    ---       #426
      ---         BLOCKEND  ---      ---       LVL=0

      00FF3BA0H   BLOCK     ECODE    ---       LVL=0
      R14         REGSYM    ---      BYTE      ucBaseMode
      R15         REGSYM    ---      BYTE      ucStep
      R8          REGSYM    ---      BYTE      ucId
      00FF3BA8H   BLOCK     ECODE    NEAR LAB  LVL=1
      WR30        REGSYM    ---      WORD      usBaseTrackReg
      ---         BLOCKEND  ---      ---       LVL=1
      00FF3BA0H   LINE      ECODE    ---       #437
      00FF3BA8H   LINE      ECODE    ---       #438
      00FF3BA8H   LINE      ECODE    ---       #442
      00FF3BADH   LINE      ECODE    ---       #444
      00FF3BC3H   LINE      ECODE    ---       #446
      00FF3BD3H   LINE      ECODE    ---       #451
      00FF3BE8H   LINE      ECODE    ---       #452
      00FF3BFCH   LINE      ECODE    ---       #453
      ---         BLOCKEND  ---      ---       LVL=0

      00FF3BFFH   BLOCK     ECODE    ---       LVL=0
      WR28        REGSYM    ---      WORD      usTpCbTarget
      WR30        REGSYM    ---      WORD      usKeyCbTarget
      00FF3BFFH   LINE      ECODE    ---       #463
      00FF3C03H   LINE      ECODE    ---       #465
      00FF3C12H   LINE      ECODE    ---       #466
L251 LINKER/LOCATER V4.65.0.0                                                         05/26/2017  20:22:53  PAGE 82


      00FF3C1FH   LINE      ECODE    ---       #467
      00FF3C2EH   LINE      ECODE    ---       #468
      ---         BLOCKEND  ---      ---       LVL=0

      00FF3C3BH   BLOCK     ECODE    ---       LVL=0
      WR28        REGSYM    ---      WORD      usTpThld
      WR30        REGSYM    ---      WORD      usKeyThld
      00FF3C3BH   LINE      ECODE    ---       #478
      00FF3C3FH   LINE      ECODE    ---       #480
      00FF3C4EH   LINE      ECODE    ---       #481
      00FF3C5BH   LINE      ECODE    ---       #483
      00FF3C6AH   LINE      ECODE    ---       #484
      ---         BLOCKEND  ---      ---       LVL=0

      00FF3C77H   BLOCK     ECODE    ---       LVL=0
      WR6         REGSYM    ---      WORD      i
      000035FBH   SYMBOL    EDATA    ---       usBaseBuff
      00FF3C77H   LINE      ECODE    ---       #494
      00FF3C77H   LINE      ECODE    ---       #495
      00FF3C77H   LINE      ECODE    ---       #499
      00FF3C83H   LINE      ECODE    ---       #501
      00FF3C89H   LINE      ECODE    ---       #504
      00FF3C95H   LINE      ECODE    ---       #506
      00FF3C9AH   LINE      ECODE    ---       #507
      00FF3C9EH   LINE      ECODE    ---       #516
      00FF3CB6H   LINE      ECODE    ---       #517
      00FF3CCEH   LINE      ECODE    ---       #521
      ---         BLOCKEND  ---      ---       LVL=0

      00FF3CDAH   BLOCK     ECODE    ---       LVL=0
      R15         REGSYM    ---      BYTE      ucTabID
      00FF3CDEH   BLOCK     ECODE    NEAR LAB  LVL=1
      WR6         REGSYM    ---      WORD      i
      00001814H   SYMBOL    EDATA    ---       aus_tabbuf
      ---         BLOCKEND  ---      ---       LVL=1
      00FF3CDAH   LINE      ECODE    ---       #531
      00FF3CDEH   LINE      ECODE    ---       #532
      00FF3CDEH   LINE      ECODE    ---       #536
      00FF3CEBH   LINE      ECODE    ---       #539
      00FF3CF7H   LINE      ECODE    ---       #541
      00FF3CFCH   LINE      ECODE    ---       #542
      00FF3D00H   LINE      ECODE    ---       #549
      00FF3D08H   LINE      ECODE    ---       #550
      00FF3D0CH   LINE      ECODE    ---       #551
      00FF3D10H   LINE      ECODE    ---       #552
      00FF3D14H   LINE      ECODE    ---       #554
      00FF3D35H   LINE      ECODE    ---       #555
      00FF3D56H   LINE      ECODE    ---       #563
      ---         BLOCKEND  ---      ---       LVL=0

      00FF3D59H   BLOCK     ECODE    ---       LVL=0
      00FF3D59H   LINE      ECODE    ---       #574
      00FF3D59H   LINE      ECODE    ---       #575
      00FF3D59H   LINE      ECODE    ---       #590
      00FF3D59H   LINE      ECODE    ---       #592
      00FF3D59H   LINE      ECODE    ---       #593
      00FF3D59H   LINE      ECODE    ---       #601
      00FF3D59H   LINE      ECODE    ---       #602
      00FF3D59H   LINE      ECODE    ---       #608
      00FF3D59H   LINE      ECODE    ---       #616
      00FF3D59H   LINE      ECODE    ---       #617
      00FF3D59H   LINE      ECODE    ---       #620
      00FF3D59H   LINE      ECODE    ---       #621
      00FF3D59H   LINE      ECODE    ---       #625
      00FF3D59H   LINE      ECODE    ---       #626
L251 LINKER/LOCATER V4.65.0.0                                                         05/26/2017  20:22:53  PAGE 83


      00FF3D59H   LINE      ECODE    ---       #630
      00FF3D59H   LINE      ECODE    ---       #642
      00FF3D59H   LINE      ECODE    ---       #643
      00FF3D59H   LINE      ECODE    ---       #653
      00FF3D5EH   LINE      ECODE    ---       #656
      00FF3D6FH   LINE      ECODE    ---       #657
      00FF3D7CH   LINE      ECODE    ---       #658
      00FF3D8DH   LINE      ECODE    ---       #659
      00FF3D9AH   LINE      ECODE    ---       #660
      00FF3DABH   LINE      ECODE    ---       #661
      00FF3DB8H   LINE      ECODE    ---       #662
      00FF3DC9H   LINE      ECODE    ---       #663
      00FF3DD6H   LINE      ECODE    ---       #664
      00FF3DE7H   LINE      ECODE    ---       #665
      00FF3DF4H   LINE      ECODE    ---       #666
      00FF3E05H   LINE      ECODE    ---       #667
      00FF3E12H   LINE      ECODE    ---       #668
      00FF3E21H   LINE      ECODE    ---       #669
      00FF3E2EH   LINE      ECODE    ---       #670
      00FF3E3BH   LINE      ECODE    ---       #671
      00FF3E48H   LINE      ECODE    ---       #672
      00FF3E59H   LINE      ECODE    ---       #673
      00FF3E66H   LINE      ECODE    ---       #674
      00FF3E77H   LINE      ECODE    ---       #675
      00FF3E84H   LINE      ECODE    ---       #678
      ---         BLOCKEND  ---      ---       LVL=0

      00FF3E89H   BLOCK     ECODE    ---       LVL=0
      WR20        REGSYM    ---      WORD      usReg0
      WR22        REGSYM    ---      WORD      usReg1
      WR24        REGSYM    ---      WORD      usReg2
      WR26        REGSYM    ---      WORD      usReg3
      00FF3E89H   LINE      ECODE    ---       #690
      00FF3E89H   LINE      ECODE    ---       #691
      00FF3E89H   LINE      ECODE    ---       #705
      00FF3E89H   LINE      ECODE    ---       #716
      00FF3E89H   LINE      ECODE    ---       #720
      00FF3E8DH   LINE      ECODE    ---       #722
      00FF3E8DH   LINE      ECODE    ---       #724
      00FF3E8DH   LINE      ECODE    ---       #725
      00FF3E91H   LINE      ECODE    ---       #734
      00FF3E91H   LINE      ECODE    ---       #736
      00FF3E91H   LINE      ECODE    ---       #737
      00FF3E91H   LINE      ECODE    ---       #743
      00FF3E91H   LINE      ECODE    ---       #744
      00FF3E91H   LINE      ECODE    ---       #750
      00FF3E91H   LINE      ECODE    ---       #751
      00FF3E91H   LINE      ECODE    ---       #757
      00FF3E91H   LINE      ECODE    ---       #758
      00FF3E91H   LINE      ECODE    ---       #764
      00FF3E91H   LINE      ECODE    ---       #765
      00FF3E95H   LINE      ECODE    ---       #766
      00FF3E95H   LINE      ECODE    ---       #767
      00FF3E97H   LINE      ECODE    ---       #770
      00FF3E97H   LINE      ECODE    ---       #771
      00FF3E97H   LINE      ECODE    ---       #772
      00FF3E97H   LINE      ECODE    ---       #781
      00FF3E97H   LINE      ECODE    ---       #782
      00FF3E97H   LINE      ECODE    ---       #788
      00FF3E97H   LINE      ECODE    ---       #789
      00FF3E97H   LINE      ECODE    ---       #794
      00FF3E97H   LINE      ECODE    ---       #795
      00FF3E97H   LINE      ECODE    ---       #796
      00FF3E97H   LINE      ECODE    ---       #797
      00FF3E97H   LINE      ECODE    ---       #799
L251 LINKER/LOCATER V4.65.0.0                                                         05/26/2017  20:22:53  PAGE 84


      00FF3E97H   LINE      ECODE    ---       #800
      00FF3E97H   LINE      ECODE    ---       #804
      00FF3E97H   LINE      ECODE    ---       #805
      00FF3E97H   LINE      ECODE    ---       #806
      00FF3E97H   LINE      ECODE    ---       #807
      00FF3E97H   LINE      ECODE    ---       #808
      00FF3E97H   LINE      ECODE    ---       #809
      00FF3E97H   LINE      ECODE    ---       #812
      00FF3E9CH   LINE      ECODE    ---       #815
      00FF3EABH   LINE      ECODE    ---       #816
      00FF3EB8H   LINE      ECODE    ---       #817
      00FF3EC7H   LINE      ECODE    ---       #818
      00FF3ED4H   LINE      ECODE    ---       #819
      00FF3EE3H   LINE      ECODE    ---       #820
      00FF3EF0H   LINE      ECODE    ---       #821
      00FF3EFFH   LINE      ECODE    ---       #822
      00FF3F0CH   LINE      ECODE    ---       #823
      00FF3F1DH   LINE      ECODE    ---       #824
      00FF3F2AH   LINE      ECODE    ---       #825
      00FF3F3BH   LINE      ECODE    ---       #826
      00FF3F48H   LINE      ECODE    ---       #827
      00FF3F59H   LINE      ECODE    ---       #828
      00FF3F66H   LINE      ECODE    ---       #829
      00FF3F73H   LINE      ECODE    ---       #830
      00FF3F80H   LINE      ECODE    ---       #831
      00FF3F91H   LINE      ECODE    ---       #832
      00FF3F9EH   LINE      ECODE    ---       #833
      00FF3FAFH   LINE      ECODE    ---       #834
      00FF3FBCH   LINE      ECODE    ---       #837
      ---         BLOCKEND  ---      ---       LVL=0

      00FF3FC2H   BLOCK     ECODE    ---       LVL=0
      0000180CH   SYMBOL    EDATA    WORD      usReg1
      0000180EH   SYMBOL    EDATA    WORD      usReg3
      00001810H   SYMBOL    EDATA    WORD      usReg6
      00001812H   SYMBOL    EDATA    WORD      usReg7
      00FF3FC2H   LINE      ECODE    ---       #849
      00FF3FC2H   LINE      ECODE    ---       #850
      00FF3FC2H   LINE      ECODE    ---       #862
      00FF3FC2H   LINE      ECODE    ---       #894
      00FF3FC2H   LINE      ECODE    ---       #895
      00FF3FC2H   LINE      ECODE    ---       #900
      00FF3FC2H   LINE      ECODE    ---       #901
      00FF3FC2H   LINE      ECODE    ---       #906
      00FF3FC2H   LINE      ECODE    ---       #909
      00FF3FC2H   LINE      ECODE    ---       #910
      00FF3FC2H   LINE      ECODE    ---       #913
      00FF3FC7H   LINE      ECODE    ---       #916
      00FF3FD8H   LINE      ECODE    ---       #917
      00FF3FE5H   LINE      ECODE    ---       #918
      00FF3FF6H   LINE      ECODE    ---       #919
      00FF4007H   LINE      ECODE    ---       #920
      00FF4018H   LINE      ECODE    ---       #921
      00FF4025H   LINE      ECODE    ---       #922
      00FF4036H   LINE      ECODE    ---       #923
      00FF4047H   LINE      ECODE    ---       #924
      00FF4058H   LINE      ECODE    ---       #925
      00FF4065H   LINE      ECODE    ---       #926
      00FF4076H   LINE      ECODE    ---       #927
      00FF4083H   LINE      ECODE    ---       #928
      00FF4094H   LINE      ECODE    ---       #929
      00FF40A5H   LINE      ECODE    ---       #930
      00FF40B6H   LINE      ECODE    ---       #931
      00FF40C7H   LINE      ECODE    ---       #932
      00FF40D8H   LINE      ECODE    ---       #933
L251 LINKER/LOCATER V4.65.0.0                                                         05/26/2017  20:22:53  PAGE 85


      00FF40E5H   LINE      ECODE    ---       #934
      00FF40F6H   LINE      ECODE    ---       #935
      00FF4103H   LINE      ECODE    ---       #938
      ---         BLOCKEND  ---      ---       LVL=0

      00FF4109H   BLOCK     ECODE    ---       LVL=0
      00FF4109H   LINE      ECODE    ---       #949
      00FF4109H   LINE      ECODE    ---       #950
      00FF4109H   LINE      ECODE    ---       #964
      00FF4109H   LINE      ECODE    ---       #966
      00FF4109H   LINE      ECODE    ---       #967
      00FF4109H   LINE      ECODE    ---       #970
      00FF4109H   LINE      ECODE    ---       #971
      00FF4109H   LINE      ECODE    ---       #975
      00FF4109H   LINE      ECODE    ---       #976
      00FF4109H   LINE      ECODE    ---       #980
      00FF4109H   LINE      ECODE    ---       #981
      00FF4109H   LINE      ECODE    ---       #985
      00FF4109H   LINE      ECODE    ---       #986
      00FF4109H   LINE      ECODE    ---       #987
      00FF4109H   LINE      ECODE    ---       #988
      00FF4109H   LINE      ECODE    ---       #989
      00FF4109H   LINE      ECODE    ---       #992
      00FF410EH   LINE      ECODE    ---       #995
      00FF411FH   LINE      ECODE    ---       #996
      00FF412CH   LINE      ECODE    ---       #997
      00FF413DH   LINE      ECODE    ---       #998
      00FF414AH   LINE      ECODE    ---       #999
      00FF415BH   LINE      ECODE    ---       #1000
      00FF4168H   LINE      ECODE    ---       #1001
      00FF4179H   LINE      ECODE    ---       #1002
      00FF4186H   LINE      ECODE    ---       #1003
      00FF4197H   LINE      ECODE    ---       #1004
      00FF41A4H   LINE      ECODE    ---       #1005
      00FF41B3H   LINE      ECODE    ---       #1006
      00FF41C0H   LINE      ECODE    ---       #1007
      00FF41CDH   LINE      ECODE    ---       #1008
      00FF41DAH   LINE      ECODE    ---       #1009
      00FF41E7H   LINE      ECODE    ---       #1010
      00FF41F4H   LINE      ECODE    ---       #1011
      00FF4205H   LINE      ECODE    ---       #1012
      00FF4212H   LINE      ECODE    ---       #1013
      00FF4223H   LINE      ECODE    ---       #1014
      00FF4230H   LINE      ECODE    ---       #1017
      ---         BLOCKEND  ---      ---       LVL=0

      00FF4236H   BLOCK     ECODE    ---       LVL=0
      R11         REGSYM    ---      BYTE      ucTestMode
      R7          REGSYM    ---      BYTE      ucScanMode
      R6          REGSYM    ---      BYTE      usScanNum
      00FF4238H   BLOCK     ECODE    NEAR LAB  LVL=1
      0000180CH   SYMBOL    EDATA    WORD      usReg0
      WR26        REGSYM    ---      WORD      usReg1
      0000180EH   SYMBOL    EDATA    WORD      usReg2
      WR12        REGSYM    ---      WORD      usReg3
      WR14        REGSYM    ---      WORD      usReg4
      WR16        REGSYM    ---      WORD      usReg5
      WR18        REGSYM    ---      WORD      usReg6
      WR20        REGSYM    ---      WORD      usReg7
      WR22        REGSYM    ---      WORD      usReg8
      WR24        REGSYM    ---      WORD      usReg9
      ---         BLOCKEND  ---      ---       LVL=1
      00FF4236H   LINE      ECODE    ---       #1030
      00FF4238H   LINE      ECODE    ---       #1031
      00FF4238H   LINE      ECODE    ---       #1045
L251 LINKER/LOCATER V4.65.0.0                                                         05/26/2017  20:22:53  PAGE 86


      00FF424BH   LINE      ECODE    ---       #1047
      00FF424BH   LINE      ECODE    ---       #1049
      00FF4253H   LINE      ECODE    ---       #1051
      00FF4253H   LINE      ECODE    ---       #1054
      00FF425FH   LINE      ECODE    ---       #1057
      00FF425FH   LINE      ECODE    ---       #1058
      00FF4267H   LINE      ECODE    ---       #1062
      00FF4267H   LINE      ECODE    ---       #1063
      00FF426BH   LINE      ECODE    ---       #1067
      00FF426BH   LINE      ECODE    ---       #1068
      00FF426FH   LINE      ECODE    ---       #1072
      00FF4273H   LINE      ECODE    ---       #1073
      00FF4275H   LINE      ECODE    ---       #1074
      00FF4275H   LINE      ECODE    ---       #1075
      00FF4275H   LINE      ECODE    ---       #1076
      00FF4275H   LINE      ECODE    ---       #1077
      00FF4278H   LINE      ECODE    ---       #1080
      00FF4278H   LINE      ECODE    ---       #1082
      00FF4280H   LINE      ECODE    ---       #1084
      00FF4280H   LINE      ECODE    ---       #1085
      00FF428CH   LINE      ECODE    ---       #1089
      00FF428CH   LINE      ECODE    ---       #1090
      00FF4290H   LINE      ECODE    ---       #1095
      00FF4296H   LINE      ECODE    ---       #1096
      00FF4296H   LINE      ECODE    ---       #1099
      00FF4296H   LINE      ECODE    ---       #1100
      00FF429EH   LINE      ECODE    ---       #1105
      00FF429EH   LINE      ECODE    ---       #1106
      00FF42A2H   LINE      ECODE    ---       #1111
      00FF42A4H   LINE      ECODE    ---       #1114
      00FF42A8H   LINE      ECODE    ---       #1115
      00FF42A8H   LINE      ECODE    ---       #1117
      00FF42ABH   LINE      ECODE    ---       #1120
      00FF42ABH   LINE      ECODE    ---       #1122
      00FF42B3H   LINE      ECODE    ---       #1123
      00FF42BFH   LINE      ECODE    ---       #1127
      00FF42C7H   LINE      ECODE    ---       #1129
      00FF42C7H   LINE      ECODE    ---       #1130
      00FF42CBH   LINE      ECODE    ---       #1134
      00FF42CBH   LINE      ECODE    ---       #1135
      00FF42CFH   LINE      ECODE    ---       #1139
      00FF42D1H   LINE      ECODE    ---       #1141
      00FF42D3H   LINE      ECODE    ---       #1142
      00FF42D3H   LINE      ECODE    ---       #1147
      00FF42D7H   LINE      ECODE    ---       #1148
      00FF42DBH   LINE      ECODE    ---       #1156
      00FF42DBH   LINE      ECODE    ---       #1159
      00FF42DBH   LINE      ECODE    ---       #1160
      00FF42DBH   LINE      ECODE    ---       #1161
      00FF42DBH   LINE      ECODE    ---       #1165
      00FF42E0H   LINE      ECODE    ---       #1168
      00FF42F1H   LINE      ECODE    ---       #1169
      00FF4302H   LINE      ECODE    ---       #1170
      00FF4311H   LINE      ECODE    ---       #1171
      00FF431EH   LINE      ECODE    ---       #1172
      00FF432FH   LINE      ECODE    ---       #1173
      00FF4340H   LINE      ECODE    ---       #1174
      00FF434FH   LINE      ECODE    ---       #1175
      00FF435CH   LINE      ECODE    ---       #1176
      00FF436BH   LINE      ECODE    ---       #1177
      00FF4378H   LINE      ECODE    ---       #1178
      00FF4387H   LINE      ECODE    ---       #1179
      00FF4394H   LINE      ECODE    ---       #1180
      00FF43A3H   LINE      ECODE    ---       #1181
      00FF43B0H   LINE      ECODE    ---       #1182
L251 LINKER/LOCATER V4.65.0.0                                                         05/26/2017  20:22:53  PAGE 87


      00FF43BFH   LINE      ECODE    ---       #1183
      00FF43CCH   LINE      ECODE    ---       #1184
      00FF43DBH   LINE      ECODE    ---       #1185
      00FF43E8H   LINE      ECODE    ---       #1186
      00FF43F7H   LINE      ECODE    ---       #1187
      00FF4404H   LINE      ECODE    ---       #1190
      00FF440AH   LINE      ECODE    ---       #1194
      ---         BLOCKEND  ---      ---       LVL=0

      00FF440DH   BLOCK     ECODE    ---       LVL=0
      R9          REGSYM    ---      BYTE      ucTpDir
      R10         REGSYM    ---      BYTE      ucKeyDir
      00FF4411H   BLOCK     ECODE    NEAR LAB  LVL=1
      WR30        REGSYM    ---      WORD      Reg4
      ---         BLOCKEND  ---      ---       LVL=1
      00FF440DH   LINE      ECODE    ---       #1205
      00FF4411H   LINE      ECODE    ---       #1206
      00FF4411H   LINE      ECODE    ---       #1208
      00FF4420H   LINE      ECODE    ---       #1210
      00FF4424H   LINE      ECODE    ---       #1211
      00FF443CH   LINE      ECODE    ---       #1213
      00FF444AH   LINE      ECODE    ---       #1214
      ---         BLOCKEND  ---      ---       LVL=0

      00FF4457H   BLOCK     ECODE    ---       LVL=0
      00FF4459H   BLOCK     ECODE    NEAR LAB  LVL=1
      WR14        REGSYM    ---      WORD      i
      00003DD3H   SYMBOL    EDATA    ---       aus_tabbuf
      ---         BLOCKEND  ---      ---       LVL=1
      00FF4457H   LINE      ECODE    ---       #1225
      00FF4459H   LINE      ECODE    ---       #1226
      00FF4459H   LINE      ECODE    ---       #1230
      00FF4465H   LINE      ECODE    ---       #1231
      00FF4471H   LINE      ECODE    ---       #1232
      00FF4476H   LINE      ECODE    ---       #1233
      00FF448EH   LINE      ECODE    ---       #1235
      00FF4492H   LINE      ECODE    ---       #1237
      00FF44A0H   LINE      ECODE    ---       #1239
      00FF44ACH   LINE      ECODE    ---       #1240
      00FF44ACH   LINE      ECODE    ---       #1242
      00FF44C3H   LINE      ECODE    ---       #1243
      00FF44CBH   LINE      ECODE    ---       #1245
      00FF44D7H   LINE      ECODE    ---       #1246
      00FF44E3H   LINE      ECODE    ---       #1247
      00FF44FBH   LINE      ECODE    ---       #1248
      00FF44FFH   LINE      ECODE    ---       #1250
      00FF450DH   LINE      ECODE    ---       #1252
      00FF4519H   LINE      ECODE    ---       #1253
      00FF4519H   LINE      ECODE    ---       #1254
      00FF4530H   LINE      ECODE    ---       #1255
      00FF4538H   LINE      ECODE    ---       #1257
      00FF4544H   LINE      ECODE    ---       #1258
      00FF4550H   LINE      ECODE    ---       #1259
      00FF4568H   LINE      ECODE    ---       #1260
      00FF456AH   LINE      ECODE    ---       #1262
      00FF4581H   LINE      ECODE    ---       #1263
      00FF4589H   LINE      ECODE    ---       #1264
      00FF45A1H   LINE      ECODE    ---       #1265
      00FF45A3H   LINE      ECODE    ---       #1267
      00FF45BAH   LINE      ECODE    ---       #1268
      00FF45C2H   LINE      ECODE    ---       #1269
      ---         BLOCKEND  ---      ---       LVL=0

      00FF45C5H   BLOCK     ECODE    ---       LVL=0
      WR24        REGSYM    ---      WORD      usTpMonThr
L251 LINKER/LOCATER V4.65.0.0                                                         05/26/2017  20:22:53  PAGE 88


      WR26        REGSYM    ---      WORD      usKeyMonThr
      R8          REGSYM    ---      BYTE      usTabId
      00FF45C5H   LINE      ECODE    ---       #1280
      00FF45CBH   LINE      ECODE    ---       #1283
      00FF45D0H   LINE      ECODE    ---       #1285
      00FF45E8H   LINE      ECODE    ---       #1286
      00FF45FEH   LINE      ECODE    ---       #1287
      00FF4616H   LINE      ECODE    ---       #1288
      ---         BLOCKEND  ---      ---       LVL=0

      00FF462CH   BLOCK     ECODE    ---       LVL=0
      R10         REGSYM    ---      BYTE      ucModeEn
      00FF462EH   BLOCK     ECODE    NEAR LAB  LVL=1
      WR30        REGSYM    ---      WORD      Reg64
      ---         BLOCKEND  ---      ---       LVL=1
      00FF462CH   LINE      ECODE    ---       #1298
      00FF462EH   LINE      ECODE    ---       #1299
      00FF462EH   LINE      ECODE    ---       #1300
      00FF462EH   LINE      ECODE    ---       #1302
      00FF463DH   LINE      ECODE    ---       #1303
      00FF4641H   LINE      ECODE    ---       #1304
      00FF4645H   LINE      ECODE    ---       #1306
      00FF4649H   LINE      ECODE    ---       #1307
      00FF4649H   LINE      ECODE    ---       #1309
      00FF4658H   LINE      ECODE    ---       #1310
      ---         BLOCKEND  ---      ---       LVL=0

      00FF4665H   BLOCK     ECODE    ---       LVL=0
      REG=3       REGSYM    ---      ---       pMcapPara
      00FF4669H   BLOCK     ECODE    NEAR LAB  LVL=1
      0000180CH   SYMBOL    EDATA    WORD      Reg79
      00000021H   SYMBOL    DATA     WORD      Reg66
      ---         BLOCKEND  ---      ---       LVL=1
      00FF4665H   LINE      ECODE    ---       #1320
      00FF4669H   LINE      ECODE    ---       #1321
      00FF4669H   LINE      ECODE    ---       #1322
      00FF4672H   LINE      ECODE    ---       #1328
      00FF4678H   LINE      ECODE    ---       #1332
      00FF4678H   LINE      ECODE    ---       #1335
      00FF467DH   LINE      ECODE    ---       #1336
      00FF467DH   LINE      ECODE    ---       #1347
      00FF4692H   LINE      ECODE    ---       #1348
      00FF46A7H   LINE      ECODE    ---       #1350
      00FF46B3H   LINE      ECODE    ---       #1352
      00FF46BFH   LINE      ECODE    ---       #1354
      00FF46BFH   LINE      ECODE    ---       #1362
      00FF46F9H   LINE      ECODE    ---       #1367
      00FF4703H   LINE      ECODE    ---       #1368
      00FF4710H   LINE      ECODE    ---       #1369
      00FF4720H   LINE      ECODE    ---       #1372
      00FF4731H   LINE      ECODE    ---       #1373
      00FF4742H   LINE      ECODE    ---       #1401
      ---         BLOCKEND  ---      ---       LVL=0

      00FF4745H   BLOCK     ECODE    ---       LVL=0
      REG=7       REGSYM    ---      ---       pMcapPara
      00000021H   SYMBOL    DATA     ---       pAfeTabPara
      R13         REGSYM    ---      BYTE      ucTabId
      00FF4750H   BLOCK     ECODE    NEAR LAB  LVL=1
      0000180CH   SYMBOL    EDATA    WORD      Reg1
      0000180EH   SYMBOL    EDATA    WORD      Reg2
      00001810H   SYMBOL    EDATA    WORD      Reg3
      WR14        REGSYM    ---      WORD      Reg64
      00001812H   SYMBOL    EDATA    WORD      ucTemp
      ---         BLOCKEND  ---      ---       LVL=1
L251 LINKER/LOCATER V4.65.0.0                                                         05/26/2017  20:22:53  PAGE 89


      00FF4745H   LINE      ECODE    ---       #1412
      00FF4750H   LINE      ECODE    ---       #1413
      00FF4750H   LINE      ECODE    ---       #1414
      00FF475BH   LINE      ECODE    ---       #1415
      00FF4763H   LINE      ECODE    ---       #1416
      00FF476BH   LINE      ECODE    ---       #1417
      00FF476BH   LINE      ECODE    ---       #1420
      00FF477AH   LINE      ECODE    ---       #1422
      00FF4780H   LINE      ECODE    ---       #1424
      00FF4783H   LINE      ECODE    ---       #1425
      00FF4786H   LINE      ECODE    ---       #1428
      00FF4789H   LINE      ECODE    ---       #1430
      00FF479FH   LINE      ECODE    ---       #1432
      00FF47AEH   LINE      ECODE    ---       #1434
      00FF47B3H   LINE      ECODE    ---       #1436
      00FF47DBH   LINE      ECODE    ---       #1437
      00FF47F5H   LINE      ECODE    ---       #1438
      00FF4809H   LINE      ECODE    ---       #1440
      00FF481CH   LINE      ECODE    ---       #1441
      00FF482FH   LINE      ECODE    ---       #1442
      00FF4842H   LINE      ECODE    ---       #1444
      00FF485AH   LINE      ECODE    ---       #1445
      00FF4872H   LINE      ECODE    ---       #1446
      00FF488AH   LINE      ECODE    ---       #1447
      00FF48A2H   LINE      ECODE    ---       #1448
      00FF48BCH   LINE      ECODE    ---       #1449
      00FF48D6H   LINE      ECODE    ---       #1450
      00FF48E1H   LINE      ECODE    ---       #1451
      00FF48ECH   LINE      ECODE    ---       #1452
      00FF48F7H   LINE      ECODE    ---       #1454
      00FF48F7H   LINE      ECODE    ---       #1455
      00FF4906H   LINE      ECODE    ---       #1456
      00FF4913H   LINE      ECODE    ---       #1457
      ---         BLOCKEND  ---      ---       LVL=0

      00FF4918H   BLOCK     ECODE    ---       LVL=0
      REG=7       REGSYM    ---      ---       pMcapPara
      00FF4918H   LINE      ECODE    ---       #1467
      00FF491AH   LINE      ECODE    ---       #1470
      00FF4927H   LINE      ECODE    ---       #1471
      00FF493DH   LINE      ECODE    ---       #1473
      00FF4941H   LINE      ECODE    ---       #1474
      00FF4941H   LINE      ECODE    ---       #1475
      00FF4952H   LINE      ECODE    ---       #1476
      ---         BLOCKEND  ---      ---       LVL=0

      00FF4963H   BLOCK     ECODE    ---       LVL=0
      REG=3       REGSYM    ---      ---       pMcapPara
      R10         REGSYM    ---      BYTE      ucScanMode
      00FF4969H   BLOCK     ECODE    NEAR LAB  LVL=1
      0000180CH   SYMBOL    EDATA    BYTE      ucDummyNum
      0000180DH   SYMBOL    EDATA    BYTE      flag
      ---         BLOCKEND  ---      ---       LVL=1
      00FF4963H   LINE      ECODE    ---       #1486
      00FF4969H   LINE      ECODE    ---       #1487
      00FF4969H   LINE      ECODE    ---       #1489
      00FF496EH   LINE      ECODE    ---       #1492
      00FF4998H   LINE      ECODE    ---       #1494
      00FF4998H   LINE      ECODE    ---       #1495
      00FF4998H   LINE      ECODE    ---       #1496
      00FF4998H   LINE      ECODE    ---       #1497
      00FF4998H   LINE      ECODE    ---       #1498
      00FF4998H   LINE      ECODE    ---       #1499
      00FF4998H   LINE      ECODE    ---       #1501
      00FF49A7H   LINE      ECODE    ---       #1503
L251 LINKER/LOCATER V4.65.0.0                                                         05/26/2017  20:22:53  PAGE 90


      00FF49ABH   LINE      ECODE    ---       #1504
      00FF49AEH   LINE      ECODE    ---       #1507
      00FF49B8H   LINE      ECODE    ---       #1508
      00FF49B8H   LINE      ECODE    ---       #1509
      00FF49BBH   LINE      ECODE    ---       #1512
      00FF49BBH   LINE      ECODE    ---       #1514
      00FF49D6H   LINE      ECODE    ---       #1516
      00FF49E2H   LINE      ECODE    ---       #1517
      00FF49E5H   LINE      ECODE    ---       #1520
      00FF49E9H   LINE      ECODE    ---       #1521
      00FF49E9H   LINE      ECODE    ---       #1522
      00FF49ECH   LINE      ECODE    ---       #1525
      00FF49ECH   LINE      ECODE    ---       #1527
      00FF49F8H   LINE      ECODE    ---       #1528
      00FF4A04H   LINE      ECODE    ---       #1529
      00FF4A09H   LINE      ECODE    ---       #1530
      00FF4A0DH   LINE      ECODE    ---       #1533
      00FF4A0DH   LINE      ECODE    ---       #1535
      00FF4A19H   LINE      ECODE    ---       #1536
      00FF4A1DH   LINE      ECODE    ---       #1538
      00FF4A1DH   LINE      ECODE    ---       #1540
      00FF4A29H   LINE      ECODE    ---       #1542
      00FF4A3BH   LINE      ECODE    ---       #1544
      00FF4A50H   LINE      ECODE    ---       #1546
      00FF4A67H   LINE      ECODE    ---       #1548
      00FF4A6DH   LINE      ECODE    ---       #1549
      00FF4A79H   LINE      ECODE    ---       #1550
      00FF4A99H   LINE      ECODE    ---       #1551
      00FF4AA7H   LINE      ECODE    ---       #1552
      00FF4AA7H   LINE      ECODE    ---       #1555
      00FF4ABFH   LINE      ECODE    ---       #1557
      00FF4AD8H   LINE      ECODE    ---       #1559
      00FF4ADEH   LINE      ECODE    ---       #1560
      00FF4AEAH   LINE      ECODE    ---       #1561
      00FF4B0CH   LINE      ECODE    ---       #1562
      00FF4B1CH   LINE      ECODE    ---       #1563
      00FF4B1CH   LINE      ECODE    ---       #1566
      00FF4B2EH   LINE      ECODE    ---       #1568
      00FF4B45H   LINE      ECODE    ---       #1570
      00FF4B4BH   LINE      ECODE    ---       #1571
      00FF4B57H   LINE      ECODE    ---       #1572
      00FF4B77H   LINE      ECODE    ---       #1573
      00FF4B85H   LINE      ECODE    ---       #1574
      00FF4B85H   LINE      ECODE    ---       #1577
      00FF4B9AH   LINE      ECODE    ---       #1579
      00FF4BB3H   LINE      ECODE    ---       #1581
      00FF4BB9H   LINE      ECODE    ---       #1582
      00FF4BC5H   LINE      ECODE    ---       #1583
      00FF4BE7H   LINE      ECODE    ---       #1584
      00FF4BF7H   LINE      ECODE    ---       #1585
      00FF4BF7H   LINE      ECODE    ---       #1587
      00FF4BF7H   LINE      ECODE    ---       #1588
      00FF4BF7H   LINE      ECODE    ---       #1589
      00FF4BFBH   LINE      ECODE    ---       #1590
      ---         BLOCKEND  ---      ---       LVL=0

      00FF4BFEH   BLOCK     ECODE    ---       LVL=0
      REG=6       REGSYM    ---      ---       pMcapPara
      00FF4C00H   BLOCK     ECODE    NEAR LAB  LVL=1
      WR30        REGSYM    ---      WORD      Reg64
      WR28        REGSYM    ---      WORD      Reg65
      ---         BLOCKEND  ---      ---       LVL=1
      00FF4BFEH   LINE      ECODE    ---       #1599
      00FF4C00H   LINE      ECODE    ---       #1600
      00FF4C00H   LINE      ECODE    ---       #1603
L251 LINKER/LOCATER V4.65.0.0                                                         05/26/2017  20:22:53  PAGE 91


      00FF4C0FH   LINE      ECODE    ---       #1605
      00FF4C13H   LINE      ECODE    ---       #1607
      00FF4C1AH   LINE      ECODE    ---       #1609
      00FF4C1EH   LINE      ECODE    ---       #1610
      00FF4C2DH   LINE      ECODE    ---       #1611
      00FF4C31H   LINE      ECODE    ---       #1612
      00FF4C38H   LINE      ECODE    ---       #1614
      00FF4C3CH   LINE      ECODE    ---       #1616
      00FF4C4BH   LINE      ECODE    ---       #1617
      00FF4C58H   LINE      ECODE    ---       #1618
      00FF4C58H   LINE      ECODE    ---       #1620
      00FF4C67H   LINE      ECODE    ---       #1621
      00FF4C74H   LINE      ECODE    ---       #1622
      ---         BLOCKEND  ---      ---       LVL=0

      00FF4C75H   BLOCK     ECODE    ---       LVL=0
      REG=6       REGSYM    ---      ---       pMcapPara
      00FF4C77H   BLOCK     ECODE    NEAR LAB  LVL=1
      WR30        REGSYM    ---      WORD      Reg64
      WR28        REGSYM    ---      WORD      Reg67
      WR28        REGSYM    ---      WORD      Reg68
      ---         BLOCKEND  ---      ---       LVL=1
      00FF4C75H   LINE      ECODE    ---       #1631
      00FF4C77H   LINE      ECODE    ---       #1632
      00FF4C77H   LINE      ECODE    ---       #1637
      00FF4C86H   LINE      ECODE    ---       #1639
      00FF4C8AH   LINE      ECODE    ---       #1641
      00FF4C90H   LINE      ECODE    ---       #1643
      00FF4C9EH   LINE      ECODE    ---       #1644
      00FF4CABH   LINE      ECODE    ---       #1646
      00FF4CB1H   LINE      ECODE    ---       #1648
      00FF4CB5H   LINE      ECODE    ---       #1649
      00FF4CC3H   LINE      ECODE    ---       #1650
      00FF4CD2H   LINE      ECODE    ---       #1651
      00FF4CDFH   LINE      ECODE    ---       #1661
      00FF4CDFH   LINE      ECODE    ---       #1663
      00FF4CEEH   LINE      ECODE    ---       #1664
      ---         BLOCKEND  ---      ---       LVL=0

      00FF4CFBH   BLOCK     ECODE    ---       LVL=0
      REG=3       REGSYM    ---      ---       pMcapPara
      00FF4CFFH   BLOCK     ECODE    NEAR LAB  LVL=1
      0000180CH   SYMBOL    EDATA    WORD      Reg64
      00000021H   SYMBOL    DATA     WORD      Reg72
      00000023H   SYMBOL    DATA     WORD      Reg73
      00000025H   SYMBOL    DATA     WORD      Reg74
      00000027H   SYMBOL    DATA     WORD      Reg75
      WR26        REGSYM    ---      WORD      Reg76
      WR28        REGSYM    ---      WORD      Reg77
      WR30        REGSYM    ---      WORD      Reg78
      ---         BLOCKEND  ---      ---       LVL=1
      00FF4CFBH   LINE      ECODE    ---       #1674
      00FF4CFFH   LINE      ECODE    ---       #1675
      00FF4CFFH   LINE      ECODE    ---       #1678
      00FF4D10H   LINE      ECODE    ---       #1679
      00FF4D17H   LINE      ECODE    ---       #1680
      00FF4D20H   LINE      ECODE    ---       #1682
      00FF4D2BH   LINE      ECODE    ---       #1684
      00FF4D35H   LINE      ECODE    ---       #1685
      00FF4D3FH   LINE      ECODE    ---       #1686
      00FF4D49H   LINE      ECODE    ---       #1687
      00FF4D53H   LINE      ECODE    ---       #1689
      00FF4D5EH   LINE      ECODE    ---       #1690
      00FF4D67H   LINE      ECODE    ---       #1692
      00FF4D72H   LINE      ECODE    ---       #1693
L251 LINKER/LOCATER V4.65.0.0                                                         05/26/2017  20:22:53  PAGE 92


      00FF4D81H   LINE      ECODE    ---       #1694
      00FF4D89H   LINE      ECODE    ---       #1695
      00FF4D91H   LINE      ECODE    ---       #1696
      00FF4D99H   LINE      ECODE    ---       #1698
      00FF4DA8H   LINE      ECODE    ---       #1699
      00FF4DB5H   LINE      ECODE    ---       #1701
      00FF4DC4H   LINE      ECODE    ---       #1702
      00FF4DD1H   LINE      ECODE    ---       #1704
      00FF4DE0H   LINE      ECODE    ---       #1705
      00FF4DEDH   LINE      ECODE    ---       #1706
      00FF4DEDH   LINE      ECODE    ---       #1709
      00FF4DFEH   LINE      ECODE    ---       #1710
      00FF4E0FH   LINE      ECODE    ---       #1712
      00FF4E21H   LINE      ECODE    ---       #1714
      00FF4E31H   LINE      ECODE    ---       #1715
      00FF4E41H   LINE      ECODE    ---       #1717
      00FF4E51H   LINE      ECODE    ---       #1718
      00FF4E61H   LINE      ECODE    ---       #1720
      00FF4E71H   LINE      ECODE    ---       #1721
      00FF4E81H   LINE      ECODE    ---       #1723
      00FF4E91H   LINE      ECODE    ---       #1724
      00FF4EA1H   LINE      ECODE    ---       #1725
      ---         BLOCKEND  ---      ---       LVL=0

      00FF4EA4H   BLOCK     ECODE    ---       LVL=0
      REG=6       REGSYM    ---      ---       pMcapPara
      REG=5       REGSYM    ---      ---       pAfeTab
      R8          REGSYM    ---      BYTE      ucTabId
      00FF4EAAH   BLOCK     ECODE    NEAR LAB  LVL=1
      WR6         REGSYM    ---      WORD      ucReg
      ---         BLOCKEND  ---      ---       LVL=1
      00FF4EA4H   LINE      ECODE    ---       #1736
      00FF4EAAH   LINE      ECODE    ---       #1737
      00FF4EAAH   LINE      ECODE    ---       #1741
      00FF4EAFH   LINE      ECODE    ---       #1744
      00FF4EC5H   LINE      ECODE    ---       #1745
      00FF4EC9H   LINE      ECODE    ---       #1746
      00FF4ED0H   LINE      ECODE    ---       #1748
      00FF4EE5H   LINE      ECODE    ---       #1749
      00FF4EE9H   LINE      ECODE    ---       #1750
      00FF4EF0H   LINE      ECODE    ---       #1753
      00FF4F03H   LINE      ECODE    ---       #1754
      00FF4F07H   LINE      ECODE    ---       #1755
      00FF4F19H   LINE      ECODE    ---       #1756
      00FF4F23H   LINE      ECODE    ---       #1759
      00FF4F36H   LINE      ECODE    ---       #1760
      00FF4F3AH   LINE      ECODE    ---       #1761
      00FF4F46H   LINE      ECODE    ---       #1764
      00FF4F5BH   LINE      ECODE    ---       #1765
      00FF4F5FH   LINE      ECODE    ---       #1766
      00FF4F69H   LINE      ECODE    ---       #1767
      00FF4F7DH   LINE      ECODE    ---       #1768
      00FF4F87H   LINE      ECODE    ---       #1771
      00FF4F8DH   LINE      ECODE    ---       #1772
      00FF4F91H   LINE      ECODE    ---       #1773
      00FF4F97H   LINE      ECODE    ---       #1774
      00FF4F9BH   LINE      ECODE    ---       #1775
      00FF4FA3H   LINE      ECODE    ---       #1776
      00FF4FABH   LINE      ECODE    ---       #1777
      00FF4FB3H   LINE      ECODE    ---       #1778
      00FF4FBBH   LINE      ECODE    ---       #1779
      00FF4FC3H   LINE      ECODE    ---       #1780
      00FF4FCBH   LINE      ECODE    ---       #1781
      00FF4FD3H   LINE      ECODE    ---       #1782
      00FF4FDBH   LINE      ECODE    ---       #1783
L251 LINKER/LOCATER V4.65.0.0                                                         05/26/2017  20:22:53  PAGE 93


      00FF4FE3H   LINE      ECODE    ---       #1786
      00FF4FE8H   LINE      ECODE    ---       #1789
      00FF4FEEH   LINE      ECODE    ---       #1792
      00FF4FF4H   LINE      ECODE    ---       #1800
      00FF4FF9H   LINE      ECODE    ---       #1801
      00FF4FFFH   LINE      ECODE    ---       #1802
      00FF5004H   LINE      ECODE    ---       #1803
      00FF500EH   LINE      ECODE    ---       #1806
      00FF5012H   LINE      ECODE    ---       #1807
      00FF5016H   LINE      ECODE    ---       #1808
      00FF501EH   LINE      ECODE    ---       #1809
      00FF5022H   LINE      ECODE    ---       #1810
      00FF502AH   LINE      ECODE    ---       #1811
      00FF5032H   LINE      ECODE    ---       #1814
      00FF5036H   LINE      ECODE    ---       #1815
      00FF503AH   LINE      ECODE    ---       #1816
      00FF503EH   LINE      ECODE    ---       #1817
      00FF5042H   LINE      ECODE    ---       #1820
      00FF5045H   LINE      ECODE    ---       #1821
      00FF5049H   LINE      ECODE    ---       #1822
      00FF504DH   LINE      ECODE    ---       #1824
      ---         BLOCKEND  ---      ---       LVL=0

      00FF504EH   BLOCK     ECODE    ---       LVL=0
      R11         REGSYM    ---      BYTE      ucModeEn
      R15         REGSYM    ---      BYTE      ucTabId
      00FF5052H   BLOCK     ECODE    NEAR LAB  LVL=1
      R11         REGSYM    ---      BYTE      ucScanMode
      R14         REGSYM    ---      BYTE      i
      WR12        REGSYM    ---      WORD      ucTalReg1
      WR12        REGSYM    ---      WORD      ucReg
      ---         BLOCKEND  ---      ---       LVL=1
      00FF504EH   LINE      ECODE    ---       #1834
      00FF5052H   LINE      ECODE    ---       #1835
      00FF5052H   LINE      ECODE    ---       #1839
      00FF5054H   LINE      ECODE    ---       #1841
      00FF5059H   LINE      ECODE    ---       #1842
      00FF505CH   LINE      ECODE    ---       #1843
      00FF505CH   LINE      ECODE    ---       #1847
      00FF506CH   LINE      ECODE    ---       #1849
      00FF5072H   LINE      ECODE    ---       #1850
      00FF5072H   LINE      ECODE    ---       #1854
      00FF507BH   LINE      ECODE    ---       #1857
      00FF508BH   LINE      ECODE    ---       #1860
      00FF5094H   LINE      ECODE    ---       #1863
      00FF509BH   LINE      ECODE    ---       #1864
      00FF50A4H   LINE      ECODE    ---       #1866
      00FF50AFH   LINE      ECODE    ---       #1867
      00FF50C0H   LINE      ECODE    ---       #1868
      00FF50CFH   LINE      ECODE    ---       #1869
      00FF50E5H   LINE      ECODE    ---       #1870
      00FF50F9H   LINE      ECODE    ---       #1871
      00FF50F9H   LINE      ECODE    ---       #1874
      00FF5102H   LINE      ECODE    ---       #1877
      00FF510BH   LINE      ECODE    ---       #1880
      00FF5114H   LINE      ECODE    ---       #1882
      00FF512CH   LINE      ECODE    ---       #1886
      00FF5138H   LINE      ECODE    ---       #1887
      00FF513AH   LINE      ECODE    ---       #1889
      00FF5147H   LINE      ECODE    ---       #1890
      00FF515BH   LINE      ECODE    ---       #1891
      00FF5168H   LINE      ECODE    ---       #1892
      00FF517CH   LINE      ECODE    ---       #1893
      00FF5183H   LINE      ECODE    ---       #1895
      00FF518FH   LINE      ECODE    ---       #1896
L251 LINKER/LOCATER V4.65.0.0                                                         05/26/2017  20:22:53  PAGE 94


      00FF5191H   LINE      ECODE    ---       #1898
      00FF51A9H   LINE      ECODE    ---       #1899
      00FF51BDH   LINE      ECODE    ---       #1900
      00FF51D5H   LINE      ECODE    ---       #1901
      00FF51E9H   LINE      ECODE    ---       #1902
      00FF51F0H   LINE      ECODE    ---       #1904
      ---         BLOCKEND  ---      ---       LVL=0

      00FF51F3H   BLOCK     ECODE    ---       LVL=0
      REG=3       REGSYM    ---      ---       pMcapPara
      00FF51F7H   BLOCK     ECODE    NEAR LAB  LVL=1
      WR6         REGSYM    ---      WORD      Reg65
      ---         BLOCKEND  ---      ---       LVL=1
      00FF51F3H   LINE      ECODE    ---       #1914
      00FF51F7H   LINE      ECODE    ---       #1915
      00FF51F7H   LINE      ECODE    ---       #1919
      00FF5204H   LINE      ECODE    ---       #1920
      00FF5218H   LINE      ECODE    ---       #1921
      00FF5229H   LINE      ECODE    ---       #1922
      00FF5237H   LINE      ECODE    ---       #1923
      00FF5243H   LINE      ECODE    ---       #1924
      00FF524BH   LINE      ECODE    ---       #1926
      00FF5260H   LINE      ECODE    ---       #1928
      00FF5275H   LINE      ECODE    ---       #1931
      ---         BLOCKEND  ---      ---       LVL=0

      00FF5278H   BLOCK     ECODE    ---       LVL=0
      R10         REGSYM    ---      BYTE      ucMode
      R8          REGSYM    ---      BYTE      ucKeyNum
      00FF527CH   BLOCK     ECODE    NEAR LAB  LVL=1
      WR30        REGSYM    ---      WORD      ucReg04
      WR30        REGSYM    ---      WORD      ucReg51
      ---         BLOCKEND  ---      ---       LVL=1
      00FF5278H   LINE      ECODE    ---       #1940
      00FF527CH   LINE      ECODE    ---       #1941
      00FF527CH   LINE      ECODE    ---       #1943
      00FF528BH   LINE      ECODE    ---       #1945
      00FF528FH   LINE      ECODE    ---       #1946
      00FF5293H   LINE      ECODE    ---       #1948
      00FF5297H   LINE      ECODE    ---       #1949
      00FF5297H   LINE      ECODE    ---       #1950
      00FF52A6H   LINE      ECODE    ---       #1951
      00FF52B3H   LINE      ECODE    ---       #1953
      00FF52BFH   LINE      ECODE    ---       #1955
      00FF52CEH   LINE      ECODE    ---       #1956
      ---         BLOCKEND  ---      ---       LVL=0

      00FF52DBH   BLOCK     ECODE    ---       LVL=0
      R15         REGSYM    ---      BYTE      ucDiv
      00FF52DBH   LINE      ECODE    ---       #1967
      00FF52DFH   LINE      ECODE    ---       #1969
      00FF52E6H   LINE      ECODE    ---       #1971
      00FF52EEH   LINE      ECODE    ---       #1972
      00FF52F1H   LINE      ECODE    ---       #1973
      00FF52F1H   LINE      ECODE    ---       #1975
      00FF52F9H   LINE      ECODE    ---       #1977
      00FF5305H   LINE      ECODE    ---       #1978
      00FF5308H   LINE      ECODE    ---       #1979
      00FF530BH   LINE      ECODE    ---       #1980
      00FF530BH   LINE      ECODE    ---       #1981
      00FF530EH   LINE      ECODE    ---       #1982
      00FF5311H   LINE      ECODE    ---       #1983
      00FF5314H   LINE      ECODE    ---       #1984
      00FF5317H   LINE      ECODE    ---       #1986
      00FF531AH   LINE      ECODE    ---       #1988
L251 LINKER/LOCATER V4.65.0.0                                                         05/26/2017  20:22:53  PAGE 95


      00FF532DH   LINE      ECODE    ---       #1989
      00FF5340H   LINE      ECODE    ---       #1990
      00FF5353H   LINE      ECODE    ---       #1991
      00FF5366H   LINE      ECODE    ---       #1992
      00FF5379H   LINE      ECODE    ---       #1993
      00FF5385H   LINE      ECODE    ---       #1995
      ---         BLOCKEND  ---      ---       LVL=0

      00FF5388H   BLOCK     ECODE    ---       LVL=0
      R15         REGSYM    ---      BYTE      ucDiv
      00FF538CH   BLOCK     ECODE    NEAR LAB  LVL=1
      R14         REGSYM    ---      BYTE      ucSrc
      ---         BLOCKEND  ---      ---       LVL=1
      00FF5388H   LINE      ECODE    ---       #2004
      00FF538CH   LINE      ECODE    ---       #2005
      00FF538CH   LINE      ECODE    ---       #2006
      00FF538FH   LINE      ECODE    ---       #2009
      00FF5396H   LINE      ECODE    ---       #2011
      00FF539EH   LINE      ECODE    ---       #2012
      00FF53A1H   LINE      ECODE    ---       #2013
      00FF53A1H   LINE      ECODE    ---       #2015
      00FF53A9H   LINE      ECODE    ---       #2017
      00FF53B5H   LINE      ECODE    ---       #2018
      00FF53B8H   LINE      ECODE    ---       #2019
      00FF53BBH   LINE      ECODE    ---       #2020
      00FF53BBH   LINE      ECODE    ---       #2022
      00FF53BEH   LINE      ECODE    ---       #2023
      00FF53C1H   LINE      ECODE    ---       #2024
      00FF53C4H   LINE      ECODE    ---       #2025
      00FF53C7H   LINE      ECODE    ---       #2027
      00FF53CCH   LINE      ECODE    ---       #2029
      00FF53CFH   LINE      ECODE    ---       #2030
      00FF53D1H   LINE      ECODE    ---       #2031
      00FF53D6H   LINE      ECODE    ---       #2033
      00FF53D9H   LINE      ECODE    ---       #2034
      00FF53DBH   LINE      ECODE    ---       #2035
      00FF53E0H   LINE      ECODE    ---       #2037
      00FF53E3H   LINE      ECODE    ---       #2038
      00FF53E6H   LINE      ECODE    ---       #2039
      00FF53E6H   LINE      ECODE    ---       #2041
      00FF53F0H   LINE      ECODE    ---       #2043
      00FF5403H   LINE      ECODE    ---       #2044
      00FF5416H   LINE      ECODE    ---       #2045
      00FF5429H   LINE      ECODE    ---       #2046
      00FF543CH   LINE      ECODE    ---       #2047
      00FF544FH   LINE      ECODE    ---       #2048
      00FF5462H   LINE      ECODE    ---       #2049
      00FF546EH   LINE      ECODE    ---       #2051
      ---         BLOCKEND  ---      ---       LVL=0

      00FF5471H   BLOCK     ECODE    ---       LVL=0
      R8          REGSYM    ---      BYTE      ucPin
      R7          REGSYM    ---      BYTE      ucAfePin
      00FF5475H   BLOCK     ECODE    NEAR LAB  LVL=1
      R15         REGSYM    ---      BYTE      ucSfrCon
      WR30        REGSYM    ---      WORD      ucConfig
      ---         BLOCKEND  ---      ---       LVL=1
      00FF5471H   LINE      ECODE    ---       #2061
      00FF5475H   LINE      ECODE    ---       #2062
      00FF5475H   LINE      ECODE    ---       #2065
      00FF5479H   LINE      ECODE    ---       #2067
      00FF5481H   LINE      ECODE    ---       #2069
      00FF548CH   LINE      ECODE    ---       #2070
      00FF5499H   LINE      ECODE    ---       #2071
      00FF549CH   LINE      ECODE    ---       #2072
L251 LINKER/LOCATER V4.65.0.0                                                         05/26/2017  20:22:53  PAGE 96


      00FF549EH   LINE      ECODE    ---       #2075
      00FF54A9H   LINE      ECODE    ---       #2076
      00FF54B6H   LINE      ECODE    ---       #2077
      00FF54B9H   LINE      ECODE    ---       #2078
      00FF54B9H   LINE      ECODE    ---       #2080
      00FF54BDH   LINE      ECODE    ---       #2082
      00FF54C0H   LINE      ECODE    ---       #2083
      00FF54C2H   LINE      ECODE    ---       #2084
      00FF54C7H   LINE      ECODE    ---       #2086
      00FF54CAH   LINE      ECODE    ---       #2087
      00FF54CCH   LINE      ECODE    ---       #2088
      00FF54D1H   LINE      ECODE    ---       #2090
      00FF54D4H   LINE      ECODE    ---       #2091
      00FF54D6H   LINE      ECODE    ---       #2092
      00FF54DBH   LINE      ECODE    ---       #2094
      00FF54DEH   LINE      ECODE    ---       #2095
      00FF54DEH   LINE      ECODE    ---       #2096
      00FF54EAH   LINE      ECODE    ---       #2097
      ---         BLOCKEND  ---      ---       LVL=0

      00FF54EDH   BLOCK     ECODE    ---       LVL=0
      R8          REGSYM    ---      BYTE      ucPin
      R7          REGSYM    ---      BYTE      ucAfePin
      00FF54F1H   BLOCK     ECODE    NEAR LAB  LVL=1
      R15         REGSYM    ---      BYTE      ucSfrCon
      WR30        REGSYM    ---      WORD      ucConfig
      ---         BLOCKEND  ---      ---       LVL=1
      00FF54EDH   LINE      ECODE    ---       #2107
      00FF54F1H   LINE      ECODE    ---       #2108
      00FF54F1H   LINE      ECODE    ---       #2111
      00FF54F5H   LINE      ECODE    ---       #2113
      00FF54FDH   LINE      ECODE    ---       #2115
      00FF5508H   LINE      ECODE    ---       #2116
      00FF5515H   LINE      ECODE    ---       #2117
      00FF5518H   LINE      ECODE    ---       #2118
      00FF551AH   LINE      ECODE    ---       #2121
      00FF5525H   LINE      ECODE    ---       #2122
      00FF5532H   LINE      ECODE    ---       #2123
      00FF5535H   LINE      ECODE    ---       #2124
      00FF5535H   LINE      ECODE    ---       #2125
      00FF5539H   LINE      ECODE    ---       #2127
      00FF553CH   LINE      ECODE    ---       #2128
      00FF553EH   LINE      ECODE    ---       #2129
      00FF5543H   LINE      ECODE    ---       #2131
      00FF5546H   LINE      ECODE    ---       #2132
      00FF5548H   LINE      ECODE    ---       #2133
      00FF554DH   LINE      ECODE    ---       #2135
      00FF5550H   LINE      ECODE    ---       #2136
      00FF5552H   LINE      ECODE    ---       #2137
      00FF5557H   LINE      ECODE    ---       #2139
      00FF555AH   LINE      ECODE    ---       #2140
      00FF555AH   LINE      ECODE    ---       #2141
      00FF5566H   LINE      ECODE    ---       #2142
      ---         BLOCKEND  ---      ---       LVL=0

      00FF5569H   BLOCK     ECODE    ---       LVL=0
      R8          REGSYM    ---      BYTE      ucPin
      R7          REGSYM    ---      BYTE      ucAfePin
      00FF556DH   BLOCK     ECODE    NEAR LAB  LVL=1
      R15         REGSYM    ---      BYTE      ucSfrCon
      WR30        REGSYM    ---      WORD      ucConfig
      ---         BLOCKEND  ---      ---       LVL=1
      00FF5569H   LINE      ECODE    ---       #2151
      00FF556DH   LINE      ECODE    ---       #2152
      00FF556DH   LINE      ECODE    ---       #2155
L251 LINKER/LOCATER V4.65.0.0                                                         05/26/2017  20:22:53  PAGE 97


      00FF5571H   LINE      ECODE    ---       #2157
      00FF5579H   LINE      ECODE    ---       #2159
      00FF5584H   LINE      ECODE    ---       #2160
      00FF5591H   LINE      ECODE    ---       #2161
      00FF5594H   LINE      ECODE    ---       #2162
      00FF5596H   LINE      ECODE    ---       #2165
      00FF55A1H   LINE      ECODE    ---       #2166
      00FF55AEH   LINE      ECODE    ---       #2167
      00FF55B1H   LINE      ECODE    ---       #2168
      00FF55B1H   LINE      ECODE    ---       #2169
      00FF55B5H   LINE      ECODE    ---       #2171
      00FF55B8H   LINE      ECODE    ---       #2172
      00FF55BAH   LINE      ECODE    ---       #2173
      00FF55BFH   LINE      ECODE    ---       #2175
      00FF55C2H   LINE      ECODE    ---       #2176
      00FF55C4H   LINE      ECODE    ---       #2177
      00FF55C9H   LINE      ECODE    ---       #2179
      00FF55CCH   LINE      ECODE    ---       #2180
      00FF55CEH   LINE      ECODE    ---       #2181
      00FF55D3H   LINE      ECODE    ---       #2183
      00FF55D6H   LINE      ECODE    ---       #2184
      00FF55D6H   LINE      ECODE    ---       #2185
      00FF55E2H   LINE      ECODE    ---       #2186
      ---         BLOCKEND  ---      ---       LVL=0

      00FF55E5H   BLOCK     ECODE    ---       LVL=0
      R8          REGSYM    ---      BYTE      ucPin
      R7          REGSYM    ---      BYTE      ucAfePin
      00FF55E9H   BLOCK     ECODE    NEAR LAB  LVL=1
      R15         REGSYM    ---      BYTE      ucSfrCon
      WR30        REGSYM    ---      WORD      ucConfig
      ---         BLOCKEND  ---      ---       LVL=1
      00FF55E5H   LINE      ECODE    ---       #2195
      00FF55E9H   LINE      ECODE    ---       #2196
      00FF55E9H   LINE      ECODE    ---       #2199
      00FF55EDH   LINE      ECODE    ---       #2201
      00FF55F5H   LINE      ECODE    ---       #2203
      00FF5600H   LINE      ECODE    ---       #2204
      00FF560DH   LINE      ECODE    ---       #2205
      00FF5610H   LINE      ECODE    ---       #2206
      00FF5612H   LINE      ECODE    ---       #2209
      00FF561DH   LINE      ECODE    ---       #2210
      00FF562AH   LINE      ECODE    ---       #2211
      00FF562DH   LINE      ECODE    ---       #2212
      00FF562DH   LINE      ECODE    ---       #2213
      00FF5631H   LINE      ECODE    ---       #2215
      00FF5634H   LINE      ECODE    ---       #2216
      00FF5636H   LINE      ECODE    ---       #2217
      00FF563BH   LINE      ECODE    ---       #2219
      00FF563EH   LINE      ECODE    ---       #2220
      00FF5640H   LINE      ECODE    ---       #2221
      00FF5645H   LINE      ECODE    ---       #2223
      00FF5648H   LINE      ECODE    ---       #2224
      00FF564AH   LINE      ECODE    ---       #2225
      00FF564FH   LINE      ECODE    ---       #2227
      00FF5652H   LINE      ECODE    ---       #2228
      00FF5652H   LINE      ECODE    ---       #2229
      00FF565EH   LINE      ECODE    ---       #2230
      ---         BLOCKEND  ---      ---       LVL=0

      00FF5661H   BLOCK     ECODE    ---       LVL=0
      R8          REGSYM    ---      BYTE      ucPin
      R7          REGSYM    ---      BYTE      ucAfePin
      00FF5665H   BLOCK     ECODE    NEAR LAB  LVL=1
      R15         REGSYM    ---      BYTE      ucSfrCon
L251 LINKER/LOCATER V4.65.0.0                                                         05/26/2017  20:22:53  PAGE 98


      WR30        REGSYM    ---      WORD      ucConfig
      ---         BLOCKEND  ---      ---       LVL=1
      00FF5661H   LINE      ECODE    ---       #2239
      00FF5665H   LINE      ECODE    ---       #2240
      00FF5665H   LINE      ECODE    ---       #2243
      00FF5669H   LINE      ECODE    ---       #2245
      00FF5676H   LINE      ECODE    ---       #2247
      00FF5681H   LINE      ECODE    ---       #2248
      00FF568EH   LINE      ECODE    ---       #2249
      00FF5691H   LINE      ECODE    ---       #2250
      00FF5694H   LINE      ECODE    ---       #2253
      00FF569FH   LINE      ECODE    ---       #2254
      00FF56ACH   LINE      ECODE    ---       #2255
      00FF56AFH   LINE      ECODE    ---       #2256
      00FF56AFH   LINE      ECODE    ---       #2257
      00FF56B6H   LINE      ECODE    ---       #2259
      00FF56B9H   LINE      ECODE    ---       #2260
      00FF56BCH   LINE      ECODE    ---       #2261
      00FF56C4H   LINE      ECODE    ---       #2263
      00FF56C7H   LINE      ECODE    ---       #2264
      00FF56CAH   LINE      ECODE    ---       #2265
      00FF56D2H   LINE      ECODE    ---       #2267
      00FF56D5H   LINE      ECODE    ---       #2268
      00FF56D8H   LINE      ECODE    ---       #2269
      00FF56E0H   LINE      ECODE    ---       #2271
      00FF56E3H   LINE      ECODE    ---       #2272
      00FF56E3H   LINE      ECODE    ---       #2273
      00FF56EFH   LINE      ECODE    ---       #2274
      00FF5712H   LINE      ECODE    ---       #2275
      ---         BLOCKEND  ---      ---       LVL=0

      00FF5715H   BLOCK     ECODE    ---       LVL=0
      R8          REGSYM    ---      BYTE      ucPin
      R7          REGSYM    ---      BYTE      ucAfePin
      00FF5719H   BLOCK     ECODE    NEAR LAB  LVL=1
      R15         REGSYM    ---      BYTE      ucSfrCon
      WR30        REGSYM    ---      WORD      ucConfig
      ---         BLOCKEND  ---      ---       LVL=1
      00FF5715H   LINE      ECODE    ---       #2284
      00FF5719H   LINE      ECODE    ---       #2285
      00FF5719H   LINE      ECODE    ---       #2288
      00FF571DH   LINE      ECODE    ---       #2290
      00FF5725H   LINE      ECODE    ---       #2292
      00FF5730H   LINE      ECODE    ---       #2293
      00FF573DH   LINE      ECODE    ---       #2294
      00FF5740H   LINE      ECODE    ---       #2295
      00FF5742H   LINE      ECODE    ---       #2298
      00FF574DH   LINE      ECODE    ---       #2299
      00FF575AH   LINE      ECODE    ---       #2300
      00FF575DH   LINE      ECODE    ---       #2301
      00FF575DH   LINE      ECODE    ---       #2302
      00FF5761H   LINE      ECODE    ---       #2304
      00FF5764H   LINE      ECODE    ---       #2305
      00FF5766H   LINE      ECODE    ---       #2306
      00FF576BH   LINE      ECODE    ---       #2308
      00FF576EH   LINE      ECODE    ---       #2309
      00FF5770H   LINE      ECODE    ---       #2310
      00FF5775H   LINE      ECODE    ---       #2312
      00FF5778H   LINE      ECODE    ---       #2313
      00FF577AH   LINE      ECODE    ---       #2314
      00FF577FH   LINE      ECODE    ---       #2316
      00FF5782H   LINE      ECODE    ---       #2317
      00FF5782H   LINE      ECODE    ---       #2318
      00FF578EH   LINE      ECODE    ---       #2319
      ---         BLOCKEND  ---      ---       LVL=0
L251 LINKER/LOCATER V4.65.0.0                                                         05/26/2017  20:22:53  PAGE 99



      00FF5791H   BLOCK     ECODE    ---       LVL=0
      R8          REGSYM    ---      BYTE      ucPin
      R7          REGSYM    ---      BYTE      ucAfePin
      00FF5795H   BLOCK     ECODE    NEAR LAB  LVL=1
      R15         REGSYM    ---      BYTE      ucSfrCon
      WR30        REGSYM    ---      WORD      ucConfig
      ---         BLOCKEND  ---      ---       LVL=1
      00FF5791H   LINE      ECODE    ---       #2328
      00FF5795H   LINE      ECODE    ---       #2329
      00FF5795H   LINE      ECODE    ---       #2332
      00FF5799H   LINE      ECODE    ---       #2334
      00FF57A1H   LINE      ECODE    ---       #2336
      00FF57ACH   LINE      ECODE    ---       #2337
      00FF57B9H   LINE      ECODE    ---       #2338
      00FF57BCH   LINE      ECODE    ---       #2339
      00FF57BEH   LINE      ECODE    ---       #2342
      00FF57C9H   LINE      ECODE    ---       #2343
      00FF57D6H   LINE      ECODE    ---       #2344
      00FF57D9H   LINE      ECODE    ---       #2345
      00FF57D9H   LINE      ECODE    ---       #2346
      00FF57DDH   LINE      ECODE    ---       #2348
      00FF57E0H   LINE      ECODE    ---       #2349
      00FF57E2H   LINE      ECODE    ---       #2350
      00FF57E7H   LINE      ECODE    ---       #2352
      00FF57EAH   LINE      ECODE    ---       #2353
      00FF57ECH   LINE      ECODE    ---       #2354
      00FF57F1H   LINE      ECODE    ---       #2356
      00FF57F4H   LINE      ECODE    ---       #2357
      00FF57F6H   LINE      ECODE    ---       #2358
      00FF57FBH   LINE      ECODE    ---       #2360
      00FF57FEH   LINE      ECODE    ---       #2361
      00FF57FEH   LINE      ECODE    ---       #2362
      00FF580AH   LINE      ECODE    ---       #2363
      ---         BLOCKEND  ---      ---       LVL=0

      00FF580DH   BLOCK     ECODE    ---       LVL=0
      R8          REGSYM    ---      BYTE      ucPin
      R7          REGSYM    ---      BYTE      ucAfePin
      00FF5811H   BLOCK     ECODE    NEAR LAB  LVL=1
      R15         REGSYM    ---      BYTE      ucSfrCon
      WR28        REGSYM    ---      WORD      ucConfig0
      WR30        REGSYM    ---      WORD      ucConfig1
      ---         BLOCKEND  ---      ---       LVL=1
      00FF580DH   LINE      ECODE    ---       #2372
      00FF5811H   LINE      ECODE    ---       #2373
      00FF5811H   LINE      ECODE    ---       #2377
      00FF5815H   LINE      ECODE    ---       #2378
      00FF5819H   LINE      ECODE    ---       #2379
      00FF5821H   LINE      ECODE    ---       #2381
      00FF582CH   LINE      ECODE    ---       #2382
      00FF5839H   LINE      ECODE    ---       #2383
      00FF5848H   LINE      ECODE    ---       #2384
      00FF5855H   LINE      ECODE    ---       #2385
      00FF5858H   LINE      ECODE    ---       #2386
      00FF585AH   LINE      ECODE    ---       #2389
      00FF5865H   LINE      ECODE    ---       #2390
      00FF5872H   LINE      ECODE    ---       #2391
      00FF5881H   LINE      ECODE    ---       #2392
      00FF588EH   LINE      ECODE    ---       #2393
      00FF5891H   LINE      ECODE    ---       #2394
      00FF5891H   LINE      ECODE    ---       #2395
      00FF5895H   LINE      ECODE    ---       #2397
      00FF5898H   LINE      ECODE    ---       #2398
      00FF589AH   LINE      ECODE    ---       #2399
L251 LINKER/LOCATER V4.65.0.0                                                         05/26/2017  20:22:53  PAGE 100


      00FF589FH   LINE      ECODE    ---       #2401
      00FF58A2H   LINE      ECODE    ---       #2402
      00FF58A4H   LINE      ECODE    ---       #2403
      00FF58A9H   LINE      ECODE    ---       #2405
      00FF58ACH   LINE      ECODE    ---       #2406
      00FF58AEH   LINE      ECODE    ---       #2407
      00FF58B3H   LINE      ECODE    ---       #2409
      00FF58B6H   LINE      ECODE    ---       #2410
      00FF58B6H   LINE      ECODE    ---       #2411
      00FF58C2H   LINE      ECODE    ---       #2412
      ---         BLOCKEND  ---      ---       LVL=0

      00FF58C5H   BLOCK     ECODE    ---       LVL=0
      R8          REGSYM    ---      BYTE      ucPin
      R7          REGSYM    ---      BYTE      ucAfePin
      00FF58C9H   BLOCK     ECODE    NEAR LAB  LVL=1
      R15         REGSYM    ---      BYTE      ucSfrCon
      WR28        REGSYM    ---      WORD      ucConfig0
      WR30        REGSYM    ---      WORD      ucConfig1
      ---         BLOCKEND  ---      ---       LVL=1
      00FF58C5H   LINE      ECODE    ---       #2422
      00FF58C9H   LINE      ECODE    ---       #2423
      00FF58C9H   LINE      ECODE    ---       #2427
      00FF58CDH   LINE      ECODE    ---       #2430
      00FF58D1H   LINE      ECODE    ---       #2431
      00FF58D9H   LINE      ECODE    ---       #2433
      00FF58E4H   LINE      ECODE    ---       #2434
      00FF58F1H   LINE      ECODE    ---       #2435
      00FF5900H   LINE      ECODE    ---       #2436
      00FF590DH   LINE      ECODE    ---       #2437
      00FF5910H   LINE      ECODE    ---       #2438
      00FF5912H   LINE      ECODE    ---       #2441
      00FF591DH   LINE      ECODE    ---       #2442
      00FF592AH   LINE      ECODE    ---       #2443
      00FF5939H   LINE      ECODE    ---       #2444
      00FF5946H   LINE      ECODE    ---       #2445
      00FF5949H   LINE      ECODE    ---       #2446
      00FF5949H   LINE      ECODE    ---       #2447
      00FF594DH   LINE      ECODE    ---       #2449
      00FF5950H   LINE      ECODE    ---       #2450
      00FF5952H   LINE      ECODE    ---       #2451
      00FF5957H   LINE      ECODE    ---       #2453
      00FF595AH   LINE      ECODE    ---       #2454
      00FF595CH   LINE      ECODE    ---       #2455
      00FF5961H   LINE      ECODE    ---       #2457
      00FF5964H   LINE      ECODE    ---       #2458
      00FF5966H   LINE      ECODE    ---       #2459
      00FF596BH   LINE      ECODE    ---       #2461
      00FF596EH   LINE      ECODE    ---       #2462
      00FF596EH   LINE      ECODE    ---       #2463
      00FF597AH   LINE      ECODE    ---       #2464
      ---         BLOCKEND  ---      ---       LVL=0

      00FF597DH   BLOCK     ECODE    ---       LVL=0
      R8          REGSYM    ---      BYTE      ucPin
      R7          REGSYM    ---      BYTE      ucAfePin
      00FF5981H   BLOCK     ECODE    NEAR LAB  LVL=1
      R15         REGSYM    ---      BYTE      ucSfrCon
      WR28        REGSYM    ---      WORD      ucConfig0
      WR30        REGSYM    ---      WORD      ucConfig1
      ---         BLOCKEND  ---      ---       LVL=1
      00FF597DH   LINE      ECODE    ---       #2474
      00FF5981H   LINE      ECODE    ---       #2475
      00FF5981H   LINE      ECODE    ---       #2479
      00FF5985H   LINE      ECODE    ---       #2481
L251 LINKER/LOCATER V4.65.0.0                                                         05/26/2017  20:22:53  PAGE 101


      00FF5989H   LINE      ECODE    ---       #2482
      00FF5991H   LINE      ECODE    ---       #2484
      00FF599CH   LINE      ECODE    ---       #2485
      00FF59A9H   LINE      ECODE    ---       #2486
      00FF59B8H   LINE      ECODE    ---       #2487
      00FF59C5H   LINE      ECODE    ---       #2488
      00FF59C8H   LINE      ECODE    ---       #2489
      00FF59CAH   LINE      ECODE    ---       #2492
      00FF59D5H   LINE      ECODE    ---       #2493
      00FF59E2H   LINE      ECODE    ---       #2494
      00FF59F1H   LINE      ECODE    ---       #2495
      00FF59FEH   LINE      ECODE    ---       #2496
      00FF5A01H   LINE      ECODE    ---       #2497
      00FF5A01H   LINE      ECODE    ---       #2498
      00FF5A05H   LINE      ECODE    ---       #2500
      00FF5A08H   LINE      ECODE    ---       #2501
      00FF5A0AH   LINE      ECODE    ---       #2502
      00FF5A0FH   LINE      ECODE    ---       #2504
      00FF5A12H   LINE      ECODE    ---       #2505
      00FF5A14H   LINE      ECODE    ---       #2506
      00FF5A19H   LINE      ECODE    ---       #2508
      00FF5A1CH   LINE      ECODE    ---       #2509
      00FF5A1EH   LINE      ECODE    ---       #2510
      00FF5A23H   LINE      ECODE    ---       #2512
      00FF5A26H   LINE      ECODE    ---       #2513
      00FF5A26H   LINE      ECODE    ---       #2514
      00FF5A32H   LINE      ECODE    ---       #2515
      ---         BLOCKEND  ---      ---       LVL=0

      00FF5A35H   BLOCK     ECODE    ---       LVL=0
      00FF5A35H   LINE      ECODE    ---       #2525
      00FF5A35H   LINE      ECODE    ---       #2527
      00FF5A38H   LINE      ECODE    ---       #2529
      00FF5A44H   LINE      ECODE    ---       #2535
      ---         BLOCKEND  ---      ---       LVL=0

      00FF5A4CH   BLOCK     ECODE    ---       LVL=0
      00FF5A4CH   LINE      ECODE    ---       #2552
      00FF5A4CH   LINE      ECODE    ---       #2554
      00FF5A4FH   LINE      ECODE    ---       #2556
      00FF5A5BH   LINE      ECODE    ---       #2559
      00FF5A64H   LINE      ECODE    ---       #2566
      ---         BLOCKEND  ---      ---       LVL=0

      00FF5A6DH   BLOCK     ECODE    ---       LVL=0
      00FF5A6DH   LINE      ECODE    ---       #2579
      00FF5A6DH   LINE      ECODE    ---       #2581
      00FF5A70H   LINE      ECODE    ---       #2583
      00FF5A73H   LINE      ECODE    ---       #2584
      00FF5A75H   LINE      ECODE    ---       #2587
      00FF5A78H   LINE      ECODE    ---       #2588
      00FF5A78H   LINE      ECODE    ---       #2590
      00FF5A7BH   LINE      ECODE    ---       #2592
      00FF5A87H   LINE      ECODE    ---       #2595
      ---         BLOCKEND  ---      ---       LVL=0

      00FF5A8FH   BLOCK     ECODE    ---       LVL=0
      00FF5A8FH   LINE      ECODE    ---       #2613
      00FF5A8FH   LINE      ECODE    ---       #2615
      00FF5A92H   LINE      ECODE    ---       #2617
      00FF5A95H   LINE      ECODE    ---       #2619
      00FF5AA1H   LINE      ECODE    ---       #2626
      ---         BLOCKEND  ---      ---       LVL=0

      00FF5AAAH   BLOCK     ECODE    ---       LVL=0
L251 LINKER/LOCATER V4.65.0.0                                                         05/26/2017  20:22:53  PAGE 102


      00FF5AAAH   LINE      ECODE    ---       #2644
      00FF5AAAH   LINE      ECODE    ---       #2653
      00FF5AAEH   LINE      ECODE    ---       #2656
      ---         BLOCKEND  ---      ---       LVL=0

      ---         MODULE    ---      ---       DrvAsmCtrl
      00FF65EAH   PUBLIC    ECODE    ---       DrvAsmSetSTBTickMask?
      00FF6ADBH   PUBLIC    ECODE    ---       DrvAfeClkGateEn?
      00FF5D81H   PUBLIC    ECODE    ---       DrvAsmSetIDReset?
      00FF6AFBH   PUBLIC    ECODE    ---       DrvAsmRtcMonitoModeInit?
      00FF6158H   PUBLIC    ECODE    ---       DrvLoadTabMultiple?
      00FF6A83H   PUBLIC    ECODE    ---       DrvAsmSetRtcMonitorTimer?
      00FF5D6FH   PUBLIC    ECODE    ---       DrvAsmGetSta?
      00FF6A0DH   PUBLIC    ECODE    ---       DrvAsmSetRtcMonitorMode?
      00FF69F8H   PUBLIC    ECODE    ---       DrvAsmClrInt?
      00FF5CBCH   PUBLIC    ECODE    ---       DrvAsmInterDisableAll?
      00FF6C8DH   PUBLIC    ECODE    ---       ISR_LcdRun_IRQHandler?
      00FF5DAEH   PUBLIC    ECODE    ---       DebugReadAsmReg?
      00FF610BH   PUBLIC    ECODE    ---       DrvLoadTabSingle?
      00FF6C7BH   PUBLIC    ECODE    ---       DrvAsmAfeClkGateEn?
      00FF683FH   PUBLIC    ECODE    ---       DrvAsmSkipFramHaveLcdBusy?
      00FF60F9H   PUBLIC    ECODE    ---       DrvAsmCloseTable?
      00FF5DA5H   PUBLIC    ECODE    ---       DrvAsmSeStbtMask?
      00FF5CA7H   PUBLIC    ECODE    ---       DrvAsmInterEnableAll?
      00FF5CEDH   PUBLIC    ECODE    ---       DrvAsmInterDisable0?
      00FF5D2FH   PUBLIC    ECODE    ---       DrvAsmInterDisable1?
      00FF5C5FH   PUBLIC    ECODE    ---       DrvAsmWakeDisable0?
      00FF6C69H   PUBLIC    ECODE    ---       DrvAsmAramAvail?
      00FF5C83H   PUBLIC    ECODE    ---       DrvAsmWakeDisable1?
      00FF5D78H   PUBLIC    ECODE    ---       DrvAsmGetSta1?
      00FF6851H   PUBLIC    ECODE    ---       DrvLoadTabCB?
      00FF5CCFH   PUBLIC    ECODE    ---       DrvAsmInterEnable0?
      00FF5D11H   PUBLIC    ECODE    ---       DrvAsmInterEnable1?
      00FF5AB2H   PUBLIC    ECODE    ---       Asm_Config_Init?
      00FF681BH   PUBLIC    ECODE    ---       DrvAsmReq60hz_Big_LcdBusy?
      00FF6577H   PUBLIC    ECODE    ---       DrvGetAdcData?
      00FF6C37H   PUBLIC    ECODE    ---       DrvAsmSetPwrOff?
      00FF5C23H   PUBLIC    ECODE    ---       DrvAsmWakeEnable0?
      00FF5C41H   PUBLIC    ECODE    ---       DrvAsmWakeEnable1?
      00FF6AA5H   PUBLIC    ECODE    ---       DrvAsmSetHwMonPwrEn?
      00FF6D9AH   PUBLIC    ECODE    ---       DrvScanCtrl_IRQHandler?
      00FF6809H   PUBLIC    ECODE    ---       DrvAsmReq120hz_Small_LcdBusy?
      00FF65FBH   PUBLIC    ECODE    ---       DrvAsmMonitoModeInit?
      00FF61F8H   PUBLIC    ECODE    ---       DrvAsmScanStart?
      00FF6048H   PUBLIC    ECODE    ---       AppGetAsmState?
      00FF682DH   PUBLIC    ECODE    ---       DrvAsmSkipFramNoLcdBusy?
      00FF5D53H   PUBLIC    ECODE    ---       DrvAsmInterClear0?
      00FF5D93H   PUBLIC    ECODE    ---       DrvAsmSetPhase?
      00FF620AH   PUBLIC    ECODE    ---       DrvAsmSetMonitorMode?
      00FF6C0DH   PUBLIC    ECODE    ---       DrvAsmSetPwrOn?
      00FF6270H   PUBLIC    ECODE    ---       DrvGetAramCb?
      00FF63A4H   PUBLIC    ECODE    ---       DrvGetAramRawData?
      00FF6245H   PUBLIC    ECODE    ---       DrvAsmSetCBAdjustMode?
      000040EEH   PUBLIC    EDATA    WORD      g_ucLcdBusyCnt
      000040F0H   PUBLIC    EDATA    ---       pAsmRegs
      000000B6H   SFRSYM    DATA     BYTE      RTCCON1
      000000BFH   SFRSYM    DATA     BYTE      CGUCON8
      000000CEH   SFRSYM    DATA     BYTE      CGUCON6
      000000CDH   SFRSYM    DATA     BYTE      CGUCON5
      000000CCH   SFRSYM    DATA     BYTE      CGUCON4
      000000CBH   SFRSYM    DATA     BYTE      CGUCON3
      000000CAH   SFRSYM    DATA     BYTE      CGUCON2
      000000C8H   SFRSYM    DATA     BYTE      CGUCON1
      000000C9H   SFRSYM    DATA     BYTE      CGUCON0
      000000D9H   SFRSYM    DATA     BYTE      MEMBIST_ERRMAP2
L251 LINKER/LOCATER V4.65.0.0                                                         05/26/2017  20:22:53  PAGE 103


      000000D8H   SFRSYM    DATA     BYTE      MEMBIST_ERRMAP1
      000000B0H   SFRSYM    DATA     BYTE      ANACON9
      000000A0H   SFRSYM    DATA     BYTE      ANACON8
      000000D5H   SFRSYM    DATA     BYTE      MEMBIST_FINISH2
      000000C7H   SFRSYM    DATA     BYTE      ANACON7
      000000D4H   SFRSYM    DATA     BYTE      MEMBIST_FINISH1
      000000E9H   SFRSYM    DATA     BYTE      SFTRST
      000000EAH.7 SFRSYM    DATA     BIT       ARAM_SEL
      000000EEH   SFRSYM    DATA     BYTE      P1SEL
      000000C3H   SFRSYM    DATA     BYTE      ANACON3
      000000ECH   SFRSYM    DATA     BYTE      P0SEL
      000000C2H   SFRSYM    DATA     BYTE      ANACON2
      000000C1H   SFRSYM    DATA     BYTE      ANACON1
      000000EDH   SFRSYM    DATA     BYTE      P1MOD
      00000098H   SFRSYM    DATA     BYTE      SYSCON
      000000ADH   SFRSYM    DATA     BYTE      P1DIR
      000000EBH   SFRSYM    DATA     BYTE      P0MOD
      000000ACH   SFRSYM    DATA     BYTE      P0DIR
      00000094H   SFRSYM    DATA     BYTE      P1BUF
      00000080H   SFRSYM    DATA     BYTE      P0BUF
      000000E4H   SFRSYM    DATA     BYTE      TESTCON3
      000000E3H   SFRSYM    DATA     BYTE      TESTCON2
      000000E5H   SFRSYM    DATA     BYTE      IWKSTA
      0000009AH   SFRSYM    DATA     BYTE      WDTREL
      000000E2H   SFRSYM    DATA     BYTE      TESTCON1
      000000E1H   SFRSYM    DATA     BYTE      TESTCON0
      00000099H   SFRSYM    DATA     BYTE      WDTCON
      000000C0H   SFRSYM    DATA     BYTE      AIF
      000000E8H.1 SFRSYM    DATA     BIT       ASM_EI
      000000E8H   SFRSYM    DATA     BYTE      AIE
      000000BDH   SFRSYM    DATA     BYTE      FT_EN_REG
      000000A8H   SFRSYM    DATA     BIT       EX0
      0000009EH   SFRSYM    DATA     BYTE      RTCCON
      000000FEH   SFRSYM    DATA     BYTE      LED_EN
      000000B9H   SFRSYM    DATA     BYTE      CNTCON
      000000D7H   SFRSYM    DATA     BYTE      MEMBIST_FAIL2
      000000D6H   SFRSYM    DATA     BYTE      MEMBIST_FAIL1
      000000D3H   SFRSYM    DATA     BYTE      MEMBIST_EN2
      000000D2H   SFRSYM    DATA     BYTE      MEMBIST_EN1
      0000009BH   SFRSYM    DATA     BYTE      TDIV
      000000EFH   SFRSYM    DATA     BYTE      XDP_STA
      00000088H   SFRSYM    DATA     BYTE      TCON
      00000089H   SFRSYM    DATA     BYTE      TMOD
      000000A7H   SFRSYM    DATA     BYTE      SPI0CON5
      000000B2H   SFRSYM    DATA     BYTE      SPI1CON4
      000000B1H   SFRSYM    DATA     BYTE      SPI1CON3
      000000A5H   SFRSYM    DATA     BYTE      SPI0CON3
      000000B4H   SFRSYM    DATA     BYTE      SPI1CON2
      000000EAH   SFRSYM    DATA     BYTE      ANACON
      00000087H   SFRSYM    DATA     BYTE      PCON
      000000A3H   SFRSYM    DATA     BYTE      SPI0CON2
      000000DAH   SFRSYM    DATA     BYTE      DSV_CON
      000000F8H   SFRSYM    DATA     BYTE      AIPL
      000000EAH.2 SFRSYM    DATA     BIT       AFE_RST
      00000095H   SFRSYM    DATA     BYTE      I2CSEL
      000000F5H   SFRSYM    DATA     BYTE      SSCG_CON0
      000000F7H   SFRSYM    DATA     BYTE      AIPH
      000000FDH   SFRSYM    DATA     BYTE      I2C_STATE
      00000090H   SFRSYM    DATA     BYTE      I2CCON
      000000A9H   SFRSYM    DATA     BYTE      UARTCON
      000000B8H   SFRSYM    DATA     BYTE      IPL0
      000000B7H   SFRSYM    DATA     BYTE      IPH0
      000000DFH   SFRSYM    DATA     BYTE      IEN1
      000000A8H   SFRSYM    DATA     BYTE      IEN0
      00000093H   SFRSYM    DATA     BYTE      I2CSTOP
L251 LINKER/LOCATER V4.65.0.0                                                         05/26/2017  20:22:53  PAGE 104


      000000A8H.7 SFRSYM    DATA     BIT       EA
      000000B3H   SFRSYM    DATA     BYTE      SPI1CON
      000000A2H   SFRSYM    DATA     BYTE      SPI0CON

      00FF5AB2H   BLOCK     ECODE    ---       LVL=0
      00FF5AB2H   LINE      ECODE    ---       #77
      00FF5AB2H   LINE      ECODE    ---       #80
      00FF5ABEH   LINE      ECODE    ---       #92
      00FF5AC9H   LINE      ECODE    ---       #94
      00FF5ADAH   LINE      ECODE    ---       #98
      00FF5AF1H   LINE      ECODE    ---       #101
      00FF5AFDH   LINE      ECODE    ---       #111
      00FF5B07H   LINE      ECODE    ---       #117
      00FF5B0FH   LINE      ECODE    ---       #123
      00FF5B17H   LINE      ECODE    ---       #127
      00FF5B1FH   LINE      ECODE    ---       #131
      00FF5B27H   LINE      ECODE    ---       #138
      00FF5B33H   LINE      ECODE    ---       #141
      00FF5B3BH   LINE      ECODE    ---       #144
      00FF5B45H   LINE      ECODE    ---       #145
      00FF5B51H   LINE      ECODE    ---       #146
      00FF5B5DH   LINE      ECODE    ---       #149
      00FF5B67H   LINE      ECODE    ---       #150
      00FF5B73H   LINE      ECODE    ---       #151
      00FF5B7FH   LINE      ECODE    ---       #154
      00FF5B89H   LINE      ECODE    ---       #155
      00FF5BA0H   LINE      ECODE    ---       #158
      00FF5BAAH   LINE      ECODE    ---       #177
      00FF5BB2H   LINE      ECODE    ---       #178
      00FF5BBAH   LINE      ECODE    ---       #196
      00FF5BC2H   LINE      ECODE    ---       #197
      00FF5BCAH   LINE      ECODE    ---       #214
      00FF5BD2H   LINE      ECODE    ---       #215
      00FF5BDAH   LINE      ECODE    ---       #230
      00FF5BF1H   LINE      ECODE    ---       #231
      00FF5C08H   LINE      ECODE    ---       #261
      00FF5C14H   LINE      ECODE    ---       #262
      00FF5C1CH   LINE      ECODE    ---       #264
      00FF5C1EH   LINE      ECODE    ---       #265
      00FF5C20H   LINE      ECODE    ---       #267
      00FF5C22H   LINE      ECODE    ---       #268
      ---         BLOCKEND  ---      ---       LVL=0

      00FF5C23H   BLOCK     ECODE    ---       LVL=0
      WR6         REGSYM    ---      WORD      usWakeMode
      00FF5C23H   LINE      ECODE    ---       #270
      00FF5C23H   LINE      ECODE    ---       #273
      00FF5C40H   LINE      ECODE    ---       #274
      ---         BLOCKEND  ---      ---       LVL=0

      00FF5C41H   BLOCK     ECODE    ---       LVL=0
      WR6         REGSYM    ---      WORD      usWakeMode
      00FF5C41H   LINE      ECODE    ---       #276
      00FF5C41H   LINE      ECODE    ---       #279
      00FF5C5EH   LINE      ECODE    ---       #280
      ---         BLOCKEND  ---      ---       LVL=0

      00FF5C5FH   BLOCK     ECODE    ---       LVL=0
      WR6         REGSYM    ---      WORD      usWakeMode
      00FF5C5FH   LINE      ECODE    ---       #282
      00FF5C5FH   LINE      ECODE    ---       #285
      00FF5C82H   LINE      ECODE    ---       #286
      ---         BLOCKEND  ---      ---       LVL=0

      00FF5C83H   BLOCK     ECODE    ---       LVL=0
L251 LINKER/LOCATER V4.65.0.0                                                         05/26/2017  20:22:53  PAGE 105


      WR6         REGSYM    ---      WORD      usWakeMode
      00FF5C83H   LINE      ECODE    ---       #288
      00FF5C83H   LINE      ECODE    ---       #291
      00FF5CA6H   LINE      ECODE    ---       #292
      ---         BLOCKEND  ---      ---       LVL=0

      00FF5CA7H   BLOCK     ECODE    ---       LVL=0
      00FF5CA7H   LINE      ECODE    ---       #294
      00FF5CA7H   LINE      ECODE    ---       #297
      00FF5CB3H   LINE      ECODE    ---       #299
      00FF5CBBH   LINE      ECODE    ---       #302
      ---         BLOCKEND  ---      ---       LVL=0

      00FF5CBCH   BLOCK     ECODE    ---       LVL=0
      00FF5CBCH   LINE      ECODE    ---       #304
      00FF5CBCH   LINE      ECODE    ---       #307
      00FF5CC6H   LINE      ECODE    ---       #309
      00FF5CCEH   LINE      ECODE    ---       #312
      ---         BLOCKEND  ---      ---       LVL=0

      00FF5CCFH   BLOCK     ECODE    ---       LVL=0
      WR6         REGSYM    ---      WORD      usInterMode
      00FF5CCFH   LINE      ECODE    ---       #314
      00FF5CCFH   LINE      ECODE    ---       #317
      00FF5CECH   LINE      ECODE    ---       #319
      ---         BLOCKEND  ---      ---       LVL=0

      00FF5CEDH   BLOCK     ECODE    ---       LVL=0
      WR6         REGSYM    ---      WORD      usInterMode
      00FF5CEDH   LINE      ECODE    ---       #321
      00FF5CEDH   LINE      ECODE    ---       #324
      00FF5D10H   LINE      ECODE    ---       #325
      ---         BLOCKEND  ---      ---       LVL=0

      00FF5D11H   BLOCK     ECODE    ---       LVL=0
      WR6         REGSYM    ---      WORD      usInterMode
      00FF5D11H   LINE      ECODE    ---       #327
      00FF5D11H   LINE      ECODE    ---       #330
      00FF5D2EH   LINE      ECODE    ---       #331
      ---         BLOCKEND  ---      ---       LVL=0

      00FF5D2FH   BLOCK     ECODE    ---       LVL=0
      WR6         REGSYM    ---      WORD      usInterMode
      00FF5D2FH   LINE      ECODE    ---       #333
      00FF5D2FH   LINE      ECODE    ---       #336
      00FF5D52H   LINE      ECODE    ---       #337
      ---         BLOCKEND  ---      ---       LVL=0

      00FF5D53H   BLOCK     ECODE    ---       LVL=0
      WR6         REGSYM    ---      WORD      usClearMode
      00FF5D53H   LINE      ECODE    ---       #339
      00FF5D53H   LINE      ECODE    ---       #341
      00FF5D6EH   LINE      ECODE    ---       #342
      ---         BLOCKEND  ---      ---       LVL=0

      00FF5D6FH   BLOCK     ECODE    ---       LVL=0
      00FF5D6FH   LINE      ECODE    ---       #344
      00FF5D6FH   LINE      ECODE    ---       #347
      00FF5D77H   LINE      ECODE    ---       #348
      ---         BLOCKEND  ---      ---       LVL=0

      00FF5D78H   BLOCK     ECODE    ---       LVL=0
      00FF5D78H   LINE      ECODE    ---       #350
      00FF5D78H   LINE      ECODE    ---       #353
      00FF5D80H   LINE      ECODE    ---       #354
L251 LINKER/LOCATER V4.65.0.0                                                         05/26/2017  20:22:53  PAGE 106


      ---         BLOCKEND  ---      ---       LVL=0

      00FF5D81H   BLOCK     ECODE    ---       LVL=0
      00FF5D81H   LINE      ECODE    ---       #356
      00FF5D81H   LINE      ECODE    ---       #359
      00FF5D92H   LINE      ECODE    ---       #360
      ---         BLOCKEND  ---      ---       LVL=0

      00FF5D93H   BLOCK     ECODE    ---       LVL=0
      00FF5D93H   LINE      ECODE    ---       #362
      00FF5D93H   LINE      ECODE    ---       #365
      00FF5DA4H   LINE      ECODE    ---       #367
      ---         BLOCKEND  ---      ---       LVL=0

      00FF5DA5H   BLOCK     ECODE    ---       LVL=0
      WR6         REGSYM    ---      WORD      usMask
      00FF5DA5H   LINE      ECODE    ---       #369
      00FF5DA5H   LINE      ECODE    ---       #372
      00FF5DADH   LINE      ECODE    ---       #373
      ---         BLOCKEND  ---      ---       LVL=0

      00FF5DAEH   BLOCK     ECODE    ---       LVL=0
      00FF5DAEH   LINE      ECODE    ---       #375
      00FF5DAEH   LINE      ECODE    ---       #377
      00FF5DC4H   LINE      ECODE    ---       #378
      00FF5DDBH   LINE      ECODE    ---       #379
      00FF5DF2H   LINE      ECODE    ---       #380
      00FF5E09H   LINE      ECODE    ---       #381
      00FF5E20H   LINE      ECODE    ---       #382
      00FF5E37H   LINE      ECODE    ---       #383
      00FF5E4EH   LINE      ECODE    ---       #384
      00FF5E65H   LINE      ECODE    ---       #385
      00FF5E7CH   LINE      ECODE    ---       #386
      00FF5E93H   LINE      ECODE    ---       #387
      00FF5EAAH   LINE      ECODE    ---       #388
      00FF5EC1H   LINE      ECODE    ---       #389
      00FF5ED8H   LINE      ECODE    ---       #390
      00FF5EEFH   LINE      ECODE    ---       #391
      00FF5F06H   LINE      ECODE    ---       #392
      00FF5F1DH   LINE      ECODE    ---       #393
      00FF5F34H   LINE      ECODE    ---       #394
      00FF5F4BH   LINE      ECODE    ---       #395
      00FF5F62H   LINE      ECODE    ---       #396
      00FF5F79H   LINE      ECODE    ---       #397
      00FF5F90H   LINE      ECODE    ---       #398
      00FF5FA7H   LINE      ECODE    ---       #399
      00FF5FBEH   LINE      ECODE    ---       #400
      00FF5FD5H   LINE      ECODE    ---       #401
      00FF5FECH   LINE      ECODE    ---       #402
      00FF6003H   LINE      ECODE    ---       #403
      00FF601AH   LINE      ECODE    ---       #404
      00FF6031H   LINE      ECODE    ---       #405
      ---         BLOCKEND  ---      ---       LVL=0

      00FF6048H   BLOCK     ECODE    ---       LVL=0
      00FF6048H   LINE      ECODE    ---       #408
      00FF6048H   LINE      ECODE    ---       #410
      00FF605FH   LINE      ECODE    ---       #411
      00FF607DH   LINE      ECODE    ---       #412
      00FF60A1H   LINE      ECODE    ---       #413
      00FF60CDH   LINE      ECODE    ---       #414
      ---         BLOCKEND  ---      ---       LVL=0

      00FF60F9H   BLOCK     ECODE    ---       LVL=0
      00FF60F9H   LINE      ECODE    ---       #424
L251 LINKER/LOCATER V4.65.0.0                                                         05/26/2017  20:22:53  PAGE 107


      00FF60F9H   LINE      ECODE    ---       #427
      00FF610AH   LINE      ECODE    ---       #428
      ---         BLOCKEND  ---      ---       LVL=0

      00FF610BH   BLOCK     ECODE    ---       LVL=0
      R11         REGSYM    ---      BYTE      ucTabId
      R7          REGSYM    ---      BYTE      ucBusyID
      00FF610BH   LINE      ECODE    ---       #437
      00FF610BH   LINE      ECODE    ---       #440
      00FF611CH   LINE      ECODE    ---       #447
      00FF612DH   LINE      ECODE    ---       #448
      00FF6135H   LINE      ECODE    ---       #451
      00FF6157H   LINE      ECODE    ---       #453
      ---         BLOCKEND  ---      ---       LVL=0

      00FF6158H   BLOCK     ECODE    ---       LVL=0
      R3          REGSYM    ---      BYTE      ucBusyId0
      R10         REGSYM    ---      BYTE      ucBusyId1
      R6          REGSYM    ---      BYTE      ucBusyId2
      R4          REGSYM    ---      BYTE      ucBusyId3
      R1          REGSYM    ---      BYTE      ucScanMul
      R0          REGSYM    ---      BYTE      ucTab
      00FF6162H   BLOCK     ECODE    NEAR LAB  LVL=1
      00000021H   SYMBOL    DATA     BYTE      ucF0TabId
      R2          REGSYM    ---      BYTE      ucF1TabId
      R7          REGSYM    ---      BYTE      ucF2TabId
      R5          REGSYM    ---      BYTE      ucF3TabId
      ---         BLOCKEND  ---      ---       LVL=1
      00FF6158H   LINE      ECODE    ---       #462
      00FF6162H   LINE      ECODE    ---       #463
      00FF6162H   LINE      ECODE    ---       #469
      00FF6165H   LINE      ECODE    ---       #470
      00FF6167H   LINE      ECODE    ---       #471
      00FF6169H   LINE      ECODE    ---       #472
      00FF616BH   LINE      ECODE    ---       #476
      00FF617CH   LINE      ECODE    ---       #482
      00FF618DH   LINE      ECODE    ---       #483
      00FF619FH   LINE      ECODE    ---       #486
      00FF61CCH   LINE      ECODE    ---       #492
      00FF61F7H   LINE      ECODE    ---       #497
      ---         BLOCKEND  ---      ---       LVL=0

      00FF61F8H   BLOCK     ECODE    ---       LVL=0
      00FF61F8H   LINE      ECODE    ---       #506
      00FF61F8H   LINE      ECODE    ---       #508
      00FF6209H   LINE      ECODE    ---       #510
      ---         BLOCKEND  ---      ---       LVL=0

      00FF620AH   BLOCK     ECODE    ---       LVL=0
      R11         REGSYM    ---      BYTE      ucModeEn
      00FF620AH   LINE      ECODE    ---       #519
      00FF620AH   LINE      ECODE    ---       #522
      00FF621BH   LINE      ECODE    ---       #523
      00FF6233H   LINE      ECODE    ---       #525
      00FF6244H   LINE      ECODE    ---       #526
      ---         BLOCKEND  ---      ---       LVL=0

      00FF6245H   BLOCK     ECODE    ---       LVL=0
      R11         REGSYM    ---      BYTE      ucModeEn
      00FF6245H   LINE      ECODE    ---       #535
      00FF6245H   LINE      ECODE    ---       #538
      00FF6256H   LINE      ECODE    ---       #539
      00FF626FH   LINE      ECODE    ---       #540
      ---         BLOCKEND  ---      ---       LVL=0

L251 LINKER/LOCATER V4.65.0.0                                                         05/26/2017  20:22:53  PAGE 108


      00FF6270H   BLOCK     ECODE    ---       LVL=0
      00FF6272H   BLOCK     ECODE    NEAR LAB  LVL=1
      WR12        REGSYM    ---      WORD      i
      000040FAH   SYMBOL    EDATA    WORD      ausCbBuff
      WR14        REGSYM    ---      WORD      ausCbBase
      ---         BLOCKEND  ---      ---       LVL=1
      00FF6270H   LINE      ECODE    ---       #550
      00FF6272H   LINE      ECODE    ---       #551
      00FF6272H   LINE      ECODE    ---       #556
      00FF6275H   LINE      ECODE    ---       #558
      00FF6281H   LINE      ECODE    ---       #560
      00FF6289H   LINE      ECODE    ---       #561
      00FF6298H   LINE      ECODE    ---       #562
      00FF629AH   LINE      ECODE    ---       #564
      00FF62A6H   LINE      ECODE    ---       #565
      00FF62B2H   LINE      ECODE    ---       #567
      00FF62C9H   LINE      ECODE    ---       #568
      00FF62D8H   LINE      ECODE    ---       #569
      00FF62E0H   LINE      ECODE    ---       #571
      00FF62ECH   LINE      ECODE    ---       #573
      00FF62F4H   LINE      ECODE    ---       #574
      00FF6303H   LINE      ECODE    ---       #575
      00FF6305H   LINE      ECODE    ---       #577
      00FF6311H   LINE      ECODE    ---       #578
      00FF631DH   LINE      ECODE    ---       #580
      00FF6334H   LINE      ECODE    ---       #581
      00FF6343H   LINE      ECODE    ---       #582
      00FF634BH   LINE      ECODE    ---       #584
      00FF6357H   LINE      ECODE    ---       #587
      00FF635FH   LINE      ECODE    ---       #588
      00FF636EH   LINE      ECODE    ---       #589
      00FF6370H   LINE      ECODE    ---       #591
      00FF6387H   LINE      ECODE    ---       #592
      00FF6396H   LINE      ECODE    ---       #593
      00FF639EH   LINE      ECODE    ---       #595
      00FF63A1H   LINE      ECODE    ---       #596
      ---         BLOCKEND  ---      ---       LVL=0

      00FF63A4H   BLOCK     ECODE    ---       LVL=0
      00FF63A6H   BLOCK     ECODE    NEAR LAB  LVL=1
      WR14        REGSYM    ---      WORD      i
      0000180CH   SYMBOL    EDATA    ---       ausDataBuff
      WR6         REGSYM    ---      WORD      ausDataBase
      ---         BLOCKEND  ---      ---       LVL=1
      00FF63A4H   LINE      ECODE    ---       #605
      00FF63A6H   LINE      ECODE    ---       #606
      00FF63A6H   LINE      ECODE    ---       #611
      00FF63A9H   LINE      ECODE    ---       #614
      00FF63B1H   LINE      ECODE    ---       #615
      00FF63B3H   LINE      ECODE    ---       #617
      00FF63CAH   LINE      ECODE    ---       #618
      00FF63D2H   LINE      ECODE    ---       #621
      00FF63DAH   LINE      ECODE    ---       #622
      00FF63DCH   LINE      ECODE    ---       #624
      00FF63F3H   LINE      ECODE    ---       #625
      00FF63FBH   LINE      ECODE    ---       #628
      00FF6403H   LINE      ECODE    ---       #630
      00FF6405H   LINE      ECODE    ---       #632
      00FF641CH   LINE      ECODE    ---       #633
      00FF6424H   LINE      ECODE    ---       #635
      00FF6430H   LINE      ECODE    ---       #636
      00FF6432H   LINE      ECODE    ---       #638
      00FF643EH   LINE      ECODE    ---       #640
      00FF644AH   LINE      ECODE    ---       #641
      00FF644AH   LINE      ECODE    ---       #642
L251 LINKER/LOCATER V4.65.0.0                                                         05/26/2017  20:22:53  PAGE 109


      00FF6461H   LINE      ECODE    ---       #643
      00FF6469H   LINE      ECODE    ---       #645
      00FF6475H   LINE      ECODE    ---       #646
      00FF6477H   LINE      ECODE    ---       #648
      00FF6483H   LINE      ECODE    ---       #650
      00FF648FH   LINE      ECODE    ---       #651
      00FF648FH   LINE      ECODE    ---       #652
      00FF64A6H   LINE      ECODE    ---       #653
      00FF64AEH   LINE      ECODE    ---       #655
      00FF64BAH   LINE      ECODE    ---       #656
      00FF64BCH   LINE      ECODE    ---       #658
      00FF64D3H   LINE      ECODE    ---       #659
      00FF64DBH   LINE      ECODE    ---       #661
      00FF64E7H   LINE      ECODE    ---       #662
      00FF64FAH   LINE      ECODE    ---       #663
      00FF650DH   LINE      ECODE    ---       #665
      00FF6519H   LINE      ECODE    ---       #666
      00FF652CH   LINE      ECODE    ---       #667
      00FF653FH   LINE      ECODE    ---       #669
      00FF654BH   LINE      ECODE    ---       #670
      00FF655EH   LINE      ECODE    ---       #671
      00FF6571H   LINE      ECODE    ---       #672
      00FF6574H   LINE      ECODE    ---       #673
      ---         BLOCKEND  ---      ---       LVL=0

      00FF6577H   BLOCK     ECODE    ---       LVL=0
      WR14        REGSYM    ---      WORD      ucLen
      00FF657BH   BLOCK     ECODE    NEAR LAB  LVL=1
      WR12        REGSYM    ---      WORD      i
      0000180CH   SYMBOL    EDATA    WORD      ausDataBuff
      0000180EH   SYMBOL    EDATA    WORD      ausDataBase
      ---         BLOCKEND  ---      ---       LVL=1
      00FF6577H   LINE      ECODE    ---       #684
      00FF657BH   LINE      ECODE    ---       #685
      00FF657BH   LINE      ECODE    ---       #690
      00FF657EH   LINE      ECODE    ---       #693
      00FF658AH   LINE      ECODE    ---       #694
      00FF6596H   LINE      ECODE    ---       #695
      00FF659AH   LINE      ECODE    ---       #697
      00FF65B3H   LINE      ECODE    ---       #698
      00FF65BFH   LINE      ECODE    ---       #700
      00FF65CBH   LINE      ECODE    ---       #701
      00FF65CBH   LINE      ECODE    ---       #702
      00FF65DEH   LINE      ECODE    ---       #703
      00FF65E4H   LINE      ECODE    ---       #720
      00FF65E7H   LINE      ECODE    ---       #721
      ---         BLOCKEND  ---      ---       LVL=0

      00FF65EAH   BLOCK     ECODE    ---       LVL=0
      WR6         REGSYM    ---      WORD      usMaskL
      WR4         REGSYM    ---      WORD      usMaskH
      00FF65EAH   LINE      ECODE    ---       #730
      00FF65EAH   LINE      ECODE    ---       #733
      00FF65F2H   LINE      ECODE    ---       #736
      00FF65FAH   LINE      ECODE    ---       #737
      ---         BLOCKEND  ---      ---       LVL=0

      00FF65FBH   BLOCK     ECODE    ---       LVL=0
      00FF65FBH   LINE      ECODE    ---       #746
      00FF65FBH   LINE      ECODE    ---       #747
      00FF65FBH   LINE      ECODE    ---       #759
      00FF65FBH   LINE      ECODE    ---       #766
      00FF65FBH   LINE      ECODE    ---       #767
      00FF65FBH   LINE      ECODE    ---       #772
      00FF660CH   LINE      ECODE    ---       #773
L251 LINKER/LOCATER V4.65.0.0                                                         05/26/2017  20:22:53  PAGE 110


      00FF6617H   LINE      ECODE    ---       #776
      00FF6623H   LINE      ECODE    ---       #782
      00FF662FH   LINE      ECODE    ---       #790
      00FF662FH   LINE      ECODE    ---       #791
      00FF662FH   LINE      ECODE    ---       #795
      00FF662FH   LINE      ECODE    ---       #796
      00FF662FH   LINE      ECODE    ---       #800
      00FF662FH   LINE      ECODE    ---       #801
      00FF662FH   LINE      ECODE    ---       #805
      00FF662FH   LINE      ECODE    ---       #806
      00FF662FH   LINE      ECODE    ---       #807
      00FF662FH   LINE      ECODE    ---       #808
      00FF662FH   LINE      ECODE    ---       #809
      00FF662FH   LINE      ECODE    ---       #811
      00FF6633H   LINE      ECODE    ---       #813
      00FF6644H   LINE      ECODE    ---       #814
      00FF6651H   LINE      ECODE    ---       #816
      00FF6662H   LINE      ECODE    ---       #817
      00FF666FH   LINE      ECODE    ---       #819
      00FF6680H   LINE      ECODE    ---       #820
      00FF668DH   LINE      ECODE    ---       #822
      00FF669EH   LINE      ECODE    ---       #823
      00FF66ABH   LINE      ECODE    ---       #825
      00FF66BCH   LINE      ECODE    ---       #826
      00FF66C9H   LINE      ECODE    ---       #828
      00FF66D8H   LINE      ECODE    ---       #829
      00FF66E5H   LINE      ECODE    ---       #831
      00FF66F2H   LINE      ECODE    ---       #832
      00FF66FFH   LINE      ECODE    ---       #834
      00FF670CH   LINE      ECODE    ---       #835
      00FF6719H   LINE      ECODE    ---       #837
      00FF672AH   LINE      ECODE    ---       #838
      00FF6737H   LINE      ECODE    ---       #840
      00FF6748H   LINE      ECODE    ---       #841
      00FF6755H   LINE      ECODE    ---       #845
      00FF6766H   LINE      ECODE    ---       #846
      00FF676EH   LINE      ECODE    ---       #848
      00FF677FH   LINE      ECODE    ---       #849
      00FF6790H   LINE      ECODE    ---       #852
      00FF6796H   LINE      ECODE    ---       #854
      00FF67A7H   LINE      ECODE    ---       #855
      00FF67AFH   LINE      ECODE    ---       #857
      00FF67B7H   LINE      ECODE    ---       #858
      00FF67CEH   LINE      ECODE    ---       #860
      00FF67D3H   LINE      ECODE    ---       #861
      00FF67D7H   LINE      ECODE    ---       #862
      00FF67E3H   LINE      ECODE    ---       #864
      00FF67E9H   LINE      ECODE    ---       #868
      00FF67EDH   LINE      ECODE    ---       #870
      00FF67F7H   LINE      ECODE    ---       #873
      00FF6808H   LINE      ECODE    ---       #877
      ---         BLOCKEND  ---      ---       LVL=0

      00FF6809H   BLOCK     ECODE    ---       LVL=0
      00FF6809H   LINE      ECODE    ---       #880
      00FF6809H   LINE      ECODE    ---       #883
      00FF681AH   LINE      ECODE    ---       #884
      ---         BLOCKEND  ---      ---       LVL=0

      00FF681BH   BLOCK     ECODE    ---       LVL=0
      00FF681BH   LINE      ECODE    ---       #886
      00FF681BH   LINE      ECODE    ---       #889
      00FF682CH   LINE      ECODE    ---       #890
      ---         BLOCKEND  ---      ---       LVL=0

L251 LINKER/LOCATER V4.65.0.0                                                         05/26/2017  20:22:53  PAGE 111


      00FF682DH   BLOCK     ECODE    ---       LVL=0
      00FF682DH   LINE      ECODE    ---       #892
      00FF682DH   LINE      ECODE    ---       #895
      00FF683EH   LINE      ECODE    ---       #896
      ---         BLOCKEND  ---      ---       LVL=0

      00FF683FH   BLOCK     ECODE    ---       LVL=0
      00FF683FH   LINE      ECODE    ---       #898
      00FF683FH   LINE      ECODE    ---       #901
      00FF6850H   LINE      ECODE    ---       #902
      ---         BLOCKEND  ---      ---       LVL=0

      00FF6851H   BLOCK     ECODE    ---       LVL=0
      R7          REGSYM    ---      BYTE      ucTabId
      WR4         REGSYM    ---      INT       ucCbMode
      00FF6851H   LINE      ECODE    ---       #911
      00FF6855H   LINE      ECODE    ---       #915
      00FF6866H   LINE      ECODE    ---       #920
      00FF687BH   LINE      ECODE    ---       #922
      00FF687BH   LINE      ECODE    ---       #924
      00FF688CH   LINE      ECODE    ---       #925
      00FF689DH   LINE      ECODE    ---       #927
      00FF68CDH   LINE      ECODE    ---       #932
      00FF68FAH   LINE      ECODE    ---       #937
      00FF690CH   LINE      ECODE    ---       #940
      00FF691BH   LINE      ECODE    ---       #942
      00FF691EH   LINE      ECODE    ---       #945
      00FF691EH   LINE      ECODE    ---       #947
      00FF692FH   LINE      ECODE    ---       #948
      00FF6937H   LINE      ECODE    ---       #950
      00FF6967H   LINE      ECODE    ---       #955
      00FF6994H   LINE      ECODE    ---       #960
      00FF69A6H   LINE      ECODE    ---       #963
      00FF69B5H   LINE      ECODE    ---       #965
      00FF69B7H   LINE      ECODE    ---       #968
      00FF69B7H   LINE      ECODE    ---       #970
      00FF69C8H   LINE      ECODE    ---       #971
      00FF69D9H   LINE      ECODE    ---       #973
      00FF69F7H   LINE      ECODE    ---       #974
      00FF69F7H   LINE      ECODE    ---       #977
      00FF69F7H   LINE      ECODE    ---       #978
      00FF69F7H   LINE      ECODE    ---       #979
      00FF69F7H   LINE      ECODE    ---       #980
      ---         BLOCKEND  ---      ---       LVL=0

      00FF69F8H   BLOCK     ECODE    ---       LVL=0
      00FF69F8H   LINE      ECODE    ---       #989
      00FF69F8H   LINE      ECODE    ---       #991
      00FF6A04H   LINE      ECODE    ---       #992
      00FF6A0CH   LINE      ECODE    ---       #993
      ---         BLOCKEND  ---      ---       LVL=0

      00FF6A0DH   BLOCK     ECODE    ---       LVL=0
      R7          REGSYM    ---      BYTE      ucModeEn
      00FF6A0DH   LINE      ECODE    ---       #1002
      00FF6A0FH   LINE      ECODE    ---       #1005
      00FF6A20H   LINE      ECODE    ---       #1006
      00FF6A38H   LINE      ECODE    ---       #1009
      00FF6A49H   LINE      ECODE    ---       #1010
      00FF6A61H   LINE      ECODE    ---       #1012
      00FF6A69H   LINE      ECODE    ---       #1015
      00FF6A73H   LINE      ECODE    ---       #1016
      00FF6A75H   LINE      ECODE    ---       #1020
      00FF6A82H   LINE      ECODE    ---       #1021
      00FF6A82H   LINE      ECODE    ---       #1022
L251 LINKER/LOCATER V4.65.0.0                                                         05/26/2017  20:22:53  PAGE 112


      ---         BLOCKEND  ---      ---       LVL=0

      00FF6A83H   BLOCK     ECODE    ---       LVL=0
      WR6         REGSYM    ---      WORD      ucTimer
      00FF6A83H   LINE      ECODE    ---       #1030
      00FF6A83H   LINE      ECODE    ---       #1033
      00FF6A8EH   LINE      ECODE    ---       #1034
      ---         BLOCKEND  ---      ---       LVL=0

      00FF6AA5H   BLOCK     ECODE    ---       LVL=0
      R11         REGSYM    ---      BYTE      ucEn
      00FF6AA5H   LINE      ECODE    ---       #1044
      00FF6AA5H   LINE      ECODE    ---       #1047
      00FF6AABH   LINE      ECODE    ---       #1049
      00FF6AB5H   LINE      ECODE    ---       #1050
      00FF6AB7H   LINE      ECODE    ---       #1053
      00FF6AC4H   LINE      ECODE    ---       #1056
      00FF6AC4H   LINE      ECODE    ---       #1057
      ---         BLOCKEND  ---      ---       LVL=0

      00FF6ADBH   BLOCK     ECODE    ---       LVL=0
      R11         REGSYM    ---      BYTE      ucEn
      00FF6ADBH   LINE      ECODE    ---       #1067
      00FF6ADBH   LINE      ECODE    ---       #1069
      00FF6AE1H   LINE      ECODE    ---       #1071
      00FF6AEBH   LINE      ECODE    ---       #1072
      00FF6AEDH   LINE      ECODE    ---       #1075
      00FF6AFAH   LINE      ECODE    ---       #1076
      00FF6AFAH   LINE      ECODE    ---       #1078
      ---         BLOCKEND  ---      ---       LVL=0

      00FF6AFBH   BLOCK     ECODE    ---       LVL=0
      00FF6AFBH   LINE      ECODE    ---       #1088
      00FF6AFBH   LINE      ECODE    ---       #1091
      00FF6B01H   LINE      ECODE    ---       #1093
      00FF6B0AH   LINE      ECODE    ---       #1097
      00FF6B13H   LINE      ECODE    ---       #1102
      00FF6B24H   LINE      ECODE    ---       #1105
      00FF6B35H   LINE      ECODE    ---       #1106
      00FF6B46H   LINE      ECODE    ---       #1109
      00FF6B4BH   LINE      ECODE    ---       #1110
      00FF6B4FH   LINE      ECODE    ---       #1111
      00FF6B5BH   LINE      ECODE    ---       #1113
      00FF6B61H   LINE      ECODE    ---       #1115
      00FF6B65H   LINE      ECODE    ---       #1118
      00FF6B6DH   LINE      ECODE    ---       #1120
      00FF6B75H   LINE      ECODE    ---       #1128
      00FF6B81H   LINE      ECODE    ---       #1129
      00FF6B89H   LINE      ECODE    ---       #1132
      00FF6B91H   LINE      ECODE    ---       #1133
      00FF6B99H   LINE      ECODE    ---       #1134
      00FF6BA1H   LINE      ECODE    ---       #1136
      00FF6BA9H   LINE      ECODE    ---       #1137
      00FF6BB1H   LINE      ECODE    ---       #1141
      00FF6BC8H   LINE      ECODE    ---       #1142
      00FF6BDFH   LINE      ECODE    ---       #1143
      00FF6BF6H   LINE      ECODE    ---       #1144
      ---         BLOCKEND  ---      ---       LVL=0

      00FF6C0DH   BLOCK     ECODE    ---       LVL=0
      00FF6C0DH   LINE      ECODE    ---       #1163
      00FF6C0DH   LINE      ECODE    ---       #1165
      00FF6C1BH   LINE      ECODE    ---       #1167
      00FF6C28H   LINE      ECODE    ---       #1168
      00FF6C36H   LINE      ECODE    ---       #1169
L251 LINKER/LOCATER V4.65.0.0                                                         05/26/2017  20:22:53  PAGE 113


      ---         BLOCKEND  ---      ---       LVL=0

      00FF6C37H   BLOCK     ECODE    ---       LVL=0
      00FF6C37H   LINE      ECODE    ---       #1180
      00FF6C37H   LINE      ECODE    ---       #1182
      00FF6C49H   LINE      ECODE    ---       #1184
      00FF6C56H   LINE      ECODE    ---       #1185
      00FF6C68H   LINE      ECODE    ---       #1186
      ---         BLOCKEND  ---      ---       LVL=0

      00FF6C69H   BLOCK     ECODE    ---       LVL=0
      00FF6C69H   LINE      ECODE    ---       #1196
      00FF6C69H   LINE      ECODE    ---       #1199
      00FF6C7AH   LINE      ECODE    ---       #1200
      ---         BLOCKEND  ---      ---       LVL=0

      00FF6C7BH   BLOCK     ECODE    ---       LVL=0
      00FF6C7BH   LINE      ECODE    ---       #1209
      00FF6C7BH   LINE      ECODE    ---       #1212
      00FF6C8CH   LINE      ECODE    ---       #1213
      ---         BLOCKEND  ---      ---       LVL=0

      00FF6C8DH   BLOCK     ECODE    ---       LVL=0
      00FF6CA3H   BLOCK     ECODE    NEAR LAB  LVL=1
      WR12        REGSYM    ---      WORD      usAsmIntEn1
      WR14        REGSYM    ---      WORD      usAsmIntFlag1
      ---         BLOCKEND  ---      ---       LVL=1
      00FF6C8DH   LINE      ECODE    ---       #1222
      00FF6CA3H   LINE      ECODE    ---       #1223
      00FF6CA3H   LINE      ECODE    ---       #1227
      00FF6CA3H   LINE      ECODE    ---       #1228
      00FF6CABH   LINE      ECODE    ---       #1230
      00FF6CABH   LINE      ECODE    ---       #1231
      00FF6CAFH   LINE      ECODE    ---       #1234
      00FF6CB7H   LINE      ECODE    ---       #1236
      00FF6CBFH   LINE      ECODE    ---       #1239
      00FF6CCBH   LINE      ECODE    ---       #1241
      00FF6CD5H   LINE      ECODE    ---       #1242
      00FF6CDDH   LINE      ECODE    ---       #1243
      00FF6CDFH   LINE      ECODE    ---       #1246
      00FF6CF0H   LINE      ECODE    ---       #1247
      00FF6CFCH   LINE      ECODE    ---       #1248
      00FF6CFCH   LINE      ECODE    ---       #1250
      00FF6D0DH   LINE      ECODE    ---       #1251
      00FF6D18H   LINE      ECODE    ---       #1253
      00FF6D18H   LINE      ECODE    ---       #1257
      00FF6D20H   LINE      ECODE    ---       #1259
      00FF6D28H   LINE      ECODE    ---       #1262
      00FF6D3AH   LINE      ECODE    ---       #1264
      00FF6D44H   LINE      ECODE    ---       #1265
      00FF6D4CH   LINE      ECODE    ---       #1266
      00FF6D4EH   LINE      ECODE    ---       #1269
      00FF6D5BH   LINE      ECODE    ---       #1270
      00FF6D67H   LINE      ECODE    ---       #1271
      00FF6D67H   LINE      ECODE    ---       #1273
      00FF6D78H   LINE      ECODE    ---       #1274
      00FF6D83H   LINE      ECODE    ---       #1276
      00FF6D83H   LINE      ECODE    ---       #1279
      ---         BLOCKEND  ---      ---       LVL=0

      00FF6D9AH   BLOCK     ECODE    ---       LVL=0
      00FF6DB0H   BLOCK     ECODE    NEAR LAB  LVL=1
      WR12        REGSYM    ---      WORD      usAsmIntEn0
      00000065H   SYMBOL    DATA     WORD      usAsmIntEn1
      WR14        REGSYM    ---      WORD      usAsmIntFlag0
L251 LINKER/LOCATER V4.65.0.0                                                         05/26/2017  20:22:53  PAGE 114


      00000067H   SYMBOL    DATA     WORD      usAsmIntFlag1
      ---         BLOCKEND  ---      ---       LVL=1
      00FF6D9AH   LINE      ECODE    ---       #1288
      00FF6DB0H   LINE      ECODE    ---       #1289
      00FF6DB0H   LINE      ECODE    ---       #1293
      00FF6DB8H   LINE      ECODE    ---       #1294
      00FF6DBFH   LINE      ECODE    ---       #1296
      00FF6DC2H   LINE      ECODE    ---       #1297
      00FF6DC9H   LINE      ECODE    ---       #1300
      00FF6DD1H   LINE      ECODE    ---       #1303
      00FF6DD9H   LINE      ECODE    ---       #1305
      00FF6DE1H   LINE      ECODE    ---       #1307
      00FF6DF0H   LINE      ECODE    ---       #1308
      00FF6DFBH   LINE      ECODE    ---       #1310
      00FF6E05H   LINE      ECODE    ---       #1312
      00FF6E0BH   LINE      ECODE    ---       #1320
      00FF6E0BH   LINE      ECODE    ---       #1322
      00FF6E0BH   LINE      ECODE    ---       #1326
      00FF6E13H   LINE      ECODE    ---       #1328
      00FF6E1BH   LINE      ECODE    ---       #1330
      00FF6E2AH   LINE      ECODE    ---       #1331
      00FF6E35H   LINE      ECODE    ---       #1332
      00FF6E41H   LINE      ECODE    ---       #1335
      00FF6E41H   LINE      ECODE    ---       #1339
      00FF6E49H   LINE      ECODE    ---       #1341
      00FF6E51H   LINE      ECODE    ---       #1343
      00FF6E60H   LINE      ECODE    ---       #1344
      00FF6E6BH   LINE      ECODE    ---       #1345
      00FF6E82H   LINE      ECODE    ---       #1346
      00FF6E82H   LINE      ECODE    ---       #1350
      00FF6E8AH   LINE      ECODE    ---       #1352
      00FF6E92H   LINE      ECODE    ---       #1354
      00FF6EA1H   LINE      ECODE    ---       #1355
      00FF6EACH   LINE      ECODE    ---       #1356
      00FF6EB8H   LINE      ECODE    ---       #1360
      00FF6EBEH   LINE      ECODE    ---       #1362
      00FF6EBEH   LINE      ECODE    ---       #1366
      00FF6EC6H   LINE      ECODE    ---       #1368
      00FF6ECEH   LINE      ECODE    ---       #1370
      00FF6EDDH   LINE      ECODE    ---       #1371
      00FF6EE8H   LINE      ECODE    ---       #1372
      00FF6EEBH   LINE      ECODE    ---       #1373
      00FF6EEEH   LINE      ECODE    ---       #1375
      00FF6EF4H   LINE      ECODE    ---       #1376
      00FF6F00H   LINE      ECODE    ---       #1377
      00FF6F00H   LINE      ECODE    ---       #1381
      00FF6F08H   LINE      ECODE    ---       #1383
      00FF6F10H   LINE      ECODE    ---       #1385
      00FF6F1FH   LINE      ECODE    ---       #1386
      00FF6F2AH   LINE      ECODE    ---       #1387
      00FF6F30H   LINE      ECODE    ---       #1392
      00FF6F3AH   LINE      ECODE    ---       #1393
      00FF6F44H   LINE      ECODE    ---       #1395
      00FF6F4AH   LINE      ECODE    ---       #1396
      00FF6F4AH   LINE      ECODE    ---       #1399
      00FF6F4EH   LINE      ECODE    ---       #1400
      00FF6F54H   LINE      ECODE    ---       #1403
      00FF6F54H   LINE      ECODE    ---       #1406
      00FF6F58H   LINE      ECODE    ---       #1407
      00FF6F58H   LINE      ECODE    ---       #1410
      00FF6F58H   LINE      ECODE    ---       #1414
      00FF6F60H   LINE      ECODE    ---       #1416
      00FF6F68H   LINE      ECODE    ---       #1418
      00FF6F77H   LINE      ECODE    ---       #1419
      00FF6F82H   LINE      ECODE    ---       #1420
L251 LINKER/LOCATER V4.65.0.0                                                         05/26/2017  20:22:53  PAGE 115


      00FF6F8EH   LINE      ECODE    ---       #1421
      00FF6F8EH   LINE      ECODE    ---       #1425
      00FF6F96H   LINE      ECODE    ---       #1427
      00FF6F9EH   LINE      ECODE    ---       #1429
      00FF6FADH   LINE      ECODE    ---       #1430
      00FF6FB8H   LINE      ECODE    ---       #1431
      00FF6FBEH   LINE      ECODE    ---       #1432
      00FF6FCAH   LINE      ECODE    ---       #1433
      00FF6FCAH   LINE      ECODE    ---       #1437
      00FF6FD2H   LINE      ECODE    ---       #1439
      00FF6FDAH   LINE      ECODE    ---       #1441
      00FF6FE9H   LINE      ECODE    ---       #1442
      00FF6FF4H   LINE      ECODE    ---       #1443
      00FF6FFAH   LINE      ECODE    ---       #1444
      00FF7006H   LINE      ECODE    ---       #1445
      00FF7006H   LINE      ECODE    ---       #1449
      00FF700FH   LINE      ECODE    ---       #1451
      00FF7018H   LINE      ECODE    ---       #1453
      00FF7029H   LINE      ECODE    ---       #1454
      00FF7034H   LINE      ECODE    ---       #1455
      00FF703AH   LINE      ECODE    ---       #1456
      00FF7046H   LINE      ECODE    ---       #1457
      00FF7046H   LINE      ECODE    ---       #1461
      00FF704EH   LINE      ECODE    ---       #1463
      00FF7056H   LINE      ECODE    ---       #1465
      00FF7065H   LINE      ECODE    ---       #1466
      00FF7070H   LINE      ECODE    ---       #1475
      00FF7074H   LINE      ECODE    ---       #1476
      00FF7074H   LINE      ECODE    ---       #1480
      00FF707CH   LINE      ECODE    ---       #1482
      00FF7084H   LINE      ECODE    ---       #1484
      00FF7093H   LINE      ECODE    ---       #1485
      00FF709EH   LINE      ECODE    ---       #1486
      00FF70AAH   LINE      ECODE    ---       #1487
      00FF70AAH   LINE      ECODE    ---       #1491
      00FF70B2H   LINE      ECODE    ---       #1493
      00FF70BAH   LINE      ECODE    ---       #1495
      00FF70C9H   LINE      ECODE    ---       #1496
      00FF70D4H   LINE      ECODE    ---       #1497
      00FF70E0H   LINE      ECODE    ---       #1498
      00FF70E0H   LINE      ECODE    ---       #1502
      00FF70E8H   LINE      ECODE    ---       #1504
      00FF70F0H   LINE      ECODE    ---       #1506
      00FF70FFH   LINE      ECODE    ---       #1507
      00FF710AH   LINE      ECODE    ---       #1508
      00FF7110H   LINE      ECODE    ---       #1509
      00FF711CH   LINE      ECODE    ---       #1511
      00FF711CH   LINE      ECODE    ---       #1559
      00FF7124H   LINE      ECODE    ---       #1561
      00FF712CH   LINE      ECODE    ---       #1563
      00FF713BH   LINE      ECODE    ---       #1564
      00FF7149H   LINE      ECODE    ---       #1566
      00FF7154H   LINE      ECODE    ---       #1567
      00FF7159H   LINE      ECODE    ---       #1568
      00FF715CH   LINE      ECODE    ---       #1569
      00FF715FH   LINE      ECODE    ---       #1570
      00FF716BH   LINE      ECODE    ---       #1571
      00FF716BH   LINE      ECODE    ---       #1573
      00FF716BH   LINE      ECODE    ---       #1576
      00FF7173H   LINE      ECODE    ---       #1578
      00FF717BH   LINE      ECODE    ---       #1580
      00FF7189H   LINE      ECODE    ---       #1582
      00FF7194H   LINE      ECODE    ---       #1583
      00FF719BH   LINE      ECODE    ---       #1585
      00FF71A1H   LINE      ECODE    ---       #1586
L251 LINKER/LOCATER V4.65.0.0                                                         05/26/2017  20:22:53  PAGE 116


      00FF71A9H   LINE      ECODE    ---       #1587
      00FF71ABH   LINE      ECODE    ---       #1590
      00FF71B1H   LINE      ECODE    ---       #1591
      00FF71BDH   LINE      ECODE    ---       #1592
      00FF71BDH   LINE      ECODE    ---       #1593
      00FF71CCH   LINE      ECODE    ---       #1595
      00FF71CFH   LINE      ECODE    ---       #1596
      00FF71D2H   LINE      ECODE    ---       #1597
      00FF71DEH   LINE      ECODE    ---       #1598
      00FF71DEH   LINE      ECODE    ---       #1600
      00FF71DEH   LINE      ECODE    ---       #1604
      00FF71E7H   LINE      ECODE    ---       #1606
      00FF71F0H   LINE      ECODE    ---       #1608
      00FF7201H   LINE      ECODE    ---       #1609
      00FF720CH   LINE      ECODE    ---       #1611
      00FF720CH   LINE      ECODE    ---       #1615
      00FF7215H   LINE      ECODE    ---       #1617
      00FF721EH   LINE      ECODE    ---       #1619
      00FF722FH   LINE      ECODE    ---       #1620
      00FF723AH   LINE      ECODE    ---       #1621
      00FF7246H   LINE      ECODE    ---       #1622
      00FF7246H   LINE      ECODE    ---       #1626
      00FF724FH   LINE      ECODE    ---       #1628
      00FF7258H   LINE      ECODE    ---       #1630
      00FF7269H   LINE      ECODE    ---       #1631
      00FF7274H   LINE      ECODE    ---       #1632
      00FF7280H   LINE      ECODE    ---       #1633
      00FF7280H   LINE      ECODE    ---       #1637
      00FF7289H   LINE      ECODE    ---       #1639
      00FF7292H   LINE      ECODE    ---       #1641
      00FF72A3H   LINE      ECODE    ---       #1642
      00FF72AEH   LINE      ECODE    ---       #1643
      00FF72BAH   LINE      ECODE    ---       #1644
      00FF72BAH   LINE      ECODE    ---       #1648
      00FF72C3H   LINE      ECODE    ---       #1650
      00FF72CCH   LINE      ECODE    ---       #1652
      00FF72DDH   LINE      ECODE    ---       #1653
      00FF72E8H   LINE      ECODE    ---       #1654
      00FF72F4H   LINE      ECODE    ---       #1655
      00FF72F4H   LINE      ECODE    ---       #1659
      00FF72FDH   LINE      ECODE    ---       #1661
      00FF7306H   LINE      ECODE    ---       #1663
      00FF7317H   LINE      ECODE    ---       #1664
      00FF7322H   LINE      ECODE    ---       #1665
      00FF732EH   LINE      ECODE    ---       #1666
      00FF732EH   LINE      ECODE    ---       #1670
      00FF7337H   LINE      ECODE    ---       #1672
      00FF7340H   LINE      ECODE    ---       #1674
      00FF7351H   LINE      ECODE    ---       #1675
      00FF735CH   LINE      ECODE    ---       #1676
      00FF7368H   LINE      ECODE    ---       #1677
      00FF7368H   LINE      ECODE    ---       #1681
      00FF7371H   LINE      ECODE    ---       #1683
      00FF737AH   LINE      ECODE    ---       #1685
      00FF738BH   LINE      ECODE    ---       #1686
      00FF7396H   LINE      ECODE    ---       #1687
      00FF73A2H   LINE      ECODE    ---       #1688
      00FF73A2H   LINE      ECODE    ---       #1692
      00FF73ABH   LINE      ECODE    ---       #1694
      00FF73B4H   LINE      ECODE    ---       #1696
      00FF73C5H   LINE      ECODE    ---       #1697
      00FF73D0H   LINE      ECODE    ---       #1698
      00FF73DCH   LINE      ECODE    ---       #1699
      00FF73DCH   LINE      ECODE    ---       #1701
      ---         BLOCKEND  ---      ---       LVL=0
L251 LINKER/LOCATER V4.65.0.0                                                         05/26/2017  20:22:53  PAGE 117



      ---         MODULE    ---      ---       uart
      00FEF670H   PUBLIC    ECODE    ---       TestFun1?
      00FEF67CH   PUBLIC    ECODE    ---       TestFun2?
      00FEF58CH   PUBLIC    ECODE    ---       Uart_GetIntNum?
      00FEF4D7H   PUBLIC    ECODE    ---       uart0_putc?
      00FEF538H   PUBLIC    ECODE    ---       Uart_GetString?
      00FEF4E1H   PUBLIC    ECODE    ---       uart0_puts?
      00FEF688H   PUBLIC    ECODE    ---       TestUart?
      00FEF4B8H   PUBLIC    ECODE    ---       DrvUartInit?
      00FEF429H   PUBLIC    ECODE    ---       ISR_Uart?
      00FEF52CH   PUBLIC    ECODE    ---       uart0_getc?
      00FEF3E8H   PUBLIC    ECODE    ---       getbyte?
      00FEF39EH   PUBLIC    ECODE    ---       putchar?
      000031A0H   PUBLIC    EDATA    ---       s_aucUartInBuf
      000031C0H   PUBLIC    EDATA    ---       s_aucUartOutBuf
      000035C0H   PUBLIC    EDATA    ---       string
      000035F2H   PUBLIC    EDATA    BYTE      s_ucUartRxStore
      000035F3H   PUBLIC    EDATA    WORD      s_ucUartTxStore
      000035F5H   PUBLIC    EDATA    BYTE      s_ucUartRxLen
      000035F6H   PUBLIC    EDATA    WORD      s_ucUartTxLen
      000035F8H   PUBLIC    EDATA    BYTE      s_ucUartRxPos
      000035F9H   PUBLIC    EDATA    WORD      s_ucUartTxPos
      00000008H   PUBLIC    DATA     ---       function
      000000DAH.6 SFRSYM    DATA     BIT       UART_INH
      000000B6H   SFRSYM    DATA     BYTE      RTCCON1
      000000BFH   SFRSYM    DATA     BYTE      CGUCON8
      000000CEH   SFRSYM    DATA     BYTE      CGUCON6
      000000CDH   SFRSYM    DATA     BYTE      CGUCON5
      000000CCH   SFRSYM    DATA     BYTE      CGUCON4
      000000CBH   SFRSYM    DATA     BYTE      CGUCON3
      000000CAH   SFRSYM    DATA     BYTE      CGUCON2
      000000C8H   SFRSYM    DATA     BYTE      CGUCON1
      000000C9H   SFRSYM    DATA     BYTE      CGUCON0
      000000D9H   SFRSYM    DATA     BYTE      MEMBIST_ERRMAP2
      000000D8H   SFRSYM    DATA     BYTE      MEMBIST_ERRMAP1
      00000098H.3 SFRSYM    DATA     BIT       UART1
      00000098H.2 SFRSYM    DATA     BIT       UART0
      000000B0H   SFRSYM    DATA     BYTE      ANACON9
      000000A0H   SFRSYM    DATA     BYTE      ANACON8
      000000D5H   SFRSYM    DATA     BYTE      MEMBIST_FINISH2
      000000C7H   SFRSYM    DATA     BYTE      ANACON7
      000000D4H   SFRSYM    DATA     BYTE      MEMBIST_FINISH1
      000000E9H   SFRSYM    DATA     BYTE      SFTRST
      000000EEH   SFRSYM    DATA     BYTE      P1SEL
      000000C3H   SFRSYM    DATA     BYTE      ANACON3
      000000ECH   SFRSYM    DATA     BYTE      P0SEL
      000000C2H   SFRSYM    DATA     BYTE      ANACON2
      000000C1H   SFRSYM    DATA     BYTE      ANACON1
      000000EDH   SFRSYM    DATA     BYTE      P1MOD
      00000098H   SFRSYM    DATA     BYTE      SYSCON
      000000ADH   SFRSYM    DATA     BYTE      P1DIR
      000000EBH   SFRSYM    DATA     BYTE      P0MOD
      000000ACH   SFRSYM    DATA     BYTE      P0DIR
      000000C8H.2 SFRSYM    DATA     BIT       UARTCKEN
      00000094H   SFRSYM    DATA     BYTE      P1BUF
      00000080H   SFRSYM    DATA     BYTE      P0BUF
      000000E4H   SFRSYM    DATA     BYTE      TESTCON3
      000000E3H   SFRSYM    DATA     BYTE      TESTCON2
      000000E5H   SFRSYM    DATA     BYTE      IWKSTA
      0000009AH   SFRSYM    DATA     BYTE      WDTREL
      000000E2H   SFRSYM    DATA     BYTE      TESTCON1
      000000E1H   SFRSYM    DATA     BYTE      TESTCON0
      00000099H   SFRSYM    DATA     BYTE      WDTCON
      000000C0H   SFRSYM    DATA     BYTE      AIF
L251 LINKER/LOCATER V4.65.0.0                                                         05/26/2017  20:22:53  PAGE 118


      000000E8H   SFRSYM    DATA     BYTE      AIE
      000000ABH   SFRSYM    DATA     BYTE      UART_RELL
      000000BDH   SFRSYM    DATA     BYTE      FT_EN_REG
      0000009EH   SFRSYM    DATA     BYTE      RTCCON
      000000AEH   SFRSYM    DATA     BYTE      UART_RELH
      000000FEH   SFRSYM    DATA     BYTE      LED_EN
      000000B9H   SFRSYM    DATA     BYTE      CNTCON
      000000D7H   SFRSYM    DATA     BYTE      MEMBIST_FAIL2
      000000D6H   SFRSYM    DATA     BYTE      MEMBIST_FAIL1
      000000A9H.1 SFRSYM    DATA     BIT       UART_TI
      000000D3H   SFRSYM    DATA     BYTE      MEMBIST_EN2
      000000D2H   SFRSYM    DATA     BYTE      MEMBIST_EN1
      000000A9H   SFRSYM    DATA     BIT       UART_RI
      0000009BH   SFRSYM    DATA     BYTE      TDIV
      000000EFH   SFRSYM    DATA     BYTE      XDP_STA
      00000088H   SFRSYM    DATA     BYTE      TCON
      00000089H   SFRSYM    DATA     BYTE      TMOD
      000000A9H.4 SFRSYM    DATA     BIT       UART_REN1
      000000A7H   SFRSYM    DATA     BYTE      SPI0CON5
      000000B2H   SFRSYM    DATA     BYTE      SPI1CON4
      000000B1H   SFRSYM    DATA     BYTE      SPI1CON3
      000000A5H   SFRSYM    DATA     BYTE      SPI0CON3
      000000B4H   SFRSYM    DATA     BYTE      SPI1CON2
      000000EAH   SFRSYM    DATA     BYTE      ANACON
      00000087H   SFRSYM    DATA     BYTE      PCON
      000000A3H   SFRSYM    DATA     BYTE      SPI0CON2
      000000DAH   SFRSYM    DATA     BYTE      DSV_CON
      000000F8H   SFRSYM    DATA     BYTE      AIPL
      00000095H   SFRSYM    DATA     BYTE      I2CSEL
      000000F5H   SFRSYM    DATA     BYTE      SSCG_CON0
      000000F7H   SFRSYM    DATA     BYTE      AIPH
      000000FDH   SFRSYM    DATA     BYTE      I2C_STATE
      00000090H   SFRSYM    DATA     BYTE      I2CCON
      000000A9H   SFRSYM    DATA     BYTE      UARTCON
      000000AAH   SFRSYM    DATA     BYTE      UARTBUF
      000000B8H   SFRSYM    DATA     BYTE      IPL0
      000000B7H   SFRSYM    DATA     BYTE      IPH0
      000000DFH   SFRSYM    DATA     BYTE      IEN1
      000000A8H   SFRSYM    DATA     BYTE      IEN0
      000000A8H.6 SFRSYM    DATA     BIT       EC
      00000093H   SFRSYM    DATA     BYTE      I2CSTOP
      000000DAH.5 SFRSYM    DATA     BIT       UART_INL
      000000B3H   SFRSYM    DATA     BYTE      SPI1CON
      000000A2H   SFRSYM    DATA     BYTE      SPI0CON

      00FEF39EH   BLOCK     ECODE    ---       LVL=0
      R11         REGSYM    ---      CHAR      ch
      00FEF39EH   LINE      ECODE    ---       #73
      00FEF39EH   LINE      ECODE    ---       #75
      00FEF3A0H   LINE      ECODE    ---       #76
      00FEF3A0H   LINE      ECODE    ---       #78
      00FEF3AAH   LINE      ECODE    ---       #80
      00FEF3ACH   LINE      ECODE    ---       #82
      00FEF3B6H   LINE      ECODE    ---       #83
      00FEF3C0H   LINE      ECODE    ---       #85
      00FEF3C2H   LINE      ECODE    ---       #86
      00FEF3C4H   LINE      ECODE    ---       #89
      00FEF3D4H   LINE      ECODE    ---       #90
      00FEF3DEH   LINE      ECODE    ---       #92
      00FEF3E4H   LINE      ECODE    ---       #93
      00FEF3E4H   LINE      ECODE    ---       #96
      00FEF3E6H   LINE      ECODE    ---       #97
      00FEF3E7H   LINE      ECODE    ---       #98
      ---         BLOCKEND  ---      ---       LVL=0

L251 LINKER/LOCATER V4.65.0.0                                                         05/26/2017  20:22:53  PAGE 119


      00FEF3E8H   BLOCK     ECODE    ---       LVL=0
      WR6         REGSYM    ---      WORD      timeout
      R10         REGSYM    ---      BYTE      ch
      00FEF3E8H   LINE      ECODE    ---       #108
      00FEF3E8H   LINE      ECODE    ---       #109
      00FEF3E8H   LINE      ECODE    ---       #113
      00FEF3EAH   LINE      ECODE    ---       #115
      00FEF3F2H   LINE      ECODE    ---       #117
      00FEF3F4H   LINE      ECODE    ---       #118
      00FEF3FAH   LINE      ECODE    ---       #121
      00FEF3FCH   LINE      ECODE    ---       #122
      00FEF40DH   LINE      ECODE    ---       #123
      00FEF416H   LINE      ECODE    ---       #125
      00FEF41BH   LINE      ECODE    ---       #126
      00FEF41BH   LINE      ECODE    ---       #127
      00FEF424H   LINE      ECODE    ---       #130
      00FEF426H   LINE      ECODE    ---       #132
      00FEF428H   LINE      ECODE    ---       #133
      ---         BLOCKEND  ---      ---       LVL=0

      00FEF429H   BLOCK     ECODE    ---       LVL=0
      00FEF429H   LINE      ECODE    ---       #143
      00FEF42DH   LINE      ECODE    ---       #146
      00FEF431H   LINE      ECODE    ---       #148
      00FEF434H   LINE      ECODE    ---       #151
      00FEF43DH   LINE      ECODE    ---       #153
      00FEF443H   LINE      ECODE    ---       #154
      00FEF445H   LINE      ECODE    ---       #157
      00FEF44EH   LINE      ECODE    ---       #158
      00FEF462H   LINE      ECODE    ---       #159
      00FEF46BH   LINE      ECODE    ---       #161
      00FEF470H   LINE      ECODE    ---       #162
      00FEF470H   LINE      ECODE    ---       #164
      00FEF470H   LINE      ECODE    ---       #167
      00FEF474H   LINE      ECODE    ---       #169
      00FEF477H   LINE      ECODE    ---       #170
      00FEF47FH   LINE      ECODE    ---       #172
      00FEF489H   LINE      ECODE    ---       #173
      00FEF491H   LINE      ECODE    ---       #176
      00FEF4A3H   LINE      ECODE    ---       #177
      00FEF4ADH   LINE      ECODE    ---       #179
      00FEF4B3H   LINE      ECODE    ---       #180
      00FEF4B3H   LINE      ECODE    ---       #182
      00FEF4B3H   LINE      ECODE    ---       #183
      00FEF4B3H   LINE      ECODE    ---       #184
      ---         BLOCKEND  ---      ---       LVL=0

      00FEF4B8H   BLOCK     ECODE    ---       LVL=0
      00FEF4B8H   LINE      ECODE    ---       #197
      00FEF4B8H   LINE      ECODE    ---       #198
      00FEF4B8H   LINE      ECODE    ---       #201
      00FEF4BBH   LINE      ECODE    ---       #203
      00FEF4BDH   LINE      ECODE    ---       #204
      00FEF4BFH   LINE      ECODE    ---       #206
      00FEF4C2H   LINE      ECODE    ---       #208
      00FEF4C5H   LINE      ECODE    ---       #209
      00FEF4C8H   LINE      ECODE    ---       #210
      00FEF4CBH   LINE      ECODE    ---       #223
      00FEF4CDH   LINE      ECODE    ---       #227
      00FEF4D0H   LINE      ECODE    ---       #230
      00FEF4D0H   LINE      ECODE    ---       #231
      00FEF4D3H   LINE      ECODE    ---       #232
      00FEF4D6H   LINE      ECODE    ---       #233
      ---         BLOCKEND  ---      ---       LVL=0

L251 LINKER/LOCATER V4.65.0.0                                                         05/26/2017  20:22:53  PAGE 120


      00FEF4D7H   BLOCK     ECODE    ---       LVL=0
      R11         REGSYM    ---      CHAR      ch
      00FEF4D7H   LINE      ECODE    ---       #236
      00FEF4D7H   LINE      ECODE    ---       #238
      00FEF4DBH   LINE      ECODE    ---       #239
      00FEF4DEH   LINE      ECODE    ---       #240
      00FEF4E0H   LINE      ECODE    ---       #241
      ---         BLOCKEND  ---      ---       LVL=0

      00FEF4E1H   BLOCK     ECODE    ---       LVL=0
      REG=0       REGSYM    ---      ---       buf
      R10         REGSYM    ---      BYTE      i
      00FEF4E1H   LINE      ECODE    ---       #243
      00FEF4E1H   LINE      ECODE    ---       #244
      00FEF4E1H   LINE      ECODE    ---       #245
      00FEF4E3H   LINE      ECODE    ---       #247
      00FEF4E5H   LINE      ECODE    ---       #249
      00FEF4E7H   LINE      ECODE    ---       #251
      00FEF4F3H   LINE      ECODE    ---       #253
      00FEF4F6H   LINE      ECODE    ---       #254
      00FEF4FAH   LINE      ECODE    ---       #255
      00FEF4FDH   LINE      ECODE    ---       #256
      00FEF4FDH   LINE      ECODE    ---       #258
      00FEF50CH   LINE      ECODE    ---       #259
      00FEF515H   LINE      ECODE    ---       #260
      00FEF515H   LINE      ECODE    ---       #261
      00FEF519H   LINE      ECODE    ---       #262
      00FEF51DH   LINE      ECODE    ---       #263
      00FEF520H   LINE      ECODE    ---       #264
      00FEF52BH   LINE      ECODE    ---       #265
      ---         BLOCKEND  ---      ---       LVL=0

      00FEF52CH   BLOCK     ECODE    ---       LVL=0
      R11         REGSYM    ---      CHAR      rec_ch
      00FEF52CH   LINE      ECODE    ---       #267
      00FEF52CH   LINE      ECODE    ---       #268
      00FEF52CH   LINE      ECODE    ---       #269
      00FEF52EH   LINE      ECODE    ---       #271
      00FEF532H   LINE      ECODE    ---       #272
      00FEF535H   LINE      ECODE    ---       #273
      00FEF537H   LINE      ECODE    ---       #275
      00FEF537H   LINE      ECODE    ---       #276
      ---         BLOCKEND  ---      ---       LVL=0

      00FEF538H   BLOCK     ECODE    ---       LVL=0
      REG=0       REGSYM    ---      ---       string
      R7          REGSYM    ---      CHAR      c
      R10         REGSYM    ---      CHAR      node
      00FEF538H   LINE      ECODE    ---       #278
      00FEF538H   LINE      ECODE    ---       #279
      00FEF538H   LINE      ECODE    ---       #281
      00FEF53AH   LINE      ECODE    ---       #283
      00FEF53AH   LINE      ECODE    ---       #285
      00FEF540H   LINE      ECODE    ---       #286
      00FEF549H   LINE      ECODE    ---       #288
      00FEF55FH   LINE      ECODE    ---       #290
      00FEF561H   LINE      ECODE    ---       #291
      00FEF563H   LINE      ECODE    ---       #292
      00FEF563H   LINE      ECODE    ---       #293
      00FEF569H   LINE      ECODE    ---       #295
      00FEF56FH   LINE      ECODE    ---       #296
      00FEF575H   LINE      ECODE    ---       #297
      00FEF577H   LINE      ECODE    ---       #298
      00FEF577H   LINE      ECODE    ---       #300
      00FEF57DH   LINE      ECODE    ---       #302
L251 LINKER/LOCATER V4.65.0.0                                                         05/26/2017  20:22:53  PAGE 121


      00FEF57FH   LINE      ECODE    ---       #303
      00FEF581H   LINE      ECODE    ---       #304
      00FEF58BH   LINE      ECODE    ---       #305
      ---         BLOCKEND  ---      ---       LVL=0

      00FEF58CH   BLOCK     ECODE    ---       LVL=0
      REG=7       REGSYM    ---      ---       string
      00FEF590H   BLOCK     ECODE    NEAR LAB  LVL=1
      R4          REGSYM    ---      CHAR      LastIndex
      R10         REGSYM    ---      CHAR      i
      R5          REGSYM    ---      CHAR      Result
      R15         REGSYM    ---      CHAR      Base
      ---         BLOCKEND  ---      ---       LVL=1
      00FEF58CH   LINE      ECODE    ---       #307
      00FEF590H   LINE      ECODE    ---       #308
      00FEF590H   LINE      ECODE    ---       #311
      00FEF592H   LINE      ECODE    ---       #312
      00FEF595H   LINE      ECODE    ---       #315
      00FEF5A7H   LINE      ECODE    ---       #317
      00FEF5AAH   LINE      ECODE    ---       #318
      00FEF5ACH   LINE      ECODE    ---       #319
      00FEF5ACH   LINE      ECODE    ---       #321
      00FEF5B6H   LINE      ECODE    ---       #322
      00FEF5BBH   LINE      ECODE    ---       #323
      00FEF5C0H   LINE      ECODE    ---       #325
      00FEF5D1H   LINE      ECODE    ---       #327
      00FEF5D4H   LINE      ECODE    ---       #328
      00FEF5D8H   LINE      ECODE    ---       #329
      00FEF5DAH   LINE      ECODE    ---       #330
      00FEF5DAH   LINE      ECODE    ---       #332
      00FEF5DFH   LINE      ECODE    ---       #334
      00FEF5E7H   LINE      ECODE    ---       #335
      00FEF5EAH   LINE      ECODE    ---       #338
      00FEF5EEH   LINE      ECODE    ---       #340
      00FEF5FDH   LINE      ECODE    ---       #342
      00FEF60EH   LINE      ECODE    ---       #343
      00FEF62BH   LINE      ECODE    ---       #345
      00FEF646H   LINE      ECODE    ---       #346
      00FEF648H   LINE      ECODE    ---       #348
      00FEF665H   LINE      ECODE    ---       #349
      00FEF66BH   LINE      ECODE    ---       #350
      00FEF66BH   LINE      ECODE    ---       #352
      00FEF66DH   LINE      ECODE    ---       #353
      ---         BLOCKEND  ---      ---       LVL=0

      00FEF670H   BLOCK     ECODE    ---       LVL=0
      00FEF670H   LINE      ECODE    ---       #355
      00FEF670H   LINE      ECODE    ---       #357
      ---         BLOCKEND  ---      ---       LVL=0

      00FEF67CH   BLOCK     ECODE    ---       LVL=0
      00FEF67CH   LINE      ECODE    ---       #360
      00FEF67CH   LINE      ECODE    ---       #362
      ---         BLOCKEND  ---      ---       LVL=0

      00FEF688H   BLOCK     ECODE    ---       LVL=0
      00FEF68AH   BLOCK     ECODE    NEAR LAB  LVL=1
      R10         REGSYM    ---      BYTE      ch
      R15         REGSYM    ---      BYTE      i
      ---         BLOCKEND  ---      ---       LVL=1
      00FEF688H   LINE      ECODE    ---       #378
      00FEF68AH   LINE      ECODE    ---       #379
      00FEF68AH   LINE      ECODE    ---       #381
      00FEF68AH   LINE      ECODE    ---       #382
      00FEF69DH   LINE      ECODE    ---       #383
L251 LINKER/LOCATER V4.65.0.0                                                         05/26/2017  20:22:53  PAGE 122


      00FEF6B0H   LINE      ECODE    ---       #384
      00FEF6C3H   LINE      ECODE    ---       #385
      00FEF6D6H   LINE      ECODE    ---       #387
      00FEF6DEH   LINE      ECODE    ---       #389
      00FEF6E0H   LINE      ECODE    ---       #390
      00FEF6E0H   LINE      ECODE    ---       #402
      00FEF6E6H   LINE      ECODE    ---       #403
      00FEF6E9H   LINE      ECODE    ---       #404
      00FEF6EDH   LINE      ECODE    ---       #405
      00FEF6F0H   LINE      ECODE    ---       #407
      00FEF6FAH   LINE      ECODE    ---       #408
      00FEF6FAH   LINE      ECODE    ---       #410
      00FEF6FAH   LINE      ECODE    ---       #411
      00FEF6FCH   LINE      ECODE    ---       #429
      00FEF708H   LINE      ECODE    ---       #430
      00FEF710H   LINE      ECODE    ---       #431
      00FEF71AH   LINE      ECODE    ---       #433
      00FEF724H   LINE      ECODE    ---       #434
      00FEF735H   LINE      ECODE    ---       #435
      ---         BLOCKEND  ---      ---       LVL=0

      ---         MODULE    ---      ---       TestRwSFR
      000000B6H   SFRSYM    DATA     BYTE      RTCCON1
      000000BFH   SFRSYM    DATA     BYTE      CGUCON8
      000000CEH   SFRSYM    DATA     BYTE      CGUCON6
      000000CDH   SFRSYM    DATA     BYTE      CGUCON5
      000000CCH   SFRSYM    DATA     BYTE      CGUCON4
      000000CBH   SFRSYM    DATA     BYTE      CGUCON3
      000000CAH   SFRSYM    DATA     BYTE      CGUCON2
      000000C8H   SFRSYM    DATA     BYTE      CGUCON1
      000000C9H   SFRSYM    DATA     BYTE      CGUCON0
      000000D9H   SFRSYM    DATA     BYTE      MEMBIST_ERRMAP2
      000000D8H   SFRSYM    DATA     BYTE      MEMBIST_ERRMAP1
      000000B0H   SFRSYM    DATA     BYTE      ANACON9
      000000A0H   SFRSYM    DATA     BYTE      ANACON8
      000000D5H   SFRSYM    DATA     BYTE      MEMBIST_FINISH2
      000000C7H   SFRSYM    DATA     BYTE      ANACON7
      000000D4H   SFRSYM    DATA     BYTE      MEMBIST_FINISH1
      000000E9H   SFRSYM    DATA     BYTE      SFTRST
      000000EEH   SFRSYM    DATA     BYTE      P1SEL
      000000C3H   SFRSYM    DATA     BYTE      ANACON3
      000000ECH   SFRSYM    DATA     BYTE      P0SEL
      000000C2H   SFRSYM    DATA     BYTE      ANACON2
      000000C1H   SFRSYM    DATA     BYTE      ANACON1
      000000EDH   SFRSYM    DATA     BYTE      P1MOD
      00000098H   SFRSYM    DATA     BYTE      SYSCON
      000000ADH   SFRSYM    DATA     BYTE      P1DIR
      000000EBH   SFRSYM    DATA     BYTE      P0MOD
      000000ACH   SFRSYM    DATA     BYTE      P0DIR
      00000094H   SFRSYM    DATA     BYTE      P1BUF
      00000080H   SFRSYM    DATA     BYTE      P0BUF
      000000E4H   SFRSYM    DATA     BYTE      TESTCON3
      000000E3H   SFRSYM    DATA     BYTE      TESTCON2
      000000E5H   SFRSYM    DATA     BYTE      IWKSTA
      0000009AH   SFRSYM    DATA     BYTE      WDTREL
      000000E2H   SFRSYM    DATA     BYTE      TESTCON1
      000000E1H   SFRSYM    DATA     BYTE      TESTCON0
      00000099H   SFRSYM    DATA     BYTE      WDTCON
      000000C0H   SFRSYM    DATA     BYTE      AIF
      000000E8H   SFRSYM    DATA     BYTE      AIE
      000000BDH   SFRSYM    DATA     BYTE      FT_EN_REG
      0000009EH   SFRSYM    DATA     BYTE      RTCCON
      000000FEH   SFRSYM    DATA     BYTE      LED_EN
      000000B9H   SFRSYM    DATA     BYTE      CNTCON
      000000D7H   SFRSYM    DATA     BYTE      MEMBIST_FAIL2
L251 LINKER/LOCATER V4.65.0.0                                                         05/26/2017  20:22:53  PAGE 123


      000000D6H   SFRSYM    DATA     BYTE      MEMBIST_FAIL1
      000000D3H   SFRSYM    DATA     BYTE      MEMBIST_EN2
      000000D2H   SFRSYM    DATA     BYTE      MEMBIST_EN1
      0000009BH   SFRSYM    DATA     BYTE      TDIV
      000000EFH   SFRSYM    DATA     BYTE      XDP_STA
      00000088H   SFRSYM    DATA     BYTE      TCON
      00000089H   SFRSYM    DATA     BYTE      TMOD
      000000A7H   SFRSYM    DATA     BYTE      SPI0CON5
      000000B2H   SFRSYM    DATA     BYTE      SPI1CON4
      000000B1H   SFRSYM    DATA     BYTE      SPI1CON3
      000000A5H   SFRSYM    DATA     BYTE      SPI0CON3
      000000B4H   SFRSYM    DATA     BYTE      SPI1CON2
      000000EAH   SFRSYM    DATA     BYTE      ANACON
      00000087H   SFRSYM    DATA     BYTE      PCON
      000000A3H   SFRSYM    DATA     BYTE      SPI0CON2
      000000DAH   SFRSYM    DATA     BYTE      DSV_CON
      000000F8H   SFRSYM    DATA     BYTE      AIPL
      00000095H   SFRSYM    DATA     BYTE      I2CSEL
      000000F5H   SFRSYM    DATA     BYTE      SSCG_CON0
      000000F7H   SFRSYM    DATA     BYTE      AIPH
      000000FDH   SFRSYM    DATA     BYTE      I2C_STATE
      00000090H   SFRSYM    DATA     BYTE      I2CCON
      000000A9H   SFRSYM    DATA     BYTE      UARTCON
      000000B8H   SFRSYM    DATA     BYTE      IPL0
      000000B7H   SFRSYM    DATA     BYTE      IPH0
      000000DFH   SFRSYM    DATA     BYTE      IEN1
      000000A8H   SFRSYM    DATA     BYTE      IEN0
      00000093H   SFRSYM    DATA     BYTE      I2CSTOP
      000000B3H   SFRSYM    DATA     BYTE      SPI1CON
      000000A2H   SFRSYM    DATA     BYTE      SPI0CON

      ---         MODULE    ---      ---       LibDrv
      00FEECCBH   PUBLIC    ECODE    ---       DrvCal_MatrixAMov?
      00FEEDECH   PUBLIC    ECODE    ---       DrvXbus_WriteLcd8?
      00FEEDC3H   PUBLIC    ECODE    ---       DrvXbus_ReadLcd16?
      00FEEB93H   PUBLIC    ECODE    ---       DrvCal_MatrixProc?
      00FEEB42H   PUBLIC    ECODE    ---       DrvCal_Cmd?
      00FEEB12H   PUBLIC    ECODE    ---       DrvCal_Init?
      00FEEBFFH   PUBLIC    ECODE    ---       DrvCal_MatrixAmp?
      00FEEA56H   PUBLIC    ECODE    ---       Drv_XsiRead?
      00FEEC5DH   PUBLIC    ECODE    ---       DrvCal_MatrixMul?
      00FEEDBCH   PUBLIC    ECODE    ---       Drv_XbusInit?
      00FEF283H   PUBLIC    ECODE    ---       DrvXsi0_WriteN?
      00FEF2E9H   PUBLIC    ECODE    ---       DrvXsi1_WriteN?
      00FEEAB5H   PUBLIC    ECODE    ---       Drv_XsiWrite?
      00FEEE02H   PUBLIC    ECODE    ---       DrvXbus_WriteInitCode?
      00FEE9A0H   PUBLIC    ECODE    ---       Drv_XsiInit?
      00FEE9C4H   PUBLIC    ECODE    ---       Drv_XsiReadReg?
      00FEF365H   PUBLIC    ECODE    ---       DrvXbus_ReadLcdReg?
      00FEEA0DH   PUBLIC    ECODE    ---       Drv_XsiWriteReg?
      00FEF34FH   PUBLIC    ECODE    ---       DrvXbus_WriteLcdReg?
      000040DAH   PUBLIC    EDATA    ---       pCalRegs
      000040DEH   PUBLIC    EDATA    ---       pXSI0Regs
      000040E2H   PUBLIC    EDATA    ---       pXSI1Regs
      000040E6H   PUBLIC    EDATA    ---       pXSI2Regs
      000040EAH   PUBLIC    EDATA    ---       pLcdWrapRegs
      00000020H.3 PUBLIC    BIT      BIT       g_bCalResumeFlag
      0000000EH   PUBLIC    DATA     BYTE      ?Drv_XsiRead??BYTE
      0000001BH   PUBLIC    DATA     BYTE      ?Drv_XsiWrite??BYTE
      000000B6H   SFRSYM    DATA     BYTE      RTCCON1
      000000BFH   SFRSYM    DATA     BYTE      CGUCON8
      000000CEH   SFRSYM    DATA     BYTE      CGUCON6
      000000CDH   SFRSYM    DATA     BYTE      CGUCON5
      000000CCH   SFRSYM    DATA     BYTE      CGUCON4
      000000CBH.7 SFRSYM    DATA     BIT       DMACKEN
L251 LINKER/LOCATER V4.65.0.0                                                         05/26/2017  20:22:53  PAGE 124


      000000CBH   SFRSYM    DATA     BYTE      CGUCON3
      000000CAH   SFRSYM    DATA     BYTE      CGUCON2
      000000CBH.6 SFRSYM    DATA     BIT       CALCKEN
      000000C8H   SFRSYM    DATA     BYTE      CGUCON1
      000000C9H   SFRSYM    DATA     BYTE      CGUCON0
      000000D9H   SFRSYM    DATA     BYTE      MEMBIST_ERRMAP2
      000000D8H   SFRSYM    DATA     BYTE      MEMBIST_ERRMAP1
      000000CBH.5 SFRSYM    DATA     BIT       AFECKEN
      000000B0H   SFRSYM    DATA     BYTE      ANACON9
      000000A0H   SFRSYM    DATA     BYTE      ANACON8
      000000D5H   SFRSYM    DATA     BYTE      MEMBIST_FINISH2
      000000C7H   SFRSYM    DATA     BYTE      ANACON7
      000000D4H   SFRSYM    DATA     BYTE      MEMBIST_FINISH1
      000000E9H   SFRSYM    DATA     BYTE      SFTRST
      000000EEH   SFRSYM    DATA     BYTE      P1SEL
      000000CBH.3 SFRSYM    DATA     BIT       XBUSCKEN
      000000C3H   SFRSYM    DATA     BYTE      ANACON3
      000000ECH   SFRSYM    DATA     BYTE      P0SEL
      000000C2H   SFRSYM    DATA     BYTE      ANACON2
      000000C1H   SFRSYM    DATA     BYTE      ANACON1
      000000EDH   SFRSYM    DATA     BYTE      P1MOD
      00000098H   SFRSYM    DATA     BYTE      SYSCON
      000000ADH   SFRSYM    DATA     BYTE      P1DIR
      000000EBH   SFRSYM    DATA     BYTE      P0MOD
      000000ACH   SFRSYM    DATA     BYTE      P0DIR
      00000094H   SFRSYM    DATA     BYTE      P1BUF
      00000080H   SFRSYM    DATA     BYTE      P0BUF
      000000E4H   SFRSYM    DATA     BYTE      TESTCON3
      000000E3H   SFRSYM    DATA     BYTE      TESTCON2
      000000E5H   SFRSYM    DATA     BYTE      IWKSTA
      000000CDH.3 SFRSYM    DATA     BIT       LCD_RELOAD_FLASH_WKEN
      0000009AH   SFRSYM    DATA     BYTE      WDTREL
      000000E2H   SFRSYM    DATA     BYTE      TESTCON1
      000000E1H   SFRSYM    DATA     BYTE      TESTCON0
      00000099H   SFRSYM    DATA     BYTE      WDTCON
      000000C0H   SFRSYM    DATA     BYTE      AIF
      000000E8H   SFRSYM    DATA     BYTE      AIE
      000000BDH   SFRSYM    DATA     BYTE      FT_EN_REG
      0000009EH   SFRSYM    DATA     BYTE      RTCCON
      000000FEH   SFRSYM    DATA     BYTE      LED_EN
      000000B9H   SFRSYM    DATA     BYTE      CNTCON
      000000D7H   SFRSYM    DATA     BYTE      MEMBIST_FAIL2
      000000D6H   SFRSYM    DATA     BYTE      MEMBIST_FAIL1
      000000BDH.1 SFRSYM    DATA     BIT       XSI_STA
      000000D3H   SFRSYM    DATA     BYTE      MEMBIST_EN2
      000000EAH.3 SFRSYM    DATA     BIT       XSI_SEL
      000000D2H   SFRSYM    DATA     BYTE      MEMBIST_EN1
      0000009BH   SFRSYM    DATA     BYTE      TDIV
      000000EFH   SFRSYM    DATA     BYTE      XDP_STA
      00000088H   SFRSYM    DATA     BYTE      TCON
      00000089H   SFRSYM    DATA     BYTE      TMOD
      000000A7H   SFRSYM    DATA     BYTE      SPI0CON5
      000000B2H   SFRSYM    DATA     BYTE      SPI1CON4
      000000B1H   SFRSYM    DATA     BYTE      SPI1CON3
      000000A5H   SFRSYM    DATA     BYTE      SPI0CON3
      000000B4H   SFRSYM    DATA     BYTE      SPI1CON2
      000000EAH   SFRSYM    DATA     BYTE      ANACON
      00000087H   SFRSYM    DATA     BYTE      PCON
      000000A3H   SFRSYM    DATA     BYTE      SPI0CON2
      000000DAH   SFRSYM    DATA     BYTE      DSV_CON
      000000F8H   SFRSYM    DATA     BYTE      AIPL
      00000095H   SFRSYM    DATA     BYTE      I2CSEL
      000000F5H   SFRSYM    DATA     BYTE      SSCG_CON0
      000000F7H   SFRSYM    DATA     BYTE      AIPH
      000000FDH   SFRSYM    DATA     BYTE      I2C_STATE
L251 LINKER/LOCATER V4.65.0.0                                                         05/26/2017  20:22:53  PAGE 125


      00000090H   SFRSYM    DATA     BYTE      I2CCON
      000000A9H   SFRSYM    DATA     BYTE      UARTCON
      000000C8H.5 SFRSYM    DATA     BIT       XSICKEN
      000000B8H   SFRSYM    DATA     BYTE      IPL0
      000000B7H   SFRSYM    DATA     BYTE      IPH0
      000000DFH   SFRSYM    DATA     BYTE      IEN1
      000000A8H   SFRSYM    DATA     BYTE      IEN0
      00000093H   SFRSYM    DATA     BYTE      I2CSTOP
      000000B3H   SFRSYM    DATA     BYTE      SPI1CON
      000000A2H   SFRSYM    DATA     BYTE      SPI0CON

      00FEE9A0H   BLOCK     ECODE    ---       LVL=0
      00FEE9A0H   LINE      ECODE    ---       #72
      00FEE9A0H   LINE      ECODE    ---       #74
      00FEE9A3H   LINE      ECODE    ---       #75
      00FEE9A5H   LINE      ECODE    ---       #77
      00FEE9A8H   LINE      ECODE    ---       #78
      00FEE9ACH   LINE      ECODE    ---       #81
      00FEE9B8H   LINE      ECODE    ---       #82
      00FEE9C0H   LINE      ECODE    ---       #84
      00FEE9C3H   LINE      ECODE    ---       #85
      ---         BLOCKEND  ---      ---       LVL=0

      00FEE9C4H   BLOCK     ECODE    ---       LVL=0
      REG=0       REGSYM    ---      ---       pXSIRegs
      WR4         REGSYM    ---      WORD      usAddr
      R11         REGSYM    ---      BYTE      flag
      00FEE9C6H   BLOCK     ECODE    NEAR LAB  LVL=1
      WR6         REGSYM    ---      WORD      tmp
      ---         BLOCKEND  ---      ---       LVL=1
      00FEE9C4H   LINE      ECODE    ---       #94
      00FEE9C6H   LINE      ECODE    ---       #95
      00FEE9C6H   LINE      ECODE    ---       #99
      00FEE9C9H   LINE      ECODE    ---       #100
      00FEE9CDH   LINE      ECODE    ---       #105
      00FEE9DCH   LINE      ECODE    ---       #106
      00FEE9E4H   LINE      ECODE    ---       #108
      00FEE9E9H   LINE      ECODE    ---       #109
      00FEE9F1H   LINE      ECODE    ---       #111
      00FEE9F5H   LINE      ECODE    ---       #113
      00FEE9FDH   LINE      ECODE    ---       #114
      00FEEA05H   LINE      ECODE    ---       #116
      00FEEA08H   LINE      ECODE    ---       #117
      00FEEA0CH   LINE      ECODE    ---       #119
      00FEEA0CH   LINE      ECODE    ---       #120
      ---         BLOCKEND  ---      ---       LVL=0

      00FEEA0DH   BLOCK     ECODE    ---       LVL=0
      REG=0       REGSYM    ---      ---       pXSIRegs
      WR10        REGSYM    ---      WORD      usAddr
      WR4         REGSYM    ---      WORD      usData
      R9          REGSYM    ---      BYTE      flag
      00FEEA0DH   LINE      ECODE    ---       #129
      00FEEA11H   LINE      ECODE    ---       #132
      00FEEA14H   LINE      ECODE    ---       #133
      00FEEA18H   LINE      ECODE    ---       #138
      00FEEA2BH   LINE      ECODE    ---       #139
      00FEEA33H   LINE      ECODE    ---       #141
      00FEEA36H   LINE      ECODE    ---       #142
      00FEEA3EH   LINE      ECODE    ---       #144
      00FEEA46H   LINE      ECODE    ---       #145
      00FEEA4EH   LINE      ECODE    ---       #146
      00FEEA51H   LINE      ECODE    ---       #147
      00FEEA55H   LINE      ECODE    ---       #148
      ---         BLOCKEND  ---      ---       LVL=0
L251 LINKER/LOCATER V4.65.0.0                                                         05/26/2017  20:22:53  PAGE 126



      00FEEA56H   BLOCK     ECODE    ---       LVL=0
      REG=0       REGSYM    ---      ---       pXSIRegs
      WR30        REGSYM    ---      WORD      usAddr
      REG=1       REGSYM    ---      ---       pBuf
      WR10        REGSYM    ---      WORD      len
      R9          REGSYM    ---      BYTE      flag
      00FEEA5FH   BLOCK     ECODE    NEAR LAB  LVL=1
      WR8         REGSYM    ---      WORD      i
      ---         BLOCKEND  ---      ---       LVL=1
      00FEEA56H   LINE      ECODE    ---       #157
      00FEEA5FH   LINE      ECODE    ---       #158
      00FEEA5FH   LINE      ECODE    ---       #162
      00FEEA62H   LINE      ECODE    ---       #163
      00FEEA66H   LINE      ECODE    ---       #168
      00FEEA75H   LINE      ECODE    ---       #169
      00FEEA7DH   LINE      ECODE    ---       #171
      00FEEA81H   LINE      ECODE    ---       #173
      00FEEA86H   LINE      ECODE    ---       #174
      00FEEA8EH   LINE      ECODE    ---       #176
      00FEEA97H   LINE      ECODE    ---       #177
      00FEEA9DH   LINE      ECODE    ---       #179
      00FEEAA5H   LINE      ECODE    ---       #180
      00FEEAADH   LINE      ECODE    ---       #182
      00FEEAB0H   LINE      ECODE    ---       #183
      00FEEAB4H   LINE      ECODE    ---       #184
      ---         BLOCKEND  ---      ---       LVL=0

      00FEEAB5H   BLOCK     ECODE    ---       LVL=0
      REG=0       REGSYM    ---      ---       pXSIRegs
      WR30        REGSYM    ---      WORD      usAddr
      REG=1       REGSYM    ---      ---       pBuf
      WR10        REGSYM    ---      WORD      len
      R9          REGSYM    ---      BYTE      flag
      00FEEABEH   BLOCK     ECODE    NEAR LAB  LVL=1
      WR8         REGSYM    ---      WORD      i
      ---         BLOCKEND  ---      ---       LVL=1
      00FEEAB5H   LINE      ECODE    ---       #193
      00FEEABEH   LINE      ECODE    ---       #194
      00FEEABEH   LINE      ECODE    ---       #197
      00FEEAC1H   LINE      ECODE    ---       #198
      00FEEAC5H   LINE      ECODE    ---       #202
      00FEEAD8H   LINE      ECODE    ---       #203
      00FEEAE0H   LINE      ECODE    ---       #205
      00FEEAE4H   LINE      ECODE    ---       #207
      00FEEAECH   LINE      ECODE    ---       #208
      00FEEAF4H   LINE      ECODE    ---       #209
      00FEEAFAH   LINE      ECODE    ---       #211
      00FEEB02H   LINE      ECODE    ---       #212
      00FEEB0AH   LINE      ECODE    ---       #214
      00FEEB0DH   LINE      ECODE    ---       #215
      00FEEB11H   LINE      ECODE    ---       #216
      ---         BLOCKEND  ---      ---       LVL=0

      00FEEB12H   BLOCK     ECODE    ---       LVL=0
      R11         REGSYM    ---      BYTE      ucTxNum
      R7          REGSYM    ---      BYTE      ucRxNum
      WR4         REGSYM    ---      WORD      usDmask
      00FEEB12H   LINE      ECODE    ---       #232
      00FEEB12H   LINE      ECODE    ---       #234
      00FEEB15H   LINE      ECODE    ---       #236
      00FEEB18H   LINE      ECODE    ---       #237
      00FEEB1AH   LINE      ECODE    ---       #240
      00FEEB26H   LINE      ECODE    ---       #241
      00FEEB36H   LINE      ECODE    ---       #244
L251 LINKER/LOCATER V4.65.0.0                                                         05/26/2017  20:22:53  PAGE 127


      00FEEB3EH   LINE      ECODE    ---       #246
      00FEEB41H   LINE      ECODE    ---       #247
      ---         BLOCKEND  ---      ---       LVL=0

      00FEEB42H   BLOCK     ECODE    ---       LVL=0
      WR6         REGSYM    ---      WORD      cmd
      00FEEB42H   LINE      ECODE    ---       #256
      00FEEB42H   LINE      ECODE    ---       #258
      00FEEB53H   LINE      ECODE    ---       #261
      00FEEB55H   LINE      ECODE    ---       #264
      00FEEB68H   LINE      ECODE    ---       #266
      00FEEB6EH   LINE      ECODE    ---       #267
      00FEEB70H   LINE      ECODE    ---       #269
      00FEEB83H   LINE      ECODE    ---       #271
      00FEEB89H   LINE      ECODE    ---       #272
      00FEEB92H   LINE      ECODE    ---       #273
      ---         BLOCKEND  ---      ---       LVL=0

      00FEEB93H   BLOCK     ECODE    ---       LVL=0
      REG=0       REGSYM    ---      ---       pMcMP
      00FEEB93H   LINE      ECODE    ---       #284
      00FEEB93H   LINE      ECODE    ---       #286
      00FEEB96H   LINE      ECODE    ---       #288
      00FEEB98H   LINE      ECODE    ---       #290
      00FEEBA4H   LINE      ECODE    ---       #291
      00FEEBB0H   LINE      ECODE    ---       #292
      00FEEBBCH   LINE      ECODE    ---       #293
      00FEEBD3H   LINE      ECODE    ---       #295
      00FEEBE1H   LINE      ECODE    ---       #298
      00FEEBF3H   LINE      ECODE    ---       #300
      00FEEBFBH   LINE      ECODE    ---       #302
      00FEEBFEH   LINE      ECODE    ---       #303
      ---         BLOCKEND  ---      ---       LVL=0

      00FEEBFFH   BLOCK     ECODE    ---       LVL=0
      REG=0       REGSYM    ---      ---       pMcMP
      WR6         REGSYM    ---      INT       mul
      00FEEBFFH   LINE      ECODE    ---       #314
      00FEEBFFH   LINE      ECODE    ---       #316
      00FEEC02H   LINE      ECODE    ---       #318
      00FEEC0EH   LINE      ECODE    ---       #319
      00FEEC1AH   LINE      ECODE    ---       #320
      00FEEC32H   LINE      ECODE    ---       #322
      00FEEC40H   LINE      ECODE    ---       #323
      00FEEC48H   LINE      ECODE    ---       #326
      00FEEC51H   LINE      ECODE    ---       #327
      00FEEC59H   LINE      ECODE    ---       #329
      00FEEC5CH   LINE      ECODE    ---       #330
      ---         BLOCKEND  ---      ---       LVL=0

      00FEEC5DH   BLOCK     ECODE    ---       LVL=0
      REG=0       REGSYM    ---      ---       pMcMP
      R11         REGSYM    ---      BYTE      K_Num
      00FEEC5DH   LINE      ECODE    ---       #343
      00FEEC5DH   LINE      ECODE    ---       #346
      00FEEC60H   LINE      ECODE    ---       #347
      00FEEC63H   LINE      ECODE    ---       #350
      00FEEC6FH   LINE      ECODE    ---       #351
      00FEEC7BH   LINE      ECODE    ---       #352
      00FEEC87H   LINE      ECODE    ---       #353
      00FEEC9EH   LINE      ECODE    ---       #354
      00FEECACH   LINE      ECODE    ---       #355
      00FEECB6H   LINE      ECODE    ---       #357
      00FEECBFH   LINE      ECODE    ---       #358
      00FEECC7H   LINE      ECODE    ---       #360
L251 LINKER/LOCATER V4.65.0.0                                                         05/26/2017  20:22:53  PAGE 128


      00FEECCAH   LINE      ECODE    ---       #361
      ---         BLOCKEND  ---      ---       LVL=0

      00FEECCBH   BLOCK     ECODE    ---       LVL=0
      REG=0       REGSYM    ---      ---       pMcMP
      00FEECCBH   LINE      ECODE    ---       #374
      00FEECCBH   LINE      ECODE    ---       #376
      00FEECCEH   LINE      ECODE    ---       #378
      00FEECDAH   LINE      ECODE    ---       #379
      00FEECF1H   LINE      ECODE    ---       #380
      00FEED07H   LINE      ECODE    ---       #381
      00FEED13H   LINE      ECODE    ---       #382
      00FEED1FH   LINE      ECODE    ---       #383
      00FEED2FH   LINE      ECODE    ---       #384
      00FEED3AH   LINE      ECODE    ---       #385
      00FEED4BH   LINE      ECODE    ---       #386
      00FEED5CH   LINE      ECODE    ---       #388
      00FEED5EH   LINE      ECODE    ---       #390
      00FEED6AH   LINE      ECODE    ---       #392
      00FEED7EH   LINE      ECODE    ---       #394
      00FEED88H   LINE      ECODE    ---       #395
      00FEED8AH   LINE      ECODE    ---       #396
      00FEED9EH   LINE      ECODE    ---       #398
      00FEEDA8H   LINE      ECODE    ---       #399
      00FEEDB8H   LINE      ECODE    ---       #401
      00FEEDBBH   LINE      ECODE    ---       #402
      ---         BLOCKEND  ---      ---       LVL=0

      00FEEDBCH   BLOCK     ECODE    ---       LVL=0
      00FEEDBCH   LINE      ECODE    ---       #411
      00FEEDBCH   LINE      ECODE    ---       #413
      00FEEDBFH   LINE      ECODE    ---       #414
      00FEEDC2H   LINE      ECODE    ---       #416
      ---         BLOCKEND  ---      ---       LVL=0

      00FEEDC3H   BLOCK     ECODE    ---       LVL=0
      WR6         REGSYM    ---      WORD      usaddr
      00000021H   SYMBOL    DATA     BYTE      Dummy
      00FEEDC3H   LINE      ECODE    ---       #427
      00FEEDC3H   LINE      ECODE    ---       #428
      00FEEDC3H   LINE      ECODE    ---       #430
      00FEEDD1H   LINE      ECODE    ---       #431
      00FEEDDAH   LINE      ECODE    ---       #432
      00FEEDE8H   LINE      ECODE    ---       #434
      00FEEDEBH   LINE      ECODE    ---       #436
      ---         BLOCKEND  ---      ---       LVL=0

      00FEEDECH   BLOCK     ECODE    ---       LVL=0
      WR6         REGSYM    ---      WORD      usaddr
      R11         REGSYM    ---      BYTE      usdata
      00FEEDECH   LINE      ECODE    ---       #447
      00FEEDECH   LINE      ECODE    ---       #449
      00FEEDFAH   LINE      ECODE    ---       #450
      00FEEE01H   LINE      ECODE    ---       #451
      ---         BLOCKEND  ---      ---       LVL=0

      00FEEE02H   BLOCK     ECODE    ---       LVL=0
      WR6         REGSYM    ---      WORD      ucData
      00FEEE02H   LINE      ECODE    ---       #462
      00FEEE02H   LINE      ECODE    ---       #463
      00FEEE02H   LINE      ECODE    ---       #465
      00FEEE0AH   LINE      ECODE    ---       #466
      00FEEE19H   LINE      ECODE    ---       #468
      00FEEE21H   LINE      ECODE    ---       #469
      00FEEE2AH   LINE      ECODE    ---       #471
L251 LINKER/LOCATER V4.65.0.0                                                         05/26/2017  20:22:53  PAGE 129


      00FEEE32H   LINE      ECODE    ---       #473
      00FEEE3AH   LINE      ECODE    ---       #474
      00FEEE49H   LINE      ECODE    ---       #477
      00FEEE53H   LINE      ECODE    ---       #478
      00FEEE5DH   LINE      ECODE    ---       #479
      00FEEE67H   LINE      ECODE    ---       #481
      00FEEE71H   LINE      ECODE    ---       #482
      00FEEE7BH   LINE      ECODE    ---       #483
      00FEEE85H   LINE      ECODE    ---       #489
      00FEEE8EH   LINE      ECODE    ---       #490
      00FEEE98H   LINE      ECODE    ---       #491
      00FEEEA1H   LINE      ECODE    ---       #492
      00FEEEABH   LINE      ECODE    ---       #493
      00FEEEB3H   LINE      ECODE    ---       #494
      00FEEEBDH   LINE      ECODE    ---       #495
      00FEEEC7H   LINE      ECODE    ---       #496
      00FEEECFH   LINE      ECODE    ---       #497
      00FEEED9H   LINE      ECODE    ---       #498
      00FEEEE3H   LINE      ECODE    ---       #499
      00FEEEEDH   LINE      ECODE    ---       #500
      00FEEEF7H   LINE      ECODE    ---       #501
      00FEEF00H   LINE      ECODE    ---       #502
      00FEEF08H   LINE      ECODE    ---       #503
      00FEEF10H   LINE      ECODE    ---       #504
      00FEEF1AH   LINE      ECODE    ---       #505
      00FEEF23H   LINE      ECODE    ---       #506
      00FEEF2DH   LINE      ECODE    ---       #507
      00FEEF36H   LINE      ECODE    ---       #508
      00FEEF40H   LINE      ECODE    ---       #509
      00FEEF4AH   LINE      ECODE    ---       #510
      00FEEF53H   LINE      ECODE    ---       #511
      00FEEF5DH   LINE      ECODE    ---       #512
      00FEEF67H   LINE      ECODE    ---       #516
      00FEEF71H   LINE      ECODE    ---       #517
      00FEEF7BH   LINE      ECODE    ---       #518
      00FEEF85H   LINE      ECODE    ---       #519
      00FEEF8EH   LINE      ECODE    ---       #520
      00FEEF98H   LINE      ECODE    ---       #521
      00FEEFA1H   LINE      ECODE    ---       #522
      00FEEFABH   LINE      ECODE    ---       #523
      00FEEFB4H   LINE      ECODE    ---       #524
      00FEEFBEH   LINE      ECODE    ---       #525
      00FEEFC7H   LINE      ECODE    ---       #526
      00FEEFD1H   LINE      ECODE    ---       #527
      00FEEFDBH   LINE      ECODE    ---       #528
      00FEEFE5H   LINE      ECODE    ---       #529
      00FEEFEFH   LINE      ECODE    ---       #530
      00FEEFF9H   LINE      ECODE    ---       #531
      00FEF003H   LINE      ECODE    ---       #537
      00FEF00BH   LINE      ECODE    ---       #538
      00FEF013H   LINE      ECODE    ---       #539
      00FEF01DH   LINE      ECODE    ---       #540
      00FEF027H   LINE      ECODE    ---       #541
      00FEF031H   LINE      ECODE    ---       #542
      00FEF03BH   LINE      ECODE    ---       #543
      00FEF045H   LINE      ECODE    ---       #544
      00FEF04FH   LINE      ECODE    ---       #545
      00FEF059H   LINE      ECODE    ---       #546
      00FEF063H   LINE      ECODE    ---       #547
      00FEF06DH   LINE      ECODE    ---       #548
      00FEF076H   LINE      ECODE    ---       #549
      00FEF07EH   LINE      ECODE    ---       #550
      00FEF086H   LINE      ECODE    ---       #551
      00FEF08EH   LINE      ECODE    ---       #552
      00FEF098H   LINE      ECODE    ---       #553
L251 LINKER/LOCATER V4.65.0.0                                                         05/26/2017  20:22:53  PAGE 130


      00FEF0A2H   LINE      ECODE    ---       #554
      00FEF0ACH   LINE      ECODE    ---       #555
      00FEF0B5H   LINE      ECODE    ---       #556
      00FEF0BFH   LINE      ECODE    ---       #557
      00FEF0C8H   LINE      ECODE    ---       #558
      00FEF0D0H   LINE      ECODE    ---       #559
      00FEF0DAH   LINE      ECODE    ---       #560
      00FEF0E3H   LINE      ECODE    ---       #561
      00FEF0EDH   LINE      ECODE    ---       #563
      00FEF0F7H   LINE      ECODE    ---       #567
      00FEF101H   LINE      ECODE    ---       #568
      00FEF10BH   LINE      ECODE    ---       #569
      00FEF114H   LINE      ECODE    ---       #570
      00FEF11EH   LINE      ECODE    ---       #571
      00FEF126H   LINE      ECODE    ---       #572
      00FEF12FH   LINE      ECODE    ---       #573
      00FEF139H   LINE      ECODE    ---       #574
      00FEF142H   LINE      ECODE    ---       #575
      00FEF14CH   LINE      ECODE    ---       #576
      00FEF155H   LINE      ECODE    ---       #577
      00FEF15FH   LINE      ECODE    ---       #578
      00FEF168H   LINE      ECODE    ---       #579
      00FEF172H   LINE      ECODE    ---       #580
      00FEF17BH   LINE      ECODE    ---       #581
      00FEF185H   LINE      ECODE    ---       #582
      00FEF18EH   LINE      ECODE    ---       #583
      00FEF198H   LINE      ECODE    ---       #584
      00FEF1A2H   LINE      ECODE    ---       #585
      00FEF1ABH   LINE      ECODE    ---       #586
      00FEF1B5H   LINE      ECODE    ---       #587
      00FEF1BEH   LINE      ECODE    ---       #588
      00FEF1C8H   LINE      ECODE    ---       #589
      00FEF1D1H   LINE      ECODE    ---       #590
      00FEF1DBH   LINE      ECODE    ---       #591
      00FEF1E4H   LINE      ECODE    ---       #592
      00FEF1EEH   LINE      ECODE    ---       #593
      00FEF1F7H   LINE      ECODE    ---       #594
      00FEF201H   LINE      ECODE    ---       #595
      00FEF20BH   LINE      ECODE    ---       #596
      00FEF215H   LINE      ECODE    ---       #597
      00FEF21FH   LINE      ECODE    ---       #598
      00FEF229H   LINE      ECODE    ---       #599
      00FEF233H   LINE      ECODE    ---       #600
      00FEF23DH   LINE      ECODE    ---       #601
      00FEF247H   LINE      ECODE    ---       #602
      00FEF251H   LINE      ECODE    ---       #603
      00FEF25BH   LINE      ECODE    ---       #604
      00FEF265H   LINE      ECODE    ---       #605
      00FEF26FH   LINE      ECODE    ---       #606
      00FEF279H   LINE      ECODE    ---       #611
      ---         BLOCKEND  ---      ---       LVL=0

      00FEF283H   BLOCK     ECODE    ---       LVL=0
      WR6         REGSYM    ---      WORD      usAddr
      REG=0       REGSYM    ---      ---       pBuf
      WR4         REGSYM    ---      WORD      usLen
      WR6         REGSYM    ---      WORD      i
      00FEF283H   LINE      ECODE    ---       #619
      00FEF283H   LINE      ECODE    ---       #620
      00FEF283H   LINE      ECODE    ---       #623
      00FEF286H   LINE      ECODE    ---       #624
      00FEF28AH   LINE      ECODE    ---       #628
      00FEF295H   LINE      ECODE    ---       #629
      00FEF2A1H   LINE      ECODE    ---       #631
      00FEF2A5H   LINE      ECODE    ---       #633
L251 LINKER/LOCATER V4.65.0.0                                                         05/26/2017  20:22:53  PAGE 131


      00FEF2B7H   LINE      ECODE    ---       #634
      00FEF2C3H   LINE      ECODE    ---       #635
      00FEF2C9H   LINE      ECODE    ---       #637
      00FEF2D5H   LINE      ECODE    ---       #638
      00FEF2E1H   LINE      ECODE    ---       #640
      00FEF2E4H   LINE      ECODE    ---       #641
      00FEF2E8H   LINE      ECODE    ---       #642
      ---         BLOCKEND  ---      ---       LVL=0

      00FEF2E9H   BLOCK     ECODE    ---       LVL=0
      WR6         REGSYM    ---      WORD      usAddr
      REG=0       REGSYM    ---      ---       pBuf
      WR4         REGSYM    ---      WORD      usLen
      WR6         REGSYM    ---      WORD      i
      00FEF2E9H   LINE      ECODE    ---       #644
      00FEF2E9H   LINE      ECODE    ---       #645
      00FEF2E9H   LINE      ECODE    ---       #648
      00FEF2ECH   LINE      ECODE    ---       #649
      00FEF2F0H   LINE      ECODE    ---       #653
      00FEF2FBH   LINE      ECODE    ---       #654
      00FEF307H   LINE      ECODE    ---       #656
      00FEF30BH   LINE      ECODE    ---       #658
      00FEF31DH   LINE      ECODE    ---       #659
      00FEF329H   LINE      ECODE    ---       #660
      00FEF32FH   LINE      ECODE    ---       #662
      00FEF33BH   LINE      ECODE    ---       #663
      00FEF347H   LINE      ECODE    ---       #665
      00FEF34AH   LINE      ECODE    ---       #666
      00FEF34EH   LINE      ECODE    ---       #667
      ---         BLOCKEND  ---      ---       LVL=0

      00FEF34FH   BLOCK     ECODE    ---       LVL=0
      WR6         REGSYM    ---      WORD      usAddr
      R11         REGSYM    ---      BYTE      ucData
      00FEF34FH   LINE      ECODE    ---       #670
      00FEF34FH   LINE      ECODE    ---       #672
      00FEF35DH   LINE      ECODE    ---       #673
      00FEF364H   LINE      ECODE    ---       #675
      ---         BLOCKEND  ---      ---       LVL=0

      00FEF365H   BLOCK     ECODE    ---       LVL=0
      WR2         REGSYM    ---      WORD      usAddr
      00FEF367H   BLOCK     ECODE    NEAR LAB  LVL=1
      0000001FH   SYMBOL    DATA     BYTE      Dummy
      ---         BLOCKEND  ---      ---       LVL=1
      00FEF365H   LINE      ECODE    ---       #684
      00FEF367H   LINE      ECODE    ---       #685
      00FEF367H   LINE      ECODE    ---       #687
      00FEF375H   LINE      ECODE    ---       #688
      00FEF380H   LINE      ECODE    ---       #689
      00FEF38EH   LINE      ECODE    ---       #690
      00FEF394H   LINE      ECODE    ---       #692
      00FEF39AH   LINE      ECODE    ---       #693
      00FEF39AH   LINE      ECODE    ---       #696
      00FEF39DH   LINE      ECODE    ---       #697
      00FEF39DH   LINE      ECODE    ---       #698
      ---         BLOCKEND  ---      ---       LVL=0

      ---         MODULE    ---      ---       ?C?INITEDATA
      00FF0066H   PUBLIC    CODE     ---       ?C?INITEDATA

      ---         MODULE    ---      ---       PRINTF?
      00000078H   PUBLIC    DATA     ---       ?PRINTF??BYTE
      00FEF738H   PUBLIC    ECODE    FAR LAB   PRINTF?

L251 LINKER/LOCATER V4.65.0.0                                                         05/26/2017  20:22:53  PAGE 132


      ---         MODULE    ---      ---       ISALPHA?
      00FEFDE4H   PUBLIC    ECODE    ---       isalpha??

      ---         MODULE    ---      ---       ISUPPER?
      00FEFE1DH   PUBLIC    ECODE    ---       isupper??

      ---         MODULE    ---      ---       ATOI?
      00FEE800H   PUBLIC    ECODE    ---       atoi??

      ---         MODULE    ---      ---       STRLEN?
      00FEFE0DH   PUBLIC    ECODE    ---       strlen??

      ---         MODULE    ---      ---       MEMSET?
      00FEE8EBH   PUBLIC    ECODE    ---       memset??

      ---         MODULE    ---      ---       ?C?INITEDATA_END
      00FF8B61H   PUBLIC    HCONST   WORD      ?C?INITEDATA_END

      ---         MODULE    ---      ---       ?C?PRNFMT?
      00FEF792H   PUBLIC    ECODE    ---       ?C?PRNFMT?

      ---         MODULE    ---      ---       ISDIGIT?
      00FEFE2BH   PUBLIC    ECODE    ---       isdigit??

      ---         MODULE    ---      ---       ISSPACE?
      00FEFDFCH   PUBLIC    ECODE    ---       isspace??



FUNCTION REGISTER MASKS


FUNCTION . . . . . . . . . . . . REG MASK
==========================================

Afe_120Hz_H_Clb? . . . . . . . . @0x3fff0fff
Afe_120Hz_Run? . . . . . . . . . @0x3fff0fff
Afe_120Hz_Run_Monitor? . . . . . @0x3fff0fff
Afe_120Hz_Run_RTC_Monitor? . . . @0x3fff0fff
Afe_60Hz_120Hz_Changed?. . . . . @0x18000fff
Afe_60Hz_H_Clb?. . . . . . . . . @0x3fff0fff
Afe_60Hz_Run?. . . . . . . . . . @0x3fff0fff
Afe_ALL_WakeUpStandby? . . . . . @0x3fff0fff
Afe_Change_Tab3? . . . . . . . . @0x18ff0fff
Afe_Clk_Init?. . . . . . . . . . @0x08000000
Afe_Config_Init? . . . . . . . . @0x3fff0fff
Afe_Config_Tab0? . . . . . . . . @0x18c00fff
Afe_Config_Tab1? . . . . . . . . @0x18fc0fff
Afe_Config_Tab2? . . . . . . . . @0x18c00fff
Afe_Config_Tab3? . . . . . . . . @0x18c00fff
Afe_Free_Run?. . . . . . . . . . @0x3fff0fff
Afe_Free_Run_H_CB? . . . . . . . @0x3fff0fff
Afe_Free_Run_Monitor?. . . . . . @0x3fff0fff
Afe_Free_Run_RTC_Monitor?. . . . @0x3fff0fff
Afe_Init?. . . . . . . . . . . . @0x3fff0fff
Afe_Lcd_WakeUp_StandBy?. . . . . @0x3fff0fff
Afe_LcdDSTBWakeUp_Test?. . . . . @0x3fff0fff
Afe_LcdRun_Changed?. . . . . . . @0x3fff0fff
Afe_LcdRunWakeUp_Test? . . . . . @0x3fff0fff
Afe_LVDESDWakeUp_Stop? . . . . . @0x3fff0fff
Afe_Order_Init?. . . . . . . . . @0x18c00fff
Afe_SetTabCBChEN?. . . . . . . . @0x18800fff
Afe_Tab_Config?. . . . . . . . . @0x18fc0fff
Afe_Table_Init?. . . . . . . . . @0x18c00fff
Afe_TestOneChannelAdc? . . . . . @0x3fff0fff
L251 LINKER/LOCATER V4.65.0.0                                                         05/26/2017  20:22:53  PAGE 133


AfeModeSelInit?. . . . . . . . . @0x3fff0fff
AppAnswerSwitch2STDI2C?. . . . . @0x18000cf0
AppGetAsmState?. . . . . . . . . @0x3fff0fff
AppHandleSwitch2STDI2C?. . . . . @0x180000f0
AppHostCommInit? . . . . . . . . @0x08000800
AppHostRegRead?. . . . . . . . . @0x18000cff
AppHostRegWrite? . . . . . . . . @0x1e000cff
AppHostUpdateHeadState?. . . . . @0x18000800
AppPanelParamUpdate? . . . . . . @0x080000c0
AppReadRegMapDataTest? . . . . . @0x18000cff
AppShowRawdata?. . . . . . . . . @0x3fff0fff
AppSysInit?. . . . . . . . . . . @0x18c008ff
AppWriteReg0x01? . . . . . . . . @0x180008c0
AppWriteRegMapDataTest?. . . . . @0x1e000cff
Asm_Config_Init? . . . . . . . . @0x3fff0fff
atoi?? . . . . . . . . . . . . . @0x3fff0fff
DebugReadAFEOneReg?. . . . . . . @0x3fff0fff
DebugReadAFEReg? . . . . . . . . @0x3fff0fff
DebugReadAsmReg? . . . . . . . . @0x3fff0fff
DelayMs? . . . . . . . . . . . . @0x18000f80
DelayUs? . . . . . . . . . . . . @0x18000480
Drv_Rtc_Init?. . . . . . . . . . @0x18000000
Drv_XbusInit?. . . . . . . . . . @0x08000000
Drv_XsiInit? . . . . . . . . . . @0x080000cf
Drv_XsiRead? . . . . . . . . . . @0x18800ff0
Drv_XsiReadReg?. . . . . . . . . @0x180000f0
Drv_XsiWrite?. . . . . . . . . . @0x18800ff0
Drv_XsiWriteReg? . . . . . . . . @0x18000ec0
DrvAfeClkGateEn? . . . . . . . . @0x180000cf
DrvAfeEn4mux?. . . . . . . . . . @0x3fff0fff
DrvAfeEnCOF? . . . . . . . . . . @0x3fff0fff
DrvAfeEnRawdataNum?. . . . . . . @0x3fff0fff
DrvAFEGroupSelReg1?. . . . . . . @0x18c00eff
DrvAFEGroupSelReg2?. . . . . . . @0x18c00eff
DrvAfeInitBase?. . . . . . . . . @0x3fff0fff
DrvAfeScanMode?. . . . . . . . . @0x18c00eff
DrvAfeSelACCRam? . . . . . . . . @0x18c00eff
DrvAfeSelTaborRepRam?. . . . . . @0x18c00eff
DrvAfeSetBaseTrack?. . . . . . . @0x18c00eff
DrvAfeSetHCBTarget?. . . . . . . @0x18c00eff
DrvAfeSetHCBThld?. . . . . . . . @0x18c00eff
DrvAfeSetOneChannelTestMode? . . @0x18c00fff
DrvAfeSetTabBaseTrack? . . . . . @0x18c00fff
DrvAfeSofeReset? . . . . . . . . @0x3fff0fff
DrvAsmAfeClkGateEn?. . . . . . . @0x180000cf
DrvAsmAramAvail? . . . . . . . . @0x180000cf
DrvAsmCloseTable?. . . . . . . . @0x180000cf
DrvAsmClrInt?. . . . . . . . . . @0x000000cf
DrvAsmGetSta1? . . . . . . . . . @0x000000f0
DrvAsmGetSta?. . . . . . . . . . @0x000000f0
DrvAsmInterClear0? . . . . . . . @0x180008ff
DrvAsmInterDisable0? . . . . . . @0x180008ff
DrvAsmInterDisable1? . . . . . . @0x180008ff
DrvAsmInterDisableAll? . . . . . @0x080000cf
DrvAsmInterEnable0?. . . . . . . @0x180008ff
DrvAsmInterEnable1?. . . . . . . @0x180008ff
DrvAsmInterEnableAll?. . . . . . @0x000000cf
DrvAsmMonitoModeInit?. . . . . . @0x3fff0fff
DrvAsmReq120hz_Small_LcdBusy?. . @0x180000cf
DrvAsmReq60hz_Big_LcdBusy? . . . @0x180000cf
DrvAsmRtcMonitoModeInit? . . . . @0x3fff0fff
DrvAsmScanStart? . . . . . . . . @0x180000cf
DrvAsmSeStbtMask?. . . . . . . . @0x0000000f
DrvAsmSetCBAdjustMode? . . . . . @0x18000ccf
DrvAsmSetHwMonPwrEn? . . . . . . @0x3fff0fff
L251 LINKER/LOCATER V4.65.0.0                                                         05/26/2017  20:22:53  PAGE 134


DrvAsmSetIDReset?. . . . . . . . @0x180000cf
DrvAsmSetMonitorMode?. . . . . . @0x18000ccf
DrvAsmSetPhase?. . . . . . . . . @0x180000cf
DrvAsmSetPwrOff? . . . . . . . . @0x180000ff
DrvAsmSetPwrOn?. . . . . . . . . @0x180000ff
DrvAsmSetRtcMonitorMode? . . . . @0x18000cff
DrvAsmSetRtcMonitorTimer?. . . . @0x3fff0fff
DrvAsmSetSTBTickMask?. . . . . . @0x0000000f
DrvAsmSkipFramHaveLcdBusy? . . . @0x180000cf
DrvAsmSkipFramNoLcdBusy? . . . . @0x180000cf
DrvAsmWakeDisable0?. . . . . . . @0x180008ff
DrvAsmWakeDisable1?. . . . . . . @0x180008ff
DrvAsmWakeEnable0? . . . . . . . @0x180008ff
DrvAsmWakeEnable1? . . . . . . . @0x180008ff
DrvCal_Cmd?. . . . . . . . . . . @0x180000ff
DrvCal_Init? . . . . . . . . . . @0x18c008cf
DrvCal_MatrixAMov? . . . . . . . @0x3fff0fff
DrvCal_MatrixAmp?. . . . . . . . @0x18000fff
DrvCal_MatrixMul?. . . . . . . . @0x18c004ff
DrvCal_MatrixProc? . . . . . . . @0x18000fff
DrvGetAdcData? . . . . . . . . . @0x3fff0fff
DrvGetAramCb?. . . . . . . . . . @0x3fff0fff
DrvGetAramData?. . . . . . . . . @0x18000ffc
DrvGetAramRawData? . . . . . . . @0x3fff0fff
DrvGetBase?. . . . . . . . . . . @0x3fff0fff
DrvGetDiffdata?. . . . . . . . . @0x3fff0fff
DrvGetDiffNoseMax? . . . . . . . @0x3fff0fff
DrvGetRawdata? . . . . . . . . . @0x3fff0fff
DrvGetRptRamOrder? . . . . . . . @0x3fff0fff
DrvGetRptRamRawBase? . . . . . . @0x3fff0fff
DrvGetTabRam?. . . . . . . . . . @0x3fff0fff
DrvGetTabRamCb?. . . . . . . . . @0x3fff0fff
DrvHostCommInit? . . . . . . . . @0x08000000
DrvInitAram? . . . . . . . . . . @0x18000cff
DrvInitRptRam? . . . . . . . . . @0x18c00fff
DrvIntPriority?. . . . . . . . . @0x08000000
DrvLcdRunInit? . . . . . . . . . @0x40000000
DrvLoadTabCB?. . . . . . . . . . @0x18000fff
DrvLoadTabMultiple?. . . . . . . @0x18c00fff
DrvLoadTabSingle?. . . . . . . . @0x180000ff
DrvMcapModeInit? . . . . . . . . @0x3fff0fff
DrvMcapReadSta?. . . . . . . . . @0x3fff0fff
DrvMcapSetAnaTiming? . . . . . . @0x3fff0fff
DrvMcapSetDiffMax? . . . . . . . @0x18f00eff
DrvMcapSetFir? . . . . . . . . . @0x3fff0fff
DrvMcapSetMode?. . . . . . . . . @0x18800eff
DrvMcapSetOverflow?. . . . . . . @0x3fff0fff
DrvMcapSetPara?. . . . . . . . . @0x18fc0fff
DrvMcapSetRawGain? . . . . . . . @0x18f00eff
DrvMcapSetSampleInit?. . . . . . @0x18c00eff
DrvMcapSetSampleRate?. . . . . . @0x3fff0fff
DrvMcapSetTestMode?. . . . . . . @0x18800fff
DrvPowerInit?. . . . . . . . . . @0x40000000
DrvScanCtrl_IRQHandler?. . . . . @0x3fff0fff
DrvSetCbDir? . . . . . . . . . . @0x18c00eff
DrvSetTabMonThr? . . . . . . . . @0x18f00fff
DrvSwReset?. . . . . . . . . . . @0x40000000
DrvSysClkInit? . . . . . . . . . @0x18000000
DrvSysPortInit?. . . . . . . . . @0x40000000
DrvSysPwrSel?. . . . . . . . . . @0x18000000
DrvUartInit? . . . . . . . . . . @0x08000000
DrvXbus_ReadLcd16? . . . . . . . @0x180008ff
DrvXbus_ReadLcdReg?. . . . . . . @0x18000cff
DrvXbus_WriteInitCode? . . . . . @0x3fff0fff
DrvXbus_WriteLcd8? . . . . . . . @0x1800003f
L251 LINKER/LOCATER V4.65.0.0                                                         05/26/2017  20:22:53  PAGE 135


DrvXbus_WriteLcdReg? . . . . . . @0x1800003f
DrvXsi0_WriteN?. . . . . . . . . @0x18800fff
DrvXsi1_WriteN?. . . . . . . . . @0x18800fff
Exint0_IRQHandler? . . . . . . . @0x3fff0fff
Exint1_IRQHandler? . . . . . . . @0x3fff0fff
FlowFactory? . . . . . . . . . . @0x3fff0fff
FlowWork?. . . . . . . . . . . . @0x40000000
getbyte? . . . . . . . . . . . . @0x18000cf0
isalpha??. . . . . . . . . . . . @0x18000000
isdigit??. . . . . . . . . . . . @0x18000000
ISR_I2C? . . . . . . . . . . . . @0x1e000cff
ISR_I2C_Stop?. . . . . . . . . . @0x08000000
ISR_LcdRun_IRQHandler? . . . . . @0x3fff0fff
ISR_Uart?. . . . . . . . . . . . @0x18000cf0
isspace??. . . . . . . . . . . . @0x18000000
isupper??. . . . . . . . . . . . @0x18000000
MAIN?. . . . . . . . . . . . . . @0x3fff0fff
Mcap_120Hz_Run?. . . . . . . . . @0x3fff0fff
Mcap_60Hz_Run? . . . . . . . . . @0x3fff0fff
Mcap_Free_Run? . . . . . . . . . @0x3fff0fff
memset?? . . . . . . . . . . . . @0x180003fc
putchar? . . . . . . . . . . . . @0x180008f0
strlen?? . . . . . . . . . . . . @0x18000fcf
Test_Afe_AccRam? . . . . . . . . @0x3fff0fff
Test_Afe_BaseRam?. . . . . . . . @0x3fff0fff
Test_Afe_TabRam? . . . . . . . . @0x3fff0fff
Test_AfeReg? . . . . . . . . . . @0x3fff0fff
Test_AfeRegWrite?. . . . . . . . @0x3fff0fff
Test_Ca_P1?. . . . . . . . . . . @0x3fff0fff
Test_Ca_P4?. . . . . . . . . . . @0x3fff0fff
Test_Ca_Rst? . . . . . . . . . . @0x3fff0fff
Test_CLk32K? . . . . . . . . . . @0x3fff0fff
Test_CLk48M? . . . . . . . . . . @0x3fff0fff
Test_Debug0? . . . . . . . . . . @0x3fff0fff
Test_Debug1? . . . . . . . . . . @0x3fff0fff
Test_Debug2? . . . . . . . . . . @0x3fff0fff
Test_Debug3? . . . . . . . . . . @0x3fff0fff
Test_DebugOut? . . . . . . . . . @0x3fff0fff
Test_Lcd_Busy? . . . . . . . . . @0x3fff0fff
Test_Lcd_Run?. . . . . . . . . . @0x3fff0fff
Test_MCAP_ADC_DATA_VLD?. . . . . @0x3fff0fff
Test_MCAP_DONE?. . . . . . . . . @0x3fff0fff
Test_Tp_Busy?. . . . . . . . . . @0x3fff0fff
Test_Tp_Scan?. . . . . . . . . . @0x3fff0fff
Test_Tx_Clk? . . . . . . . . . . @0x3fff0fff
TestFun1?. . . . . . . . . . . . @0x3fff0fff
TestFun2?. . . . . . . . . . . . @0x3fff0fff
TestUart?. . . . . . . . . . . . @0x3fff0fff
TestXbus?. . . . . . . . . . . . @0x3fff0fff
uart0_getc?. . . . . . . . . . . @0x08000800
uart0_putc?. . . . . . . . . . . @0x08000000
uart0_puts?. . . . . . . . . . . @0x18000cf0
Uart_GetIntNum?. . . . . . . . . @0x3fff0fff
Uart_GetString?. . . . . . . . . @0x18f00cf0



*** WARNING L16: UNCALLED FUNCTION, IGNORED FOR OVERLAY PROCESS
    NAME:    DrvGetDiffNoseMax?/FlowFactory

*** WARNING L16: UNCALLED FUNCTION, IGNORED FOR OVERLAY PROCESS
    NAME:    DrvGetDiffdata?/FlowFactory

*** WARNING L16: UNCALLED FUNCTION, IGNORED FOR OVERLAY PROCESS
    NAME:    Afe_Free_Run?/FlowFactory
L251 LINKER/LOCATER V4.65.0.0                                                         05/26/2017  20:22:53  PAGE 136



*** WARNING L16: UNCALLED FUNCTION, IGNORED FOR OVERLAY PROCESS
    NAME:    Afe_Free_Run_Monitor?/FlowFactory

*** WARNING L16: UNCALLED FUNCTION, IGNORED FOR OVERLAY PROCESS
    NAME:    Afe_Free_Run_RTC_Monitor?/FlowFactory

*** WARNING L16: UNCALLED FUNCTION, IGNORED FOR OVERLAY PROCESS
    NAME:    Afe_Free_Run_H_CB?/FlowFactory

*** WARNING L16: UNCALLED FUNCTION, IGNORED FOR OVERLAY PROCESS
    NAME:    Afe_60Hz_Run?/FlowFactory

*** WARNING L16: UNCALLED FUNCTION, IGNORED FOR OVERLAY PROCESS
    NAME:    Afe_60Hz_H_Clb?/FlowFactory

*** WARNING L16: UNCALLED FUNCTION, IGNORED FOR OVERLAY PROCESS
    NAME:    Afe_120Hz_Run?/FlowFactory

*** WARNING L16: UNCALLED FUNCTION, IGNORED FOR OVERLAY PROCESS
    NAME:    Afe_120Hz_Run_Monitor?/FlowFactory

*** WARNING L16: UNCALLED FUNCTION, IGNORED FOR OVERLAY PROCESS
    NAME:    Afe_120Hz_H_Clb?/FlowFactory

*** WARNING L16: UNCALLED FUNCTION, IGNORED FOR OVERLAY PROCESS
    NAME:    Afe_120Hz_Run_RTC_Monitor?/FlowFactory

*** WARNING L16: UNCALLED FUNCTION, IGNORED FOR OVERLAY PROCESS
    NAME:    Afe_Lcd_WakeUp_StandBy?/FlowFactory

*** WARNING L16: UNCALLED FUNCTION, IGNORED FOR OVERLAY PROCESS
    NAME:    Afe_TestOneChannelAdc?/FlowFactory

*** WARNING L16: UNCALLED FUNCTION, IGNORED FOR OVERLAY PROCESS
    NAME:    Afe_LVDESDWakeUp_Stop?/FlowFactory

*** WARNING L16: UNCALLED FUNCTION, IGNORED FOR OVERLAY PROCESS
    NAME:    Afe_LcdRunWakeUp_Test?/FlowFactory

*** WARNING L16: UNCALLED FUNCTION, IGNORED FOR OVERLAY PROCESS
    NAME:    Afe_LcdDSTBWakeUp_Test?/FlowFactory

*** WARNING L16: UNCALLED FUNCTION, IGNORED FOR OVERLAY PROCESS
    NAME:    Afe_ALL_WakeUpStandby?/FlowFactory

*** WARNING L16: UNCALLED FUNCTION, IGNORED FOR OVERLAY PROCESS
    NAME:    Afe_LcdRun_Changed?/FlowFactory

*** WARNING L16: UNCALLED FUNCTION, IGNORED FOR OVERLAY PROCESS
    NAME:    Afe_60Hz_120Hz_Changed?/FlowFactory

*** WARNING L16: UNCALLED FUNCTION, IGNORED FOR OVERLAY PROCESS
    NAME:    TestXbus?/FlowFactory

*** WARNING L16: UNCALLED FUNCTION, IGNORED FOR OVERLAY PROCESS
    NAME:    Test_Afe_BaseRam?/FlowFactory

*** WARNING L16: UNCALLED FUNCTION, IGNORED FOR OVERLAY PROCESS
    NAME:    Test_Afe_AccRam?/FlowFactory

*** WARNING L16: UNCALLED FUNCTION, IGNORED FOR OVERLAY PROCESS
    NAME:    Test_Afe_TabRam?/FlowFactory

*** WARNING L16: UNCALLED FUNCTION, IGNORED FOR OVERLAY PROCESS
L251 LINKER/LOCATER V4.65.0.0                                                         05/26/2017  20:22:53  PAGE 137


    NAME:    Test_AfeReg?/FlowFactory

*** WARNING L16: UNCALLED FUNCTION, IGNORED FOR OVERLAY PROCESS
    NAME:    DrvSwReset?/DrvSysCtrl

*** WARNING L16: UNCALLED FUNCTION, IGNORED FOR OVERLAY PROCESS
    NAME:    DebugReadAFEReg?/DrvAfePara

*** WARNING L16: UNCALLED FUNCTION, IGNORED FOR OVERLAY PROCESS
    NAME:    DrvAFEGroupSelReg1?/DrvAfePara

*** WARNING L16: UNCALLED FUNCTION, IGNORED FOR OVERLAY PROCESS
    NAME:    DrvAFEGroupSelReg2?/DrvAfePara

*** WARNING L16: UNCALLED FUNCTION, IGNORED FOR OVERLAY PROCESS
    NAME:    DrvGetRptRamOrder?/DrvAfePara

*** WARNING L16: UNCALLED FUNCTION, IGNORED FOR OVERLAY PROCESS
    NAME:    DrvAfeScanMode?/DrvAfePara

*** WARNING L16: UNCALLED FUNCTION, IGNORED FOR OVERLAY PROCESS
    NAME:    DrvAfeSofeReset?/DrvAfePara

*** WARNING L16: UNCALLED FUNCTION, IGNORED FOR OVERLAY PROCESS
    NAME:    DrvAfeEn4mux?/DrvAfePara

*** WARNING L16: UNCALLED FUNCTION, IGNORED FOR OVERLAY PROCESS
    NAME:    DrvGetTabRam?/DrvAfePara

*** WARNING L16: UNCALLED FUNCTION, IGNORED FOR OVERLAY PROCESS
    NAME:    DrvAfeSetHCBThld?/DrvAfePara

*** WARNING L16: UNCALLED FUNCTION, IGNORED FOR OVERLAY PROCESS
    NAME:    Test_CLk48M?/DrvAfePara

*** WARNING L16: UNCALLED FUNCTION, IGNORED FOR OVERLAY PROCESS
    NAME:    Test_CLk32K?/DrvAfePara

*** WARNING L16: UNCALLED FUNCTION, IGNORED FOR OVERLAY PROCESS
    NAME:    Test_Ca_P4?/DrvAfePara

*** WARNING L16: UNCALLED FUNCTION, IGNORED FOR OVERLAY PROCESS
    NAME:    Test_Ca_Rst?/DrvAfePara

*** WARNING L16: UNCALLED FUNCTION, IGNORED FOR OVERLAY PROCESS
    NAME:    Test_Tp_Scan?/DrvAfePara

*** WARNING L16: UNCALLED FUNCTION, IGNORED FOR OVERLAY PROCESS
    NAME:    Test_Tp_Busy?/DrvAfePara

*** WARNING L16: UNCALLED FUNCTION, IGNORED FOR OVERLAY PROCESS
    NAME:    Test_MCAP_DONE?/DrvAfePara

*** WARNING L16: UNCALLED FUNCTION, IGNORED FOR OVERLAY PROCESS
    NAME:    Test_MCAP_ADC_DATA_VLD?/DrvAfePara

*** WARNING L16: UNCALLED FUNCTION, IGNORED FOR OVERLAY PROCESS
    NAME:    Test_Debug1?/DrvAfePara

*** WARNING L16: UNCALLED FUNCTION, IGNORED FOR OVERLAY PROCESS
    NAME:    Test_Debug2?/DrvAfePara

*** WARNING L16: UNCALLED FUNCTION, IGNORED FOR OVERLAY PROCESS
    NAME:    DrvAsmInterDisable1?/DrvAsmCtrl

L251 LINKER/LOCATER V4.65.0.0                                                         05/26/2017  20:22:53  PAGE 138


*** WARNING L16: UNCALLED FUNCTION, IGNORED FOR OVERLAY PROCESS
    NAME:    DebugReadAsmReg?/DrvAsmCtrl

*** WARNING L16: UNCALLED FUNCTION, IGNORED FOR OVERLAY PROCESS
    NAME:    AppGetAsmState?/DrvAsmCtrl

*** WARNING L16: UNCALLED FUNCTION, IGNORED FOR OVERLAY PROCESS
    NAME:    DrvAsmSetSTBTickMask?/DrvAsmCtrl

*** WARNING L16: UNCALLED FUNCTION, IGNORED FOR OVERLAY PROCESS
    NAME:    DrvAsmSkipFramNoLcdBusy?/DrvAsmCtrl

*** WARNING L16: UNCALLED FUNCTION, IGNORED FOR OVERLAY PROCESS
    NAME:    DrvAsmSkipFramHaveLcdBusy?/DrvAsmCtrl

*** WARNING L16: UNCALLED FUNCTION, IGNORED FOR OVERLAY PROCESS
    NAME:    DrvAsmAfeClkGateEn?/DrvAsmCtrl

*** WARNING L16: UNCALLED FUNCTION, IGNORED FOR OVERLAY PROCESS
    NAME:    getbyte?/uart

*** WARNING L16: UNCALLED FUNCTION, IGNORED FOR OVERLAY PROCESS
    NAME:    uart0_puts?/uart

*** WARNING L16: UNCALLED FUNCTION, IGNORED FOR OVERLAY PROCESS
    NAME:    TestFun1?/uart

*** WARNING L16: UNCALLED FUNCTION, IGNORED FOR OVERLAY PROCESS
    NAME:    TestFun2?/uart

*** WARNING L16: UNCALLED FUNCTION, IGNORED FOR OVERLAY PROCESS
    NAME:    TestUart?/uart

*** WARNING L16: UNCALLED FUNCTION, IGNORED FOR OVERLAY PROCESS
    NAME:    DrvCal_MatrixProc?/LibDrv

*** WARNING L16: UNCALLED FUNCTION, IGNORED FOR OVERLAY PROCESS
    NAME:    DrvCal_MatrixAmp?/LibDrv

*** WARNING L16: UNCALLED FUNCTION, IGNORED FOR OVERLAY PROCESS
    NAME:    DrvCal_MatrixMul?/LibDrv

*** WARNING L16: UNCALLED FUNCTION, IGNORED FOR OVERLAY PROCESS
    NAME:    DrvCal_MatrixAMov?/LibDrv

*** WARNING L16: UNCALLED FUNCTION, IGNORED FOR OVERLAY PROCESS
    NAME:    DrvXsi0_WriteN?/LibDrv

*** WARNING L16: UNCALLED FUNCTION, IGNORED FOR OVERLAY PROCESS
    NAME:    DrvXsi1_WriteN?/LibDrv

*** WARNING L15: MULTIPLE CALL TO FUNCTION
    NAME:    PRINTF?/PRINTF?
    CALLER1: ?C_C51STARTUP?3
    CALLER2: Exint0_IRQHandler?/DrvSysCtrl

*** WARNING L15: MULTIPLE CALL TO FUNCTION
    NAME:    PRINTF?/PRINTF?
    CALLER1: Exint0_IRQHandler?/DrvSysCtrl
    CALLER2: Exint1_IRQHandler?/DrvSysCtrl

*** WARNING L15: MULTIPLE CALL TO FUNCTION
    NAME:    PRINTF?/PRINTF?
    CALLER1: Exint1_IRQHandler?/DrvSysCtrl
    CALLER2: ISR_LcdRun_IRQHandler?/DrvAsmCtrl
L251 LINKER/LOCATER V4.65.0.0                                                         05/26/2017  20:22:53  PAGE 139



*** WARNING L15: MULTIPLE CALL TO FUNCTION
    NAME:    PRINTF?/PRINTF?
    CALLER1: ISR_LcdRun_IRQHandler?/DrvAsmCtrl
    CALLER2: DrvScanCtrl_IRQHandler?/DrvAsmCtrl

Program Size: data=121.4 edata+hdata=16770 xdata=0 const=6240 code=35325
L251 RUN COMPLETE.  67 WARNING(S),  0 ERROR(S)
